
zbwos.elf:     file format elf32-littlearm

Disassembly of section .text:

30007fc0 <_start>:
30007fc0:	ea00002f 	b	30008084 <reset>
30007fc4:	e59ff014 	ldr	pc, [pc, #20]	; 30007fe0 <und_addr>
30007fc8:	e59ff014 	ldr	pc, [pc, #20]	; 30007fe4 <swi_addr>
30007fcc:	ea00005d 	b	30008148 <halt>
30007fd0:	ea00005c 	b	30008148 <halt>
30007fd4:	ea00005b 	b	30008148 <halt>
30007fd8:	e59ff008 	ldr	pc, [pc, #8]	; 30007fe8 <irq_addr>
30007fdc:	ea000059 	b	30008148 <halt>

30007fe0 <und_addr>:
30007fe0:	30007fec 	andcc	r7, r0, ip, ror #31

30007fe4 <swi_addr>:
30007fe4:	30008030 	andcc	r8, r0, r0, lsr r0

30007fe8 <irq_addr>:
30007fe8:	3000d070 	andcc	sp, r0, r0, ror r0

30007fec <do_und>:
30007fec:	e3a0d30d 	mov	sp, #872415232	; 0x34000000
30007ff0:	e92d5fff 	stmdb	sp!, {r0, r1, r2, r3, r4, r5, r6, r7, r8, r9, sl, fp, ip, lr}
30007ff4:	e10f0000 	mrs	r0, CPSR
30007ff8:	e59f115c 	ldr	r1, [pc, #348]	; 3000815c <.text+0x19c>
30007ffc:	eb00022d 	bl	300088b8 <printException>
30008000:	e8fd9fff 	ldmia	sp!, {r0, r1, r2, r3, r4, r5, r6, r7, r8, r9, sl, fp, ip, pc}^

30008004 <und_string>:
30008004:	65646e75 	strvsb	r6, [r4, #-3701]!
30008008:	656e6966 	strvsb	r6, [lr, #-2406]!
3000800c:	6e692064 	cdpvs	0, 6, cr2, cr9, cr4, {3}
30008010:	75727473 	ldrvcb	r7, [r2, #-1139]!
30008014:	6f697463 	swivs	0x00697463
30008018:	7865206e 	stmvcda	r5!, {r1, r2, r3, r5, r6, sp}^
3000801c:	74706563 	ldrvcbt	r6, [r0], #-1379
30008020:	006e6f69 	rsbeq	r6, lr, r9, ror #30
	...

30008030 <do_swi>:
30008030:	e59fd128 	ldr	sp, [pc, #296]	; 30008160 <.text+0x1a0>
30008034:	e92d5fff 	stmdb	sp!, {r0, r1, r2, r3, r4, r5, r6, r7, r8, r9, sl, fp, ip, lr}
30008038:	e1a0400e 	mov	r4, lr
3000803c:	e10f0000 	mrs	r0, CPSR
30008040:	e59f111c 	ldr	r1, [pc, #284]	; 30008164 <.text+0x1a4>
30008044:	eb00021b 	bl	300088b8 <printException>
30008048:	e2440004 	sub	r0, r4, #4	; 0x4
3000804c:	eb00022e 	bl	3000890c <printSWIVal>
30008050:	e8fd9fff 	ldmia	sp!, {r0, r1, r2, r3, r4, r5, r6, r7, r8, r9, sl, fp, ip, pc}^

30008054 <swi_string>:
30008054:	20697773 	rsbcs	r7, r9, r3, ror r7
30008058:	65637865 	strvsb	r7, [r3, #-2149]!
3000805c:	6f697470 	swivs	0x00697470
30008060:	0000006e 	andeq	r0, r0, lr, rrx
	...

30008070 <do_irq_2440>:
30008070:	e59fd0f0 	ldr	sp, [pc, #240]	; 30008168 <.text+0x1a8>
30008074:	e24ee004 	sub	lr, lr, #4	; 0x4
30008078:	e92d5fff 	stmdb	sp!, {r0, r1, r2, r3, r4, r5, r6, r7, r8, r9, sl, fp, ip, lr}
3000807c:	eb00017c 	bl	30008674 <handle_irq_c>
30008080:	e8fd9fff 	ldmia	sp!, {r0, r1, r2, r3, r4, r5, r6, r7, r8, r9, sl, fp, ip, pc}^

30008084 <reset>:
30008084:	e59fd0e0 	ldr	sp, [pc, #224]	; 3000816c <.text+0x1ac>
30008088:	eb0003ed 	bl	30009044 <sdram_init>
3000808c:	eb000493 	bl	300092e0 <clean_bss>
30008090:	e3a00313 	mov	r0, #1275068416	; 0x4c000000
30008094:	e3e01000 	mvn	r1, #0	; 0x0
30008098:	e5801000 	str	r1, [r0]
3000809c:	e59f00cc 	ldr	r0, [pc, #204]	; 30008170 <.text+0x1b0>
300080a0:	e3a01005 	mov	r1, #5	; 0x5
300080a4:	e5801000 	str	r1, [r0]
300080a8:	ee110f10 	mrc	15, 0, r0, cr1, cr0, {0}
300080ac:	e3800103 	orr	r0, r0, #-1073741824	; 0xc0000000
300080b0:	ee010f10 	mcr	15, 0, r0, cr1, cr0, {0}
300080b4:	e59f00b8 	ldr	r0, [pc, #184]	; 30008174 <.text+0x1b4>
300080b8:	e59f10b8 	ldr	r1, [pc, #184]	; 30008178 <.text+0x1b8>
300080bc:	e5801000 	str	r1, [r0]
300080c0:	e10f0000 	mrs	r0, CPSR
300080c4:	e3c0000f 	bic	r0, r0, #15	; 0xf
300080c8:	e3c00080 	bic	r0, r0, #128	; 0x80
300080cc:	e129f000 	msr	CPSR_fc, r0
300080d0:	e59fd0a4 	ldr	sp, [pc, #164]	; 3000817c <.text+0x1bc>
300080d4:	e59ff0a4 	ldr	pc, [pc, #164]	; 30008180 <.text+0x1c0>
300080d8:	e3a00453 	mov	r0, #1392508928	; 0x53000000
300080dc:	e3a01000 	mov	r1, #0	; 0x0
300080e0:	e5801000 	str	r1, [r0]
300080e4:	e3a00313 	mov	r0, #1275068416	; 0x4c000000
300080e8:	e3e01000 	mvn	r1, #0	; 0x0
300080ec:	e5801000 	str	r1, [r0]
300080f0:	e59f0078 	ldr	r0, [pc, #120]	; 30008170 <.text+0x1b0>
300080f4:	e3a01005 	mov	r1, #5	; 0x5
300080f8:	e5801000 	str	r1, [r0]
300080fc:	ee110f10 	mrc	15, 0, r0, cr1, cr0, {0}
30008100:	e3800103 	orr	r0, r0, #-1073741824	; 0xc0000000
30008104:	ee010f10 	mcr	15, 0, r0, cr1, cr0, {0}
30008108:	e59f0064 	ldr	r0, [pc, #100]	; 30008174 <.text+0x1b4>
3000810c:	e59f1064 	ldr	r1, [pc, #100]	; 30008178 <.text+0x1b8>
30008110:	e5801000 	str	r1, [r0]
30008114:	e3a00000 	mov	r0, #0	; 0x0
30008118:	e5901000 	ldr	r1, [r0]
3000811c:	e5800000 	str	r0, [r0]
30008120:	e5902000 	ldr	r2, [r0]
30008124:	e1520000 	cmp	r2, r0
30008128:	e3a0d30d 	mov	sp, #872415232	; 0x34000000
3000812c:	03a0da01 	moveq	sp, #4096	; 0x1000
30008130:	e5801000 	str	r1, [r0]
30008134:	e10f0000 	mrs	r0, CPSR
30008138:	e3c0000f 	bic	r0, r0, #15	; 0xf
3000813c:	e3c00080 	bic	r0, r0, #128	; 0x80
30008140:	e129f000 	msr	CPSR_fc, r0
30008144:	e59fd020 	ldr	sp, [pc, #32]	; 3000816c <.text+0x1ac>

30008148 <halt>:
30008148:	eafffffe 	b	30008148 <halt>

3000814c <StartTask_asm>:
3000814c:	e8b00ff0 	ldmia	r0!, {r4, r5, r6, r7, r8, r9, sl, fp}
30008150:	e1a0d000 	mov	sp, r0
30008154:	e12fff11 	bx	r1

30008158 <_reboot>:
30008158:	e3a0f000 	mov	pc, #0	; 0x0
3000815c:	30008004 	andcc	r8, r0, r4
30008160:	33e00000 	mvncc	r0, #0	; 0x0
30008164:	30008054 	andcc	r8, r0, r4, asr r0
30008168:	33d00000 	bicccs	r0, r0, #0	; 0x0
3000816c:	33f00000 	mvnccs	r0, #0	; 0x0
30008170:	4c000014 	stcmi	0, cr0, [r0], {20}
30008174:	4c000004 	stcmi	0, cr0, [r0], {4}
30008178:	0005c011 	andeq	ip, r5, r1, lsl r0
3000817c:	33f80000 	mvnccs	r0, #0	; 0x0
30008180:	30008440 	andcc	r8, r0, r0, asr #8
30008184:	e1a00000 	nop			(mov r0,r0)
30008188:	e1a00000 	nop			(mov r0,r0)
3000818c:	e1a00000 	nop			(mov r0,r0)

30008190 <showbmp>:
30008190:	e1a0c00d 	mov	ip, sp
30008194:	e92dd800 	stmdb	sp!, {fp, ip, lr, pc}
30008198:	e24cb004 	sub	fp, ip, #4	; 0x4
3000819c:	e24dd014 	sub	sp, sp, #20	; 0x14
300081a0:	e50b0010 	str	r0, [fp, #-16]
300081a4:	e3a03000 	mov	r3, #0	; 0x0
300081a8:	e50b3014 	str	r3, [fp, #-20]
300081ac:	e3a03000 	mov	r3, #0	; 0x0
300081b0:	e50b3018 	str	r3, [fp, #-24]
300081b4:	e3a03000 	mov	r3, #0	; 0x0
300081b8:	e50b3020 	str	r3, [fp, #-32]
300081bc:	e3a030ec 	mov	r3, #236	; 0xec
300081c0:	e50b3018 	str	r3, [fp, #-24]
300081c4:	e51b3018 	ldr	r3, [fp, #-24]
300081c8:	e3530024 	cmp	r3, #36	; 0x24
300081cc:	9a00002a 	bls	3000827c <showbmp+0xec>
300081d0:	e3a0308c 	mov	r3, #140	; 0x8c
300081d4:	e50b3014 	str	r3, [fp, #-20]
300081d8:	e51b2014 	ldr	r2, [fp, #-20]
300081dc:	e3a03e15 	mov	r3, #336	; 0x150
300081e0:	e2833003 	add	r3, r3, #3	; 0x3
300081e4:	e1520003 	cmp	r2, r3
300081e8:	8a00001f 	bhi	3000826c <showbmp+0xdc>
300081ec:	e51b2010 	ldr	r2, [fp, #-16]
300081f0:	e51b3020 	ldr	r3, [fp, #-32]
300081f4:	e0823003 	add	r3, r2, r3
300081f8:	e5d30000 	ldrb	r0, [r3]
300081fc:	e3a01001 	mov	r1, #1	; 0x1
30008200:	e51b2010 	ldr	r2, [fp, #-16]
30008204:	e51b3020 	ldr	r3, [fp, #-32]
30008208:	e0823003 	add	r3, r2, r3
3000820c:	e0833001 	add	r3, r3, r1
30008210:	e5d33000 	ldrb	r3, [r3]
30008214:	e1a03403 	mov	r3, r3, lsl #8
30008218:	e0800003 	add	r0, r0, r3
3000821c:	e3a01002 	mov	r1, #2	; 0x2
30008220:	e51b2010 	ldr	r2, [fp, #-16]
30008224:	e51b3020 	ldr	r3, [fp, #-32]
30008228:	e0823003 	add	r3, r2, r3
3000822c:	e0833001 	add	r3, r3, r1
30008230:	e5d33000 	ldrb	r3, [r3]
30008234:	e1a03803 	mov	r3, r3, lsl #16
30008238:	e0803003 	add	r3, r0, r3
3000823c:	e50b301c 	str	r3, [fp, #-28]
30008240:	e51b3020 	ldr	r3, [fp, #-32]
30008244:	e2833003 	add	r3, r3, #3	; 0x3
30008248:	e50b3020 	str	r3, [fp, #-32]
3000824c:	e51b0014 	ldr	r0, [fp, #-20]
30008250:	e51b1018 	ldr	r1, [fp, #-24]
30008254:	e51b201c 	ldr	r2, [fp, #-28]
30008258:	eb0005be 	bl	30009958 <fb_put_pixel>
3000825c:	e51b3014 	ldr	r3, [fp, #-20]
30008260:	e2833001 	add	r3, r3, #1	; 0x1
30008264:	e50b3014 	str	r3, [fp, #-20]
30008268:	eaffffda 	b	300081d8 <showbmp+0x48>
3000826c:	e51b3018 	ldr	r3, [fp, #-24]
30008270:	e2433001 	sub	r3, r3, #1	; 0x1
30008274:	e50b3018 	str	r3, [fp, #-24]
30008278:	eaffffd1 	b	300081c4 <showbmp+0x34>
3000827c:	e24bd00c 	sub	sp, fp, #12	; 0xc
30008280:	e89da800 	ldmia	sp, {fp, sp, pc}

30008284 <GUI>:
30008284:	e1a0c00d 	mov	ip, sp
30008288:	e92dd800 	stmdb	sp!, {fp, ip, lr, pc}
3000828c:	e24cb004 	sub	fp, ip, #4	; 0x4
30008290:	e24dd01c 	sub	sp, sp, #28	; 0x1c
30008294:	e50b0010 	str	r0, [fp, #-16]
30008298:	e50b1014 	str	r1, [fp, #-20]
3000829c:	e3a03000 	mov	r3, #0	; 0x0
300082a0:	e50b3018 	str	r3, [fp, #-24]
300082a4:	eb00049a 	bl	30009514 <Enter_Critical>
300082a8:	eb00072a 	bl	30009f58 <lcd_test>
300082ac:	e59f0124 	ldr	r0, [pc, #292]	; 300083d8 <.text+0x418>
300082b0:	eb0014bf 	bl	3000d5b4 <filesystem_open_file>
300082b4:	e1a03000 	mov	r3, r0
300082b8:	e50b3028 	str	r3, [fp, #-40]
300082bc:	e51b3028 	ldr	r3, [fp, #-40]
300082c0:	e2833008 	add	r3, r3, #8	; 0x8
300082c4:	e51b2028 	ldr	r2, [fp, #-40]
300082c8:	e51bc028 	ldr	ip, [fp, #-40]
300082cc:	e59f0108 	ldr	r0, [pc, #264]	; 300083dc <.text+0x41c>
300082d0:	e1a01003 	mov	r1, r3
300082d4:	e5922000 	ldr	r2, [r2]
300082d8:	e59c3004 	ldr	r3, [ip, #4]
300082dc:	eb000e31 	bl	3000bba8 <printf>
300082e0:	e51b3028 	ldr	r3, [fp, #-40]
300082e4:	e3530000 	cmp	r3, #0	; 0x0
300082e8:	0a00000f 	beq	3000832c <GUI+0xa8>
300082ec:	e51b3028 	ldr	r3, [fp, #-40]
300082f0:	e5930000 	ldr	r0, [r3]
300082f4:	eb000b37 	bl	3000afd8 <New>
300082f8:	e50b001c 	str	r0, [fp, #-28]
300082fc:	e51b3028 	ldr	r3, [fp, #-40]
30008300:	e51b0028 	ldr	r0, [fp, #-40]
30008304:	e51b101c 	ldr	r1, [fp, #-28]
30008308:	e5932000 	ldr	r2, [r3]
3000830c:	eb001535 	bl	3000d7e8 <filesystem_read_file>
30008310:	e1a03000 	mov	r3, r0
30008314:	e50b3024 	str	r3, [fp, #-36]
30008318:	e51b3028 	ldr	r3, [fp, #-40]
3000831c:	e59f00bc 	ldr	r0, [pc, #188]	; 300083e0 <.text+0x420>
30008320:	e51b1024 	ldr	r1, [fp, #-36]
30008324:	e5932000 	ldr	r2, [r3]
30008328:	eb000e1e 	bl	3000bba8 <printf>
3000832c:	e59f00b0 	ldr	r0, [pc, #176]	; 300083e4 <.text+0x424>
30008330:	eb00149f 	bl	3000d5b4 <filesystem_open_file>
30008334:	e1a03000 	mov	r3, r0
30008338:	e50b3028 	str	r3, [fp, #-40]
3000833c:	e51b3028 	ldr	r3, [fp, #-40]
30008340:	e2833008 	add	r3, r3, #8	; 0x8
30008344:	e51b2028 	ldr	r2, [fp, #-40]
30008348:	e51bc028 	ldr	ip, [fp, #-40]
3000834c:	e59f0094 	ldr	r0, [pc, #148]	; 300083e8 <.text+0x428>
30008350:	e1a01003 	mov	r1, r3
30008354:	e5922000 	ldr	r2, [r2]
30008358:	e59c3004 	ldr	r3, [ip, #4]
3000835c:	eb000e11 	bl	3000bba8 <printf>
30008360:	e51b3028 	ldr	r3, [fp, #-40]
30008364:	e3530000 	cmp	r3, #0	; 0x0
30008368:	0a000011 	beq	300083b4 <GUI+0x130>
3000836c:	e59f0078 	ldr	r0, [pc, #120]	; 300083ec <.text+0x42c>
30008370:	eb000e0c 	bl	3000bba8 <printf>
30008374:	e51b3028 	ldr	r3, [fp, #-40]
30008378:	e5930000 	ldr	r0, [r3]
3000837c:	eb000b15 	bl	3000afd8 <New>
30008380:	e50b0020 	str	r0, [fp, #-32]
30008384:	e51b3028 	ldr	r3, [fp, #-40]
30008388:	e51b0028 	ldr	r0, [fp, #-40]
3000838c:	e51b1020 	ldr	r1, [fp, #-32]
30008390:	e5932000 	ldr	r2, [r3]
30008394:	eb001513 	bl	3000d7e8 <filesystem_read_file>
30008398:	e1a03000 	mov	r3, r0
3000839c:	e50b3024 	str	r3, [fp, #-36]
300083a0:	e51b3028 	ldr	r3, [fp, #-40]
300083a4:	e59f0034 	ldr	r0, [pc, #52]	; 300083e0 <.text+0x420>
300083a8:	e51b1024 	ldr	r1, [fp, #-36]
300083ac:	e5932000 	ldr	r2, [r3]
300083b0:	eb000dfc 	bl	3000bba8 <printf>
300083b4:	e51b301c 	ldr	r3, [fp, #-28]
300083b8:	e2833036 	add	r3, r3, #54	; 0x36
300083bc:	e1a00003 	mov	r0, r3
300083c0:	ebffff72 	bl	30008190 <showbmp>
300083c4:	e51b3020 	ldr	r3, [fp, #-32]
300083c8:	e2833036 	add	r3, r3, #54	; 0x36
300083cc:	e1a00003 	mov	r0, r3
300083d0:	ebffff6e 	bl	30008190 <showbmp>
300083d4:	eafffff6 	b	300083b4 <GUI+0x130>
300083d8:	3000e4dc 	ldrccd	lr, [r0], -ip
300083dc:	3000e4e8 	andcc	lr, r0, r8, ror #9
300083e0:	3000e514 	andcc	lr, r0, r4, lsl r5
300083e4:	3000e52c 	andcc	lr, r0, ip, lsr #10
300083e8:	3000e534 	andcc	lr, r0, r4, lsr r5
300083ec:	3000e560 	andcc	lr, r0, r0, ror #10

300083f0 <task_d>:
300083f0:	e1a0c00d 	mov	ip, sp
300083f4:	e92dd800 	stmdb	sp!, {fp, ip, lr, pc}
300083f8:	e24cb004 	sub	fp, ip, #4	; 0x4
300083fc:	e24dd00c 	sub	sp, sp, #12	; 0xc
30008400:	e50b0010 	str	r0, [fp, #-16]
30008404:	e50b1014 	str	r1, [fp, #-20]
30008408:	e3a03000 	mov	r3, #0	; 0x0
3000840c:	e50b3018 	str	r3, [fp, #-24]
30008410:	e59f0020 	ldr	r0, [pc, #32]	; 30008438 <.text+0x478>
30008414:	e51b1010 	ldr	r1, [fp, #-16]
30008418:	eb000aa7 	bl	3000aebc <debug>
3000841c:	e59f0018 	ldr	r0, [pc, #24]	; 3000843c <.text+0x47c>
30008420:	e51b1010 	ldr	r1, [fp, #-16]
30008424:	eb000aa4 	bl	3000aebc <debug>
30008428:	e3a00d27 	mov	r0, #2496	; 0x9c0
3000842c:	e2800004 	add	r0, r0, #4	; 0x4
30008430:	eb0012f8 	bl	3000d018 <msleep>
30008434:	eafffff8 	b	3000841c <task_d+0x2c>
30008438:	3000e568 	andcc	lr, r0, r8, ror #10
3000843c:	3000e584 	andcc	lr, r0, r4, lsl #11

30008440 <main>:
30008440:	e1a0c00d 	mov	ip, sp
30008444:	e92dd800 	stmdb	sp!, {fp, ip, lr, pc}
30008448:	e24cb004 	sub	fp, ip, #4	; 0x4
3000844c:	eb00015c 	bl	300089c4 <nand_init>
30008450:	eb001356 	bl	3000d1b0 <filesystem_init>
30008454:	eb000aae 	bl	3000af14 <core_init>
30008458:	e59f0030 	ldr	r0, [pc, #48]	; 30008490 <.text+0x4d0>
3000845c:	e3a01064 	mov	r1, #100	; 0x64
30008460:	e3a02000 	mov	r2, #0	; 0x0
30008464:	e3a03a01 	mov	r3, #4096	; 0x1000
30008468:	eb0010dc 	bl	3000c7e0 <creat_task>
3000846c:	e59f0020 	ldr	r0, [pc, #32]	; 30008494 <.text+0x4d4>
30008470:	e3a01067 	mov	r1, #103	; 0x67
30008474:	e3a02000 	mov	r2, #0	; 0x0
30008478:	e3a03a01 	mov	r3, #4096	; 0x1000
3000847c:	eb0010d7 	bl	3000c7e0 <creat_task>
30008480:	eb0011a8 	bl	3000cb28 <start_task>
30008484:	e3a03000 	mov	r3, #0	; 0x0
30008488:	e1a00003 	mov	r0, r3
3000848c:	e89da800 	ldmia	sp, {fp, sp, pc}
30008490:	300083f0 	strccd	r8, [r0], -r0
30008494:	30008284 	andcc	r8, r0, r4, lsl #5

30008498 <key_eint_irq>:
30008498:	e1a0c00d 	mov	ip, sp
3000849c:	e92dd800 	stmdb	sp!, {fp, ip, lr, pc}
300084a0:	e24cb004 	sub	fp, ip, #4	; 0x4
300084a4:	e24dd010 	sub	sp, sp, #16	; 0x10
300084a8:	e50b0010 	str	r0, [fp, #-16]
300084ac:	e3a03456 	mov	r3, #1442840576	; 0x56000000
300084b0:	e28330a8 	add	r3, r3, #168	; 0xa8
300084b4:	e5933000 	ldr	r3, [r3]
300084b8:	e50b3014 	str	r3, [fp, #-20]
300084bc:	e3a03456 	mov	r3, #1442840576	; 0x56000000
300084c0:	e2833054 	add	r3, r3, #84	; 0x54
300084c4:	e5933000 	ldr	r3, [r3]
300084c8:	e50b3018 	str	r3, [fp, #-24]
300084cc:	e3a03456 	mov	r3, #1442840576	; 0x56000000
300084d0:	e2833064 	add	r3, r3, #100	; 0x64
300084d4:	e5933000 	ldr	r3, [r3]
300084d8:	e50b301c 	str	r3, [fp, #-28]
300084dc:	e51b3010 	ldr	r3, [fp, #-16]
300084e0:	e3530000 	cmp	r3, #0	; 0x0
300084e4:	1a000013 	bne	30008538 <key_eint_irq+0xa0>
300084e8:	e51b3018 	ldr	r3, [fp, #-24]
300084ec:	e2033001 	and	r3, r3, #1	; 0x1
300084f0:	e3530000 	cmp	r3, #0	; 0x0
300084f4:	0a000007 	beq	30008518 <key_eint_irq+0x80>
300084f8:	e3a02456 	mov	r2, #1442840576	; 0x56000000
300084fc:	e2822054 	add	r2, r2, #84	; 0x54
30008500:	e3a03456 	mov	r3, #1442840576	; 0x56000000
30008504:	e2833054 	add	r3, r3, #84	; 0x54
30008508:	e5933000 	ldr	r3, [r3]
3000850c:	e3833040 	orr	r3, r3, #64	; 0x40
30008510:	e5823000 	str	r3, [r2]
30008514:	ea000050 	b	3000865c <key_eint_irq+0x1c4>
30008518:	e3a02456 	mov	r2, #1442840576	; 0x56000000
3000851c:	e2822054 	add	r2, r2, #84	; 0x54
30008520:	e3a03456 	mov	r3, #1442840576	; 0x56000000
30008524:	e2833054 	add	r3, r3, #84	; 0x54
30008528:	e5933000 	ldr	r3, [r3]
3000852c:	e3c33040 	bic	r3, r3, #64	; 0x40
30008530:	e5823000 	str	r3, [r2]
30008534:	ea000048 	b	3000865c <key_eint_irq+0x1c4>
30008538:	e51b3010 	ldr	r3, [fp, #-16]
3000853c:	e3530002 	cmp	r3, #2	; 0x2
30008540:	1a000013 	bne	30008594 <key_eint_irq+0xfc>
30008544:	e51b3018 	ldr	r3, [fp, #-24]
30008548:	e2033004 	and	r3, r3, #4	; 0x4
3000854c:	e3530000 	cmp	r3, #0	; 0x0
30008550:	0a000007 	beq	30008574 <key_eint_irq+0xdc>
30008554:	e3a02456 	mov	r2, #1442840576	; 0x56000000
30008558:	e2822054 	add	r2, r2, #84	; 0x54
3000855c:	e3a03456 	mov	r3, #1442840576	; 0x56000000
30008560:	e2833054 	add	r3, r3, #84	; 0x54
30008564:	e5933000 	ldr	r3, [r3]
30008568:	e3833020 	orr	r3, r3, #32	; 0x20
3000856c:	e5823000 	str	r3, [r2]
30008570:	ea000039 	b	3000865c <key_eint_irq+0x1c4>
30008574:	e3a02456 	mov	r2, #1442840576	; 0x56000000
30008578:	e2822054 	add	r2, r2, #84	; 0x54
3000857c:	e3a03456 	mov	r3, #1442840576	; 0x56000000
30008580:	e2833054 	add	r3, r3, #84	; 0x54
30008584:	e5933000 	ldr	r3, [r3]
30008588:	e3c33020 	bic	r3, r3, #32	; 0x20
3000858c:	e5823000 	str	r3, [r2]
30008590:	ea000031 	b	3000865c <key_eint_irq+0x1c4>
30008594:	e51b3010 	ldr	r3, [fp, #-16]
30008598:	e3530005 	cmp	r3, #5	; 0x5
3000859c:	1a00002e 	bne	3000865c <key_eint_irq+0x1c4>
300085a0:	e51b3014 	ldr	r3, [fp, #-20]
300085a4:	e2033b02 	and	r3, r3, #2048	; 0x800
300085a8:	e3530000 	cmp	r3, #0	; 0x0
300085ac:	0a000013 	beq	30008600 <key_eint_irq+0x168>
300085b0:	e51b301c 	ldr	r3, [fp, #-28]
300085b4:	e2033008 	and	r3, r3, #8	; 0x8
300085b8:	e3530000 	cmp	r3, #0	; 0x0
300085bc:	0a000007 	beq	300085e0 <key_eint_irq+0x148>
300085c0:	e3a02456 	mov	r2, #1442840576	; 0x56000000
300085c4:	e2822054 	add	r2, r2, #84	; 0x54
300085c8:	e3a03456 	mov	r3, #1442840576	; 0x56000000
300085cc:	e2833054 	add	r3, r3, #84	; 0x54
300085d0:	e5933000 	ldr	r3, [r3]
300085d4:	e3833010 	orr	r3, r3, #16	; 0x10
300085d8:	e5823000 	str	r3, [r2]
300085dc:	ea00001e 	b	3000865c <key_eint_irq+0x1c4>
300085e0:	e3a02456 	mov	r2, #1442840576	; 0x56000000
300085e4:	e2822054 	add	r2, r2, #84	; 0x54
300085e8:	e3a03456 	mov	r3, #1442840576	; 0x56000000
300085ec:	e2833054 	add	r3, r3, #84	; 0x54
300085f0:	e5933000 	ldr	r3, [r3]
300085f4:	e3c33010 	bic	r3, r3, #16	; 0x10
300085f8:	e5823000 	str	r3, [r2]
300085fc:	ea000016 	b	3000865c <key_eint_irq+0x1c4>
30008600:	e51b3014 	ldr	r3, [fp, #-20]
30008604:	e2033702 	and	r3, r3, #524288	; 0x80000
30008608:	e3530000 	cmp	r3, #0	; 0x0
3000860c:	0a000012 	beq	3000865c <key_eint_irq+0x1c4>
30008610:	e51b301c 	ldr	r3, [fp, #-28]
30008614:	e2033b02 	and	r3, r3, #2048	; 0x800
30008618:	e3530000 	cmp	r3, #0	; 0x0
3000861c:	0a000007 	beq	30008640 <key_eint_irq+0x1a8>
30008620:	e3a02456 	mov	r2, #1442840576	; 0x56000000
30008624:	e2822054 	add	r2, r2, #84	; 0x54
30008628:	e3a03456 	mov	r3, #1442840576	; 0x56000000
3000862c:	e2833054 	add	r3, r3, #84	; 0x54
30008630:	e5933000 	ldr	r3, [r3]
30008634:	e3833070 	orr	r3, r3, #112	; 0x70
30008638:	e5823000 	str	r3, [r2]
3000863c:	ea000006 	b	3000865c <key_eint_irq+0x1c4>
30008640:	e3a02456 	mov	r2, #1442840576	; 0x56000000
30008644:	e2822054 	add	r2, r2, #84	; 0x54
30008648:	e3a03456 	mov	r3, #1442840576	; 0x56000000
3000864c:	e2833054 	add	r3, r3, #84	; 0x54
30008650:	e5933000 	ldr	r3, [r3]
30008654:	e3c33070 	bic	r3, r3, #112	; 0x70
30008658:	e5823000 	str	r3, [r2]
3000865c:	e3a03456 	mov	r3, #1442840576	; 0x56000000
30008660:	e28330a8 	add	r3, r3, #168	; 0xa8
30008664:	e51b2014 	ldr	r2, [fp, #-20]
30008668:	e5832000 	str	r2, [r3]
3000866c:	e24bd00c 	sub	sp, fp, #12	; 0xc
30008670:	e89da800 	ldmia	sp, {fp, sp, pc}

30008674 <handle_irq_c>:
30008674:	e1a0c00d 	mov	ip, sp
30008678:	e92dd800 	stmdb	sp!, {fp, ip, lr, pc}
3000867c:	e24cb004 	sub	fp, ip, #4	; 0x4
30008680:	e24dd008 	sub	sp, sp, #8	; 0x8
30008684:	e50b0010 	str	r0, [fp, #-16]
30008688:	e3a0344a 	mov	r3, #1241513984	; 0x4a000000
3000868c:	e2833014 	add	r3, r3, #20	; 0x14
30008690:	e5933000 	ldr	r3, [r3]
30008694:	e50b3014 	str	r3, [fp, #-20]
30008698:	e59f2070 	ldr	r2, [pc, #112]	; 30008710 <.text+0x750>
3000869c:	e59f306c 	ldr	r3, [pc, #108]	; 30008710 <.text+0x750>
300086a0:	e5933000 	ldr	r3, [r3]
300086a4:	e2833001 	add	r3, r3, #1	; 0x1
300086a8:	e5823000 	str	r3, [r2]
300086ac:	e59f0060 	ldr	r0, [pc, #96]	; 30008714 <.text+0x754>
300086b0:	e51b1014 	ldr	r1, [fp, #-20]
300086b4:	eb000421 	bl	30009740 <pri>
300086b8:	e59f0058 	ldr	r0, [pc, #88]	; 30008718 <.text+0x758>
300086bc:	e51b1010 	ldr	r1, [fp, #-16]
300086c0:	eb00041e 	bl	30009740 <pri>
300086c4:	e59f3044 	ldr	r3, [pc, #68]	; 30008710 <.text+0x750>
300086c8:	e59f004c 	ldr	r0, [pc, #76]	; 3000871c <.text+0x75c>
300086cc:	e5931000 	ldr	r1, [r3]
300086d0:	eb00041a 	bl	30009740 <pri>
300086d4:	e59f0044 	ldr	r0, [pc, #68]	; 30008720 <.text+0x760>
300086d8:	eb0003f0 	bl	300096a0 <puts>
300086dc:	e3a0144a 	mov	r1, #1241513984	; 0x4a000000
300086e0:	e3a02001 	mov	r2, #1	; 0x1
300086e4:	e51b3014 	ldr	r3, [fp, #-20]
300086e8:	e1a03312 	mov	r3, r2, lsl r3
300086ec:	e5813000 	str	r3, [r1]
300086f0:	e3a0244a 	mov	r2, #1241513984	; 0x4a000000
300086f4:	e2822010 	add	r2, r2, #16	; 0x10
300086f8:	e3a01001 	mov	r1, #1	; 0x1
300086fc:	e51b3014 	ldr	r3, [fp, #-20]
30008700:	e1a03311 	mov	r3, r1, lsl r3
30008704:	e5823000 	str	r3, [r2]
30008708:	e24bd00c 	sub	sp, fp, #12	; 0xc
3000870c:	e89da800 	ldmia	sp, {fp, sp, pc}
30008710:	30010018 	andcc	r0, r1, r8, lsl r0
30008714:	3000e5a8 	andcc	lr, r0, r8, lsr #11
30008718:	3000e5b0 	strcch	lr, [r0], -r0
3000871c:	3000e5b8 	strcch	lr, [r0], -r8
30008720:	3000e5c0 	andcc	lr, r0, r0, asr #11

30008724 <register_irq>:
30008724:	e1a0c00d 	mov	ip, sp
30008728:	e92dd800 	stmdb	sp!, {fp, ip, lr, pc}
3000872c:	e24cb004 	sub	fp, ip, #4	; 0x4
30008730:	e24dd008 	sub	sp, sp, #8	; 0x8
30008734:	e50b0010 	str	r0, [fp, #-16]
30008738:	e50b1014 	str	r1, [fp, #-20]
3000873c:	e59f103c 	ldr	r1, [pc, #60]	; 30008780 <.text+0x7c0>
30008740:	e51b2010 	ldr	r2, [fp, #-16]
30008744:	e51b3014 	ldr	r3, [fp, #-20]
30008748:	e7813102 	str	r3, [r1, r2, lsl #2]
3000874c:	e3a0044a 	mov	r0, #1241513984	; 0x4a000000
30008750:	e2800008 	add	r0, r0, #8	; 0x8
30008754:	e3a0244a 	mov	r2, #1241513984	; 0x4a000000
30008758:	e2822008 	add	r2, r2, #8	; 0x8
3000875c:	e3a01001 	mov	r1, #1	; 0x1
30008760:	e51b3010 	ldr	r3, [fp, #-16]
30008764:	e1a03311 	mov	r3, r1, lsl r3
30008768:	e1e01003 	mvn	r1, r3
3000876c:	e5923000 	ldr	r3, [r2]
30008770:	e0033001 	and	r3, r3, r1
30008774:	e5803000 	str	r3, [r0]
30008778:	e24bd00c 	sub	sp, fp, #12	; 0xc
3000877c:	e89da800 	ldmia	sp, {fp, sp, pc}
30008780:	3001a12c 	andcc	sl, r1, ip, lsr #2

30008784 <key_eint_init>:
30008784:	e1a0c00d 	mov	ip, sp
30008788:	e92dd800 	stmdb	sp!, {fp, ip, lr, pc}
3000878c:	e24cb004 	sub	fp, ip, #4	; 0x4
30008790:	e3a02456 	mov	r2, #1442840576	; 0x56000000
30008794:	e2822050 	add	r2, r2, #80	; 0x50
30008798:	e3a03456 	mov	r3, #1442840576	; 0x56000000
3000879c:	e2833050 	add	r3, r3, #80	; 0x50
300087a0:	e5933000 	ldr	r3, [r3]
300087a4:	e3c33033 	bic	r3, r3, #51	; 0x33
300087a8:	e5823000 	str	r3, [r2]
300087ac:	e3a02456 	mov	r2, #1442840576	; 0x56000000
300087b0:	e2822050 	add	r2, r2, #80	; 0x50
300087b4:	e3a03456 	mov	r3, #1442840576	; 0x56000000
300087b8:	e2833050 	add	r3, r3, #80	; 0x50
300087bc:	e5933000 	ldr	r3, [r3]
300087c0:	e3833022 	orr	r3, r3, #34	; 0x22
300087c4:	e5823000 	str	r3, [r2]
300087c8:	e3a02456 	mov	r2, #1442840576	; 0x56000000
300087cc:	e2822060 	add	r2, r2, #96	; 0x60
300087d0:	e3a03456 	mov	r3, #1442840576	; 0x56000000
300087d4:	e2833060 	add	r3, r3, #96	; 0x60
300087d8:	e5933000 	ldr	r3, [r3]
300087dc:	e3c33503 	bic	r3, r3, #12582912	; 0xc00000
300087e0:	e3c330c0 	bic	r3, r3, #192	; 0xc0
300087e4:	e5823000 	str	r3, [r2]
300087e8:	e3a02456 	mov	r2, #1442840576	; 0x56000000
300087ec:	e2822060 	add	r2, r2, #96	; 0x60
300087f0:	e3a03456 	mov	r3, #1442840576	; 0x56000000
300087f4:	e2833060 	add	r3, r3, #96	; 0x60
300087f8:	e5933000 	ldr	r3, [r3]
300087fc:	e3833502 	orr	r3, r3, #8388608	; 0x800000
30008800:	e3833080 	orr	r3, r3, #128	; 0x80
30008804:	e5823000 	str	r3, [r2]
30008808:	e3a02456 	mov	r2, #1442840576	; 0x56000000
3000880c:	e2822088 	add	r2, r2, #136	; 0x88
30008810:	e3a03456 	mov	r3, #1442840576	; 0x56000000
30008814:	e2833088 	add	r3, r3, #136	; 0x88
30008818:	e5933000 	ldr	r3, [r3]
3000881c:	e3833c07 	orr	r3, r3, #1792	; 0x700
30008820:	e3833007 	orr	r3, r3, #7	; 0x7
30008824:	e5823000 	str	r3, [r2]
30008828:	e3a02456 	mov	r2, #1442840576	; 0x56000000
3000882c:	e282208c 	add	r2, r2, #140	; 0x8c
30008830:	e3a03456 	mov	r3, #1442840576	; 0x56000000
30008834:	e283308c 	add	r3, r3, #140	; 0x8c
30008838:	e5933000 	ldr	r3, [r3]
3000883c:	e3833a07 	orr	r3, r3, #28672	; 0x7000
30008840:	e5823000 	str	r3, [r2]
30008844:	e3a02456 	mov	r2, #1442840576	; 0x56000000
30008848:	e2822090 	add	r2, r2, #144	; 0x90
3000884c:	e3a03456 	mov	r3, #1442840576	; 0x56000000
30008850:	e2833090 	add	r3, r3, #144	; 0x90
30008854:	e5933000 	ldr	r3, [r3]
30008858:	e3833a07 	orr	r3, r3, #28672	; 0x7000
3000885c:	e5823000 	str	r3, [r2]
30008860:	e3a02456 	mov	r2, #1442840576	; 0x56000000
30008864:	e28220a4 	add	r2, r2, #164	; 0xa4
30008868:	e3a03456 	mov	r3, #1442840576	; 0x56000000
3000886c:	e28330a4 	add	r3, r3, #164	; 0xa4
30008870:	e5933000 	ldr	r3, [r3]
30008874:	e3c33702 	bic	r3, r3, #524288	; 0x80000
30008878:	e3c33b02 	bic	r3, r3, #2048	; 0x800
3000887c:	e5823000 	str	r3, [r2]
30008880:	e3a00000 	mov	r0, #0	; 0x0
30008884:	e59f1024 	ldr	r1, [pc, #36]	; 300088b0 <.text+0x8f0>
30008888:	ebffffa5 	bl	30008724 <register_irq>
3000888c:	e3a00002 	mov	r0, #2	; 0x2
30008890:	e59f1018 	ldr	r1, [pc, #24]	; 300088b0 <.text+0x8f0>
30008894:	ebffffa2 	bl	30008724 <register_irq>
30008898:	e3a00005 	mov	r0, #5	; 0x5
3000889c:	e59f100c 	ldr	r1, [pc, #12]	; 300088b0 <.text+0x8f0>
300088a0:	ebffff9f 	bl	30008724 <register_irq>
300088a4:	e59f0008 	ldr	r0, [pc, #8]	; 300088b4 <.text+0x8f4>
300088a8:	eb00037c 	bl	300096a0 <puts>
300088ac:	e89da800 	ldmia	sp, {fp, sp, pc}
300088b0:	30008498 	mulcc	r0, r8, r4
300088b4:	3000e5c4 	andcc	lr, r0, r4, asr #11

300088b8 <printException>:
300088b8:	e1a0c00d 	mov	ip, sp
300088bc:	e92dd800 	stmdb	sp!, {fp, ip, lr, pc}
300088c0:	e24cb004 	sub	fp, ip, #4	; 0x4
300088c4:	e24dd008 	sub	sp, sp, #8	; 0x8
300088c8:	e50b0010 	str	r0, [fp, #-16]
300088cc:	e50b1014 	str	r1, [fp, #-20]
300088d0:	e59f0028 	ldr	r0, [pc, #40]	; 30008900 <.text+0x940>
300088d4:	eb000371 	bl	300096a0 <puts>
300088d8:	e51b0010 	ldr	r0, [fp, #-16]
300088dc:	eb0003be 	bl	300097dc <pri_byte>
300088e0:	e59f001c 	ldr	r0, [pc, #28]	; 30008904 <.text+0x944>
300088e4:	eb00036d 	bl	300096a0 <puts>
300088e8:	e51b0014 	ldr	r0, [fp, #-20]
300088ec:	eb00036b 	bl	300096a0 <puts>
300088f0:	e59f0010 	ldr	r0, [pc, #16]	; 30008908 <.text+0x948>
300088f4:	eb000369 	bl	300096a0 <puts>
300088f8:	e24bd00c 	sub	sp, fp, #12	; 0xc
300088fc:	e89da800 	ldmia	sp, {fp, sp, pc}
30008900:	3000e5dc 	ldrccd	lr, [r0], -ip
30008904:	3000e5f0 	strccd	lr, [r0], -r0
30008908:	3000e5f4 	strccd	lr, [r0], -r4

3000890c <printSWIVal>:
3000890c:	e1a0c00d 	mov	ip, sp
30008910:	e92dd800 	stmdb	sp!, {fp, ip, lr, pc}
30008914:	e24cb004 	sub	fp, ip, #4	; 0x4
30008918:	e24dd004 	sub	sp, sp, #4	; 0x4
3000891c:	e50b0010 	str	r0, [fp, #-16]
30008920:	e59f0020 	ldr	r0, [pc, #32]	; 30008948 <.text+0x988>
30008924:	eb00035d 	bl	300096a0 <puts>
30008928:	e51b3010 	ldr	r3, [fp, #-16]
3000892c:	e5933000 	ldr	r3, [r3]
30008930:	e3c334ff 	bic	r3, r3, #-16777216	; 0xff000000
30008934:	e1a00003 	mov	r0, r3
30008938:	eb0003a7 	bl	300097dc <pri_byte>
3000893c:	e59f0008 	ldr	r0, [pc, #8]	; 3000894c <.text+0x98c>
30008940:	eb000356 	bl	300096a0 <puts>
30008944:	e89da808 	ldmia	sp, {r3, fp, sp, pc}
30008948:	3000e5f8 	strccd	lr, [r0], -r8
3000894c:	3000e5f4 	strccd	lr, [r0], -r4

30008950 <handle_irq_task>:
30008950:	e1a0c00d 	mov	ip, sp
30008954:	e92dd800 	stmdb	sp!, {fp, ip, lr, pc}
30008958:	e24cb004 	sub	fp, ip, #4	; 0x4
3000895c:	e3a0144a 	mov	r1, #1241513984	; 0x4a000000
30008960:	e3a0344a 	mov	r3, #1241513984	; 0x4a000000
30008964:	e2833014 	add	r3, r3, #20	; 0x14
30008968:	e3a02001 	mov	r2, #1	; 0x1
3000896c:	e5933000 	ldr	r3, [r3]
30008970:	e1a03312 	mov	r3, r2, lsl r3
30008974:	e5813000 	str	r3, [r1]
30008978:	e3a0244a 	mov	r2, #1241513984	; 0x4a000000
3000897c:	e2822010 	add	r2, r2, #16	; 0x10
30008980:	e3a0344a 	mov	r3, #1241513984	; 0x4a000000
30008984:	e2833014 	add	r3, r3, #20	; 0x14
30008988:	e3a01001 	mov	r1, #1	; 0x1
3000898c:	e5933000 	ldr	r3, [r3]
30008990:	e1a03311 	mov	r3, r1, lsl r3
30008994:	e5823000 	str	r3, [r2]
30008998:	e89da800 	ldmia	sp, {fp, sp, pc}

3000899c <uboot_handle_test>:
3000899c:	e1a0c00d 	mov	ip, sp
300089a0:	e92dd800 	stmdb	sp!, {fp, ip, lr, pc}
300089a4:	e24cb004 	sub	fp, ip, #4	; 0x4
300089a8:	e24dd004 	sub	sp, sp, #4	; 0x4
300089ac:	e50b0010 	str	r0, [fp, #-16]
300089b0:	e59f0008 	ldr	r0, [pc, #8]	; 300089c0 <.text+0xa00>
300089b4:	e51b1010 	ldr	r1, [fp, #-16]
300089b8:	eb000c7a 	bl	3000bba8 <printf>
300089bc:	e89da808 	ldmia	sp, {r3, fp, sp, pc}
300089c0:	3000e604 	andcc	lr, r0, r4, lsl #12

300089c4 <nand_init>:
300089c4:	e1a0c00d 	mov	ip, sp
300089c8:	e92dd800 	stmdb	sp!, {fp, ip, lr, pc}
300089cc:	e24cb004 	sub	fp, ip, #4	; 0x4
300089d0:	e3a0244e 	mov	r2, #1308622848	; 0x4e000000
300089d4:	e3a03c01 	mov	r3, #256	; 0x100
300089d8:	e5823000 	str	r3, [r2]
300089dc:	e3a0344e 	mov	r3, #1308622848	; 0x4e000000
300089e0:	e2833004 	add	r3, r3, #4	; 0x4
300089e4:	e3a02013 	mov	r2, #19	; 0x13
300089e8:	e5832000 	str	r2, [r3]
300089ec:	e89da800 	ldmia	sp, {fp, sp, pc}

300089f0 <nand_select>:
300089f0:	e1a0c00d 	mov	ip, sp
300089f4:	e92dd800 	stmdb	sp!, {fp, ip, lr, pc}
300089f8:	e24cb004 	sub	fp, ip, #4	; 0x4
300089fc:	e3a0244e 	mov	r2, #1308622848	; 0x4e000000
30008a00:	e2822004 	add	r2, r2, #4	; 0x4
30008a04:	e3a0344e 	mov	r3, #1308622848	; 0x4e000000
30008a08:	e2833004 	add	r3, r3, #4	; 0x4
30008a0c:	e5933000 	ldr	r3, [r3]
30008a10:	e3c33002 	bic	r3, r3, #2	; 0x2
30008a14:	e5823000 	str	r3, [r2]
30008a18:	e89da800 	ldmia	sp, {fp, sp, pc}

30008a1c <nand_deselect>:
30008a1c:	e1a0c00d 	mov	ip, sp
30008a20:	e92dd800 	stmdb	sp!, {fp, ip, lr, pc}
30008a24:	e24cb004 	sub	fp, ip, #4	; 0x4
30008a28:	e3a0244e 	mov	r2, #1308622848	; 0x4e000000
30008a2c:	e2822004 	add	r2, r2, #4	; 0x4
30008a30:	e3a0344e 	mov	r3, #1308622848	; 0x4e000000
30008a34:	e2833004 	add	r3, r3, #4	; 0x4
30008a38:	e5933000 	ldr	r3, [r3]
30008a3c:	e3833002 	orr	r3, r3, #2	; 0x2
30008a40:	e5823000 	str	r3, [r2]
30008a44:	e89da800 	ldmia	sp, {fp, sp, pc}

30008a48 <nand_cmd>:
30008a48:	e1a0c00d 	mov	ip, sp
30008a4c:	e92dd800 	stmdb	sp!, {fp, ip, lr, pc}
30008a50:	e24cb004 	sub	fp, ip, #4	; 0x4
30008a54:	e24dd008 	sub	sp, sp, #8	; 0x8
30008a58:	e1a03000 	mov	r3, r0
30008a5c:	e54b300d 	strb	r3, [fp, #-13]
30008a60:	e3a0344e 	mov	r3, #1308622848	; 0x4e000000
30008a64:	e2833008 	add	r3, r3, #8	; 0x8
30008a68:	e55b200d 	ldrb	r2, [fp, #-13]
30008a6c:	e5c32000 	strb	r2, [r3]
30008a70:	e3a03000 	mov	r3, #0	; 0x0
30008a74:	e50b3014 	str	r3, [fp, #-20]
30008a78:	e51b3014 	ldr	r3, [fp, #-20]
30008a7c:	e3530009 	cmp	r3, #9	; 0x9
30008a80:	ca000003 	bgt	30008a94 <nand_cmd+0x4c>
30008a84:	e51b3014 	ldr	r3, [fp, #-20]
30008a88:	e2833001 	add	r3, r3, #1	; 0x1
30008a8c:	e50b3014 	str	r3, [fp, #-20]
30008a90:	eafffff8 	b	30008a78 <nand_cmd+0x30>
30008a94:	e24bd00c 	sub	sp, fp, #12	; 0xc
30008a98:	e89da800 	ldmia	sp, {fp, sp, pc}

30008a9c <nand_addr_byte>:
30008a9c:	e1a0c00d 	mov	ip, sp
30008aa0:	e92dd800 	stmdb	sp!, {fp, ip, lr, pc}
30008aa4:	e24cb004 	sub	fp, ip, #4	; 0x4
30008aa8:	e24dd008 	sub	sp, sp, #8	; 0x8
30008aac:	e1a03000 	mov	r3, r0
30008ab0:	e54b300d 	strb	r3, [fp, #-13]
30008ab4:	e3a0344e 	mov	r3, #1308622848	; 0x4e000000
30008ab8:	e283300c 	add	r3, r3, #12	; 0xc
30008abc:	e55b200d 	ldrb	r2, [fp, #-13]
30008ac0:	e5c32000 	strb	r2, [r3]
30008ac4:	e3a03000 	mov	r3, #0	; 0x0
30008ac8:	e50b3014 	str	r3, [fp, #-20]
30008acc:	e51b3014 	ldr	r3, [fp, #-20]
30008ad0:	e3530009 	cmp	r3, #9	; 0x9
30008ad4:	ca000003 	bgt	30008ae8 <nand_addr_byte+0x4c>
30008ad8:	e51b3014 	ldr	r3, [fp, #-20]
30008adc:	e2833001 	add	r3, r3, #1	; 0x1
30008ae0:	e50b3014 	str	r3, [fp, #-20]
30008ae4:	eafffff8 	b	30008acc <nand_addr_byte+0x30>
30008ae8:	e24bd00c 	sub	sp, fp, #12	; 0xc
30008aec:	e89da800 	ldmia	sp, {fp, sp, pc}

30008af0 <nand_data>:
30008af0:	e1a0c00d 	mov	ip, sp
30008af4:	e92dd800 	stmdb	sp!, {fp, ip, lr, pc}
30008af8:	e24cb004 	sub	fp, ip, #4	; 0x4
30008afc:	e3a0344e 	mov	r3, #1308622848	; 0x4e000000
30008b00:	e2833010 	add	r3, r3, #16	; 0x10
30008b04:	e5d33000 	ldrb	r3, [r3]
30008b08:	e20330ff 	and	r3, r3, #255	; 0xff
30008b0c:	e1a00003 	mov	r0, r3
30008b10:	e89da800 	ldmia	sp, {fp, sp, pc}

30008b14 <nand_w_data>:
30008b14:	e1a0c00d 	mov	ip, sp
30008b18:	e92dd800 	stmdb	sp!, {fp, ip, lr, pc}
30008b1c:	e24cb004 	sub	fp, ip, #4	; 0x4
30008b20:	e24dd004 	sub	sp, sp, #4	; 0x4
30008b24:	e1a03000 	mov	r3, r0
30008b28:	e54b300d 	strb	r3, [fp, #-13]
30008b2c:	e3a0344e 	mov	r3, #1308622848	; 0x4e000000
30008b30:	e2833010 	add	r3, r3, #16	; 0x10
30008b34:	e55b200d 	ldrb	r2, [fp, #-13]
30008b38:	e5c32000 	strb	r2, [r3]
30008b3c:	e89da808 	ldmia	sp, {r3, fp, sp, pc}

30008b40 <nand_chip_id>:
30008b40:	e1a0c00d 	mov	ip, sp
30008b44:	e92dd800 	stmdb	sp!, {fp, ip, lr, pc}
30008b48:	e24cb004 	sub	fp, ip, #4	; 0x4
30008b4c:	e24dd008 	sub	sp, sp, #8	; 0x8
30008b50:	e3a03000 	mov	r3, #0	; 0x0
30008b54:	e50b3014 	str	r3, [fp, #-20]
30008b58:	e3a03000 	mov	r3, #0	; 0x0
30008b5c:	e54b3010 	strb	r3, [fp, #-16]
30008b60:	ebffffa2 	bl	300089f0 <nand_select>
30008b64:	e3a00090 	mov	r0, #144	; 0x90
30008b68:	ebffffb6 	bl	30008a48 <nand_cmd>
30008b6c:	e3a00000 	mov	r0, #0	; 0x0
30008b70:	ebffffc9 	bl	30008a9c <nand_addr_byte>
30008b74:	ebffffdd 	bl	30008af0 <nand_data>
30008b78:	e54b0014 	strb	r0, [fp, #-20]
30008b7c:	ebffffdb 	bl	30008af0 <nand_data>
30008b80:	e54b0013 	strb	r0, [fp, #-19]
30008b84:	ebffffd9 	bl	30008af0 <nand_data>
30008b88:	e54b0012 	strb	r0, [fp, #-18]
30008b8c:	ebffffd7 	bl	30008af0 <nand_data>
30008b90:	e54b0011 	strb	r0, [fp, #-17]
30008b94:	ebffffd5 	bl	30008af0 <nand_data>
30008b98:	e54b0010 	strb	r0, [fp, #-16]
30008b9c:	ebffff9e 	bl	30008a1c <nand_deselect>
30008ba0:	e55b3014 	ldrb	r3, [fp, #-20]
30008ba4:	e59f008c 	ldr	r0, [pc, #140]	; 30008c38 <.text+0xc78>
30008ba8:	e1a01003 	mov	r1, r3
30008bac:	eb00030a 	bl	300097dc <pri_byte>
30008bb0:	e55b3013 	ldrb	r3, [fp, #-19]
30008bb4:	e59f0080 	ldr	r0, [pc, #128]	; 30008c3c <.text+0xc7c>
30008bb8:	e1a01003 	mov	r1, r3
30008bbc:	eb000306 	bl	300097dc <pri_byte>
30008bc0:	e55b3012 	ldrb	r3, [fp, #-18]
30008bc4:	e59f0074 	ldr	r0, [pc, #116]	; 30008c40 <.text+0xc80>
30008bc8:	e1a01003 	mov	r1, r3
30008bcc:	eb000302 	bl	300097dc <pri_byte>
30008bd0:	e55b3011 	ldrb	r3, [fp, #-17]
30008bd4:	e59f0068 	ldr	r0, [pc, #104]	; 30008c44 <.text+0xc84>
30008bd8:	e1a01003 	mov	r1, r3
30008bdc:	eb0002fe 	bl	300097dc <pri_byte>
30008be0:	e55b3011 	ldrb	r3, [fp, #-17]
30008be4:	e2032003 	and	r2, r3, #3	; 0x3
30008be8:	e3a03001 	mov	r3, #1	; 0x1
30008bec:	e1a03213 	mov	r3, r3, lsl r2
30008bf0:	e59f0050 	ldr	r0, [pc, #80]	; 30008c48 <.text+0xc88>
30008bf4:	e1a01003 	mov	r1, r3
30008bf8:	eb0002d0 	bl	30009740 <pri>
30008bfc:	e55b3011 	ldrb	r3, [fp, #-17]
30008c00:	e1a03223 	mov	r3, r3, lsr #4
30008c04:	e20330ff 	and	r3, r3, #255	; 0xff
30008c08:	e2032003 	and	r2, r3, #3	; 0x3
30008c0c:	e3a03040 	mov	r3, #64	; 0x40
30008c10:	e1a03213 	mov	r3, r3, lsl r2
30008c14:	e59f0030 	ldr	r0, [pc, #48]	; 30008c4c <.text+0xc8c>
30008c18:	e1a01003 	mov	r1, r3
30008c1c:	eb0002c7 	bl	30009740 <pri>
30008c20:	e55b3010 	ldrb	r3, [fp, #-16]
30008c24:	e59f0024 	ldr	r0, [pc, #36]	; 30008c50 <.text+0xc90>
30008c28:	e1a01003 	mov	r1, r3
30008c2c:	eb0002ea 	bl	300097dc <pri_byte>
30008c30:	e24bd00c 	sub	sp, fp, #12	; 0xc
30008c34:	e89da800 	ldmia	sp, {fp, sp, pc}
30008c38:	3000e628 	andcc	lr, r0, r8, lsr #12
30008c3c:	3000e634 	andcc	lr, r0, r4, lsr r6
30008c40:	3000e644 	andcc	lr, r0, r4, asr #12
30008c44:	3000e650 	andcc	lr, r0, r0, asr r6
30008c48:	3000e660 	andcc	lr, r0, r0, ror #12
30008c4c:	3000e670 	andcc	lr, r0, r0, ror r6
30008c50:	3000e680 	andcc	lr, r0, r0, lsl #13

30008c54 <wait_ready>:
30008c54:	e1a0c00d 	mov	ip, sp
30008c58:	e92dd800 	stmdb	sp!, {fp, ip, lr, pc}
30008c5c:	e24cb004 	sub	fp, ip, #4	; 0x4
30008c60:	e3a0344e 	mov	r3, #1308622848	; 0x4e000000
30008c64:	e2833020 	add	r3, r3, #32	; 0x20
30008c68:	e5d33000 	ldrb	r3, [r3]
30008c6c:	e20330ff 	and	r3, r3, #255	; 0xff
30008c70:	e2033001 	and	r3, r3, #1	; 0x1
30008c74:	e3530000 	cmp	r3, #0	; 0x0
30008c78:	1a000000 	bne	30008c80 <wait_ready+0x2c>
30008c7c:	eafffff7 	b	30008c60 <wait_ready+0xc>
30008c80:	e89da800 	ldmia	sp, {fp, sp, pc}

30008c84 <nand_read>:
30008c84:	e1a0c00d 	mov	ip, sp
30008c88:	e92dd800 	stmdb	sp!, {fp, ip, lr, pc}
30008c8c:	e24cb004 	sub	fp, ip, #4	; 0x4
30008c90:	e24dd018 	sub	sp, sp, #24	; 0x18
30008c94:	e50b0010 	str	r0, [fp, #-16]
30008c98:	e50b1014 	str	r1, [fp, #-20]
30008c9c:	e50b2018 	str	r2, [fp, #-24]
30008ca0:	e3a03000 	mov	r3, #0	; 0x0
30008ca4:	e50b301c 	str	r3, [fp, #-28]
30008ca8:	e51b3010 	ldr	r3, [fp, #-16]
30008cac:	e1a035a3 	mov	r3, r3, lsr #11
30008cb0:	e50b3020 	str	r3, [fp, #-32]
30008cb4:	e51b3010 	ldr	r3, [fp, #-16]
30008cb8:	e1a03a83 	mov	r3, r3, lsl #21
30008cbc:	e1a03aa3 	mov	r3, r3, lsr #21
30008cc0:	e50b3024 	str	r3, [fp, #-36]
30008cc4:	ebffff49 	bl	300089f0 <nand_select>
30008cc8:	e51b201c 	ldr	r2, [fp, #-28]
30008ccc:	e51b3018 	ldr	r3, [fp, #-24]
30008cd0:	e1520003 	cmp	r2, r3
30008cd4:	2a000038 	bcs	30008dbc <nand_read+0x138>
30008cd8:	e3a00000 	mov	r0, #0	; 0x0
30008cdc:	ebffff59 	bl	30008a48 <nand_cmd>
30008ce0:	e51b3024 	ldr	r3, [fp, #-36]
30008ce4:	e20330ff 	and	r3, r3, #255	; 0xff
30008ce8:	e1a00003 	mov	r0, r3
30008cec:	ebffff6a 	bl	30008a9c <nand_addr_byte>
30008cf0:	e51b3024 	ldr	r3, [fp, #-36]
30008cf4:	e1a03443 	mov	r3, r3, asr #8
30008cf8:	e20330ff 	and	r3, r3, #255	; 0xff
30008cfc:	e1a00003 	mov	r0, r3
30008d00:	ebffff65 	bl	30008a9c <nand_addr_byte>
30008d04:	e51b3020 	ldr	r3, [fp, #-32]
30008d08:	e20330ff 	and	r3, r3, #255	; 0xff
30008d0c:	e1a00003 	mov	r0, r3
30008d10:	ebffff61 	bl	30008a9c <nand_addr_byte>
30008d14:	e51b3020 	ldr	r3, [fp, #-32]
30008d18:	e1a03443 	mov	r3, r3, asr #8
30008d1c:	e20330ff 	and	r3, r3, #255	; 0xff
30008d20:	e1a00003 	mov	r0, r3
30008d24:	ebffff5c 	bl	30008a9c <nand_addr_byte>
30008d28:	e51b3020 	ldr	r3, [fp, #-32]
30008d2c:	e1a03843 	mov	r3, r3, asr #16
30008d30:	e20330ff 	and	r3, r3, #255	; 0xff
30008d34:	e1a00003 	mov	r0, r3
30008d38:	ebffff57 	bl	30008a9c <nand_addr_byte>
30008d3c:	e3a00030 	mov	r0, #48	; 0x30
30008d40:	ebffff40 	bl	30008a48 <nand_cmd>
30008d44:	ebffffc2 	bl	30008c54 <wait_ready>
30008d48:	e51b2024 	ldr	r2, [fp, #-36]
30008d4c:	e3a03e7f 	mov	r3, #2032	; 0x7f0
30008d50:	e283300f 	add	r3, r3, #15	; 0xf
30008d54:	e1520003 	cmp	r2, r3
30008d58:	ca000011 	bgt	30008da4 <nand_read+0x120>
30008d5c:	e51b201c 	ldr	r2, [fp, #-28]
30008d60:	e51b3018 	ldr	r3, [fp, #-24]
30008d64:	e1520003 	cmp	r2, r3
30008d68:	2a00000d 	bcs	30008da4 <nand_read+0x120>
30008d6c:	ebffff5f 	bl	30008af0 <nand_data>
30008d70:	e1a0c000 	mov	ip, r0
30008d74:	e24b001c 	sub	r0, fp, #28	; 0x1c
30008d78:	e5902000 	ldr	r2, [r0]
30008d7c:	e1a01002 	mov	r1, r2
30008d80:	e51b3014 	ldr	r3, [fp, #-20]
30008d84:	e0813003 	add	r3, r1, r3
30008d88:	e5c3c000 	strb	ip, [r3]
30008d8c:	e2822001 	add	r2, r2, #1	; 0x1
30008d90:	e5802000 	str	r2, [r0]
30008d94:	e51b3024 	ldr	r3, [fp, #-36]
30008d98:	e2833001 	add	r3, r3, #1	; 0x1
30008d9c:	e50b3024 	str	r3, [fp, #-36]
30008da0:	eaffffe8 	b	30008d48 <nand_read+0xc4>
30008da4:	e3a03000 	mov	r3, #0	; 0x0
30008da8:	e50b3024 	str	r3, [fp, #-36]
30008dac:	e51b3020 	ldr	r3, [fp, #-32]
30008db0:	e2833001 	add	r3, r3, #1	; 0x1
30008db4:	e50b3020 	str	r3, [fp, #-32]
30008db8:	eaffffc2 	b	30008cc8 <nand_read+0x44>
30008dbc:	ebffff16 	bl	30008a1c <nand_deselect>
30008dc0:	e24bd00c 	sub	sp, fp, #12	; 0xc
30008dc4:	e89da800 	ldmia	sp, {fp, sp, pc}

30008dc8 <nand_erase>:
30008dc8:	e1a0c00d 	mov	ip, sp
30008dcc:	e92dd800 	stmdb	sp!, {fp, ip, lr, pc}
30008dd0:	e24cb004 	sub	fp, ip, #4	; 0x4
30008dd4:	e24dd00c 	sub	sp, sp, #12	; 0xc
30008dd8:	e50b0010 	str	r0, [fp, #-16]
30008ddc:	e50b1014 	str	r1, [fp, #-20]
30008de0:	e51b3010 	ldr	r3, [fp, #-16]
30008de4:	e1a035a3 	mov	r3, r3, lsr #11
30008de8:	e50b3018 	str	r3, [fp, #-24]
30008dec:	e51b3010 	ldr	r3, [fp, #-16]
30008df0:	e3c334ff 	bic	r3, r3, #-16777216	; 0xff000000
30008df4:	e3c338fe 	bic	r3, r3, #16646144	; 0xfe0000
30008df8:	e3530000 	cmp	r3, #0	; 0x0
30008dfc:	1a000005 	bne	30008e18 <nand_erase+0x50>
30008e00:	e51b3014 	ldr	r3, [fp, #-20]
30008e04:	e3c334ff 	bic	r3, r3, #-16777216	; 0xff000000
30008e08:	e3c338fe 	bic	r3, r3, #16646144	; 0xfe0000
30008e0c:	e3530000 	cmp	r3, #0	; 0x0
30008e10:	1a000000 	bne	30008e18 <nand_erase+0x50>
30008e14:	ea000002 	b	30008e24 <nand_erase+0x5c>
30008e18:	e59f0094 	ldr	r0, [pc, #148]	; 30008eb4 <.text+0xef4>
30008e1c:	eb00021f 	bl	300096a0 <puts>
30008e20:	ea000021 	b	30008eac <nand_erase+0xe4>
30008e24:	ebfffef1 	bl	300089f0 <nand_select>
30008e28:	e51b3014 	ldr	r3, [fp, #-20]
30008e2c:	e3530000 	cmp	r3, #0	; 0x0
30008e30:	0a00001c 	beq	30008ea8 <nand_erase+0xe0>
30008e34:	e51b3010 	ldr	r3, [fp, #-16]
30008e38:	e1a035a3 	mov	r3, r3, lsr #11
30008e3c:	e50b3018 	str	r3, [fp, #-24]
30008e40:	e3a00060 	mov	r0, #96	; 0x60
30008e44:	ebfffeff 	bl	30008a48 <nand_cmd>
30008e48:	e51b3018 	ldr	r3, [fp, #-24]
30008e4c:	e20330ff 	and	r3, r3, #255	; 0xff
30008e50:	e1a00003 	mov	r0, r3
30008e54:	ebffff10 	bl	30008a9c <nand_addr_byte>
30008e58:	e51b3018 	ldr	r3, [fp, #-24]
30008e5c:	e1a03443 	mov	r3, r3, asr #8
30008e60:	e20330ff 	and	r3, r3, #255	; 0xff
30008e64:	e1a00003 	mov	r0, r3
30008e68:	ebffff0b 	bl	30008a9c <nand_addr_byte>
30008e6c:	e51b3018 	ldr	r3, [fp, #-24]
30008e70:	e1a03843 	mov	r3, r3, asr #16
30008e74:	e20330ff 	and	r3, r3, #255	; 0xff
30008e78:	e1a00003 	mov	r0, r3
30008e7c:	ebffff06 	bl	30008a9c <nand_addr_byte>
30008e80:	e3a000d0 	mov	r0, #208	; 0xd0
30008e84:	ebfffeef 	bl	30008a48 <nand_cmd>
30008e88:	ebffff71 	bl	30008c54 <wait_ready>
30008e8c:	e51b3014 	ldr	r3, [fp, #-20]
30008e90:	e2433802 	sub	r3, r3, #131072	; 0x20000
30008e94:	e50b3014 	str	r3, [fp, #-20]
30008e98:	e51b3010 	ldr	r3, [fp, #-16]
30008e9c:	e2833802 	add	r3, r3, #131072	; 0x20000
30008ea0:	e50b3010 	str	r3, [fp, #-16]
30008ea4:	eaffffdf 	b	30008e28 <nand_erase+0x60>
30008ea8:	ebfffedb 	bl	30008a1c <nand_deselect>
30008eac:	e24bd00c 	sub	sp, fp, #12	; 0xc
30008eb0:	e89da800 	ldmia	sp, {fp, sp, pc}
30008eb4:	3000e690 	mulcc	r0, r0, r6

30008eb8 <nand_write>:
30008eb8:	e1a0c00d 	mov	ip, sp
30008ebc:	e92dd800 	stmdb	sp!, {fp, ip, lr, pc}
30008ec0:	e24cb004 	sub	fp, ip, #4	; 0x4
30008ec4:	e24dd018 	sub	sp, sp, #24	; 0x18
30008ec8:	e50b0010 	str	r0, [fp, #-16]
30008ecc:	e50b1014 	str	r1, [fp, #-20]
30008ed0:	e50b2018 	str	r2, [fp, #-24]
30008ed4:	e3a03000 	mov	r3, #0	; 0x0
30008ed8:	e50b301c 	str	r3, [fp, #-28]
30008edc:	e51b3010 	ldr	r3, [fp, #-16]
30008ee0:	e1a035a3 	mov	r3, r3, lsr #11
30008ee4:	e50b3020 	str	r3, [fp, #-32]
30008ee8:	e51b3010 	ldr	r3, [fp, #-16]
30008eec:	e1a03a83 	mov	r3, r3, lsl #21
30008ef0:	e1a03aa3 	mov	r3, r3, lsr #21
30008ef4:	e50b3024 	str	r3, [fp, #-36]
30008ef8:	ebfffebc 	bl	300089f0 <nand_select>
30008efc:	e51b201c 	ldr	r2, [fp, #-28]
30008f00:	e51b3018 	ldr	r3, [fp, #-24]
30008f04:	e1520003 	cmp	r2, r3
30008f08:	2a000039 	bcs	30008ff4 <nand_write+0x13c>
30008f0c:	e3a00080 	mov	r0, #128	; 0x80
30008f10:	ebfffecc 	bl	30008a48 <nand_cmd>
30008f14:	e51b3024 	ldr	r3, [fp, #-36]
30008f18:	e20330ff 	and	r3, r3, #255	; 0xff
30008f1c:	e1a00003 	mov	r0, r3
30008f20:	ebfffedd 	bl	30008a9c <nand_addr_byte>
30008f24:	e51b3024 	ldr	r3, [fp, #-36]
30008f28:	e1a03443 	mov	r3, r3, asr #8
30008f2c:	e20330ff 	and	r3, r3, #255	; 0xff
30008f30:	e1a00003 	mov	r0, r3
30008f34:	ebfffed8 	bl	30008a9c <nand_addr_byte>
30008f38:	e51b3020 	ldr	r3, [fp, #-32]
30008f3c:	e20330ff 	and	r3, r3, #255	; 0xff
30008f40:	e1a00003 	mov	r0, r3
30008f44:	ebfffed4 	bl	30008a9c <nand_addr_byte>
30008f48:	e51b3020 	ldr	r3, [fp, #-32]
30008f4c:	e1a03443 	mov	r3, r3, asr #8
30008f50:	e20330ff 	and	r3, r3, #255	; 0xff
30008f54:	e1a00003 	mov	r0, r3
30008f58:	ebfffecf 	bl	30008a9c <nand_addr_byte>
30008f5c:	e51b3020 	ldr	r3, [fp, #-32]
30008f60:	e1a03843 	mov	r3, r3, asr #16
30008f64:	e20330ff 	and	r3, r3, #255	; 0xff
30008f68:	e1a00003 	mov	r0, r3
30008f6c:	ebfffeca 	bl	30008a9c <nand_addr_byte>
30008f70:	e24b2024 	sub	r2, fp, #36	; 0x24
30008f74:	e5923000 	ldr	r3, [r2]
30008f78:	e1a01003 	mov	r1, r3
30008f7c:	e2833001 	add	r3, r3, #1	; 0x1
30008f80:	e5823000 	str	r3, [r2]
30008f84:	e3a03e7f 	mov	r3, #2032	; 0x7f0
30008f88:	e283300f 	add	r3, r3, #15	; 0xf
30008f8c:	e1510003 	cmp	r1, r3
30008f90:	ca00000e 	bgt	30008fd0 <nand_write+0x118>
30008f94:	e51b201c 	ldr	r2, [fp, #-28]
30008f98:	e51b3018 	ldr	r3, [fp, #-24]
30008f9c:	e1520003 	cmp	r2, r3
30008fa0:	2a00000a 	bcs	30008fd0 <nand_write+0x118>
30008fa4:	e24b001c 	sub	r0, fp, #28	; 0x1c
30008fa8:	e5902000 	ldr	r2, [r0]
30008fac:	e1a01002 	mov	r1, r2
30008fb0:	e51b3014 	ldr	r3, [fp, #-20]
30008fb4:	e0813003 	add	r3, r1, r3
30008fb8:	e5d33000 	ldrb	r3, [r3]
30008fbc:	e2822001 	add	r2, r2, #1	; 0x1
30008fc0:	e5802000 	str	r2, [r0]
30008fc4:	e1a00003 	mov	r0, r3
30008fc8:	ebfffed1 	bl	30008b14 <nand_w_data>
30008fcc:	eaffffe7 	b	30008f70 <nand_write+0xb8>
30008fd0:	e3a00010 	mov	r0, #16	; 0x10
30008fd4:	ebfffe9b 	bl	30008a48 <nand_cmd>
30008fd8:	ebffff1d 	bl	30008c54 <wait_ready>
30008fdc:	e3a03000 	mov	r3, #0	; 0x0
30008fe0:	e50b3024 	str	r3, [fp, #-36]
30008fe4:	e51b3020 	ldr	r3, [fp, #-32]
30008fe8:	e2833001 	add	r3, r3, #1	; 0x1
30008fec:	e50b3020 	str	r3, [fp, #-32]
30008ff0:	eaffffc1 	b	30008efc <nand_write+0x44>
30008ff4:	ebfffe88 	bl	30008a1c <nand_deselect>
30008ff8:	e24bd00c 	sub	sp, fp, #12	; 0xc
30008ffc:	e89da800 	ldmia	sp, {fp, sp, pc}

30009000 <nand_test>:
30009000:	e1a0c00d 	mov	ip, sp
30009004:	e92dd800 	stmdb	sp!, {fp, ip, lr, pc}
30009008:	e24cb004 	sub	fp, ip, #4	; 0x4
3000900c:	e24dd01c 	sub	sp, sp, #28	; 0x1c
30009010:	e59f0008 	ldr	r0, [pc, #8]	; 30009020 <.text+0x1060>
30009014:	eb0001a1 	bl	300096a0 <puts>
30009018:	e24bd00c 	sub	sp, fp, #12	; 0xc
3000901c:	e89da800 	ldmia	sp, {fp, sp, pc}
30009020:	3000e6b4 	strcch	lr, [r0], -r4

30009024 <get_bss_end>:
30009024:	e1a0c00d 	mov	ip, sp
30009028:	e92dd800 	stmdb	sp!, {fp, ip, lr, pc}
3000902c:	e24cb004 	sub	fp, ip, #4	; 0x4
30009030:	e59f3008 	ldr	r3, [pc, #8]	; 30009040 <.text+0x1080>
30009034:	e5933000 	ldr	r3, [r3]
30009038:	e1a00003 	mov	r0, r3
3000903c:	e89da800 	ldmia	sp, {fp, sp, pc}
30009040:	3001001c 	andcc	r0, r1, ip, lsl r0

30009044 <sdram_init>:
30009044:	e1a0c00d 	mov	ip, sp
30009048:	e92dd800 	stmdb	sp!, {fp, ip, lr, pc}
3000904c:	e24cb004 	sub	fp, ip, #4	; 0x4
30009050:	e3a02312 	mov	r2, #1207959552	; 0x48000000
30009054:	e3a03422 	mov	r3, #570425344	; 0x22000000
30009058:	e5823000 	str	r3, [r2]
3000905c:	e3a02312 	mov	r2, #1207959552	; 0x48000000
30009060:	e282201c 	add	r2, r2, #28	; 0x1c
30009064:	e3a03906 	mov	r3, #98304	; 0x18000
30009068:	e2833001 	add	r3, r3, #1	; 0x1
3000906c:	e5823000 	str	r3, [r2]
30009070:	e3a02312 	mov	r2, #1207959552	; 0x48000000
30009074:	e2822020 	add	r2, r2, #32	; 0x20
30009078:	e3a03906 	mov	r3, #98304	; 0x18000
3000907c:	e2833001 	add	r3, r3, #1	; 0x1
30009080:	e5823000 	str	r3, [r2]
30009084:	e3a02312 	mov	r2, #1207959552	; 0x48000000
30009088:	e2822024 	add	r2, r2, #36	; 0x24
3000908c:	e3a03721 	mov	r3, #8650752	; 0x840000
30009090:	e2833e4f 	add	r3, r3, #1264	; 0x4f0
30009094:	e2833005 	add	r3, r3, #5	; 0x5
30009098:	e5823000 	str	r3, [r2]
3000909c:	e3a03312 	mov	r3, #1207959552	; 0x48000000
300090a0:	e2833028 	add	r3, r3, #40	; 0x28
300090a4:	e3a020b1 	mov	r2, #177	; 0xb1
300090a8:	e5832000 	str	r2, [r3]
300090ac:	e3a03312 	mov	r3, #1207959552	; 0x48000000
300090b0:	e283302c 	add	r3, r3, #44	; 0x2c
300090b4:	e3a02020 	mov	r2, #32	; 0x20
300090b8:	e5832000 	str	r2, [r3]
300090bc:	e3a03312 	mov	r3, #1207959552	; 0x48000000
300090c0:	e2833030 	add	r3, r3, #48	; 0x30
300090c4:	e3a02020 	mov	r2, #32	; 0x20
300090c8:	e5832000 	str	r2, [r3]
300090cc:	e89da800 	ldmia	sp, {fp, sp, pc}

300090d0 <sdram_test>:
300090d0:	e1a0c00d 	mov	ip, sp
300090d4:	e92dd800 	stmdb	sp!, {fp, ip, lr, pc}
300090d8:	e24cb004 	sub	fp, ip, #4	; 0x4
300090dc:	e24dd010 	sub	sp, sp, #16	; 0x10
300090e0:	e50b0010 	str	r0, [fp, #-16]
300090e4:	e50b1014 	str	r1, [fp, #-20]
300090e8:	e3a03000 	mov	r3, #0	; 0x0
300090ec:	e50b3018 	str	r3, [fp, #-24]
300090f0:	e3a03000 	mov	r3, #0	; 0x0
300090f4:	e50b3018 	str	r3, [fp, #-24]
300090f8:	e51b2018 	ldr	r2, [fp, #-24]
300090fc:	e51b3014 	ldr	r3, [fp, #-20]
30009100:	e1520003 	cmp	r2, r3
30009104:	2a000008 	bcs	3000912c <sdram_test+0x5c>
30009108:	e51b2010 	ldr	r2, [fp, #-16]
3000910c:	e51b3018 	ldr	r3, [fp, #-24]
30009110:	e0822003 	add	r2, r2, r3
30009114:	e3a03055 	mov	r3, #85	; 0x55
30009118:	e5c23000 	strb	r3, [r2]
3000911c:	e51b3018 	ldr	r3, [fp, #-24]
30009120:	e2833001 	add	r3, r3, #1	; 0x1
30009124:	e50b3018 	str	r3, [fp, #-24]
30009128:	eafffff2 	b	300090f8 <sdram_test+0x28>
3000912c:	e3a03000 	mov	r3, #0	; 0x0
30009130:	e50b3018 	str	r3, [fp, #-24]
30009134:	e51b2018 	ldr	r2, [fp, #-24]
30009138:	e51b3014 	ldr	r3, [fp, #-20]
3000913c:	e1520003 	cmp	r2, r3
30009140:	2a00000f 	bcs	30009184 <sdram_test+0xb4>
30009144:	e51b2010 	ldr	r2, [fp, #-16]
30009148:	e51b3018 	ldr	r3, [fp, #-24]
3000914c:	e0823003 	add	r3, r2, r3
30009150:	e5d33000 	ldrb	r3, [r3]
30009154:	e20330ff 	and	r3, r3, #255	; 0xff
30009158:	e3530055 	cmp	r3, #85	; 0x55
3000915c:	0a000004 	beq	30009174 <sdram_test+0xa4>
30009160:	e59f0038 	ldr	r0, [pc, #56]	; 300091a0 <.text+0x11e0>
30009164:	eb00014d 	bl	300096a0 <puts>
30009168:	e3a03001 	mov	r3, #1	; 0x1
3000916c:	e50b301c 	str	r3, [fp, #-28]
30009170:	ea000007 	b	30009194 <sdram_test+0xc4>
30009174:	e51b3018 	ldr	r3, [fp, #-24]
30009178:	e2833001 	add	r3, r3, #1	; 0x1
3000917c:	e50b3018 	str	r3, [fp, #-24]
30009180:	eaffffeb 	b	30009134 <sdram_test+0x64>
30009184:	e59f0018 	ldr	r0, [pc, #24]	; 300091a4 <.text+0x11e4>
30009188:	eb000144 	bl	300096a0 <puts>
3000918c:	e3a03000 	mov	r3, #0	; 0x0
30009190:	e50b301c 	str	r3, [fp, #-28]
30009194:	e51b001c 	ldr	r0, [fp, #-28]
30009198:	e24bd00c 	sub	sp, fp, #12	; 0xc
3000919c:	e89da800 	ldmia	sp, {fp, sp, pc}
300091a0:	3000e6c8 	andcc	lr, r0, r8, asr #13
300091a4:	3000e6dc 	ldrccd	lr, [r0], -ip

300091a8 <isBootFromNorFlash>:
300091a8:	e1a0c00d 	mov	ip, sp
300091ac:	e92dd800 	stmdb	sp!, {fp, ip, lr, pc}
300091b0:	e24cb004 	sub	fp, ip, #4	; 0x4
300091b4:	e24dd00c 	sub	sp, sp, #12	; 0xc
300091b8:	e3a03000 	mov	r3, #0	; 0x0
300091bc:	e50b3010 	str	r3, [fp, #-16]
300091c0:	e51b3010 	ldr	r3, [fp, #-16]
300091c4:	e5933000 	ldr	r3, [r3]
300091c8:	e50b3014 	str	r3, [fp, #-20]
300091cc:	e51b2010 	ldr	r2, [fp, #-16]
300091d0:	e59f3040 	ldr	r3, [pc, #64]	; 30009218 <.text+0x1258>
300091d4:	e5823000 	str	r3, [r2]
300091d8:	e51b3010 	ldr	r3, [fp, #-16]
300091dc:	e5932000 	ldr	r2, [r3]
300091e0:	e59f3030 	ldr	r3, [pc, #48]	; 30009218 <.text+0x1258>
300091e4:	e1520003 	cmp	r2, r3
300091e8:	1a000005 	bne	30009204 <isBootFromNorFlash+0x5c>
300091ec:	e51b2010 	ldr	r2, [fp, #-16]
300091f0:	e51b3014 	ldr	r3, [fp, #-20]
300091f4:	e5823000 	str	r3, [r2]
300091f8:	e3a03000 	mov	r3, #0	; 0x0
300091fc:	e50b3018 	str	r3, [fp, #-24]
30009200:	ea000001 	b	3000920c <isBootFromNorFlash+0x64>
30009204:	e3a03001 	mov	r3, #1	; 0x1
30009208:	e50b3018 	str	r3, [fp, #-24]
3000920c:	e51b0018 	ldr	r0, [fp, #-24]
30009210:	e24bd00c 	sub	sp, fp, #12	; 0xc
30009214:	e89da800 	ldmia	sp, {fp, sp, pc}
30009218:	12345678 	eornes	r5, r4, #125829120	; 0x7800000

3000921c <copy2sdram>:
3000921c:	e1a0c00d 	mov	ip, sp
30009220:	e92dd800 	stmdb	sp!, {fp, ip, lr, pc}
30009224:	e24cb004 	sub	fp, ip, #4	; 0x4
30009228:	e24dd010 	sub	sp, sp, #16	; 0x10
3000922c:	e3a03000 	mov	r3, #0	; 0x0
30009230:	e50b3010 	str	r3, [fp, #-16]
30009234:	e59f3094 	ldr	r3, [pc, #148]	; 300092d0 <.text+0x1310>
30009238:	e50b3014 	str	r3, [fp, #-20]
3000923c:	e59f3090 	ldr	r3, [pc, #144]	; 300092d4 <.text+0x1314>
30009240:	e50b3018 	str	r3, [fp, #-24]
30009244:	e59f2088 	ldr	r2, [pc, #136]	; 300092d4 <.text+0x1314>
30009248:	e59f3080 	ldr	r3, [pc, #128]	; 300092d0 <.text+0x1310>
3000924c:	e0633002 	rsb	r3, r3, r2
30009250:	e50b301c 	str	r3, [fp, #-28]
30009254:	eb0000bf 	bl	30009558 <Uart_Init>
30009258:	e59f0078 	ldr	r0, [pc, #120]	; 300092d8 <.text+0x1318>
3000925c:	eb00010f 	bl	300096a0 <puts>
30009260:	ebffffd0 	bl	300091a8 <isBootFromNorFlash>
30009264:	e1a03000 	mov	r3, r0
30009268:	e3530000 	cmp	r3, #0	; 0x0
3000926c:	0a00000e 	beq	300092ac <copy2sdram+0x90>
30009270:	e51b2014 	ldr	r2, [fp, #-20]
30009274:	e51b3018 	ldr	r3, [fp, #-24]
30009278:	e1520003 	cmp	r2, r3
3000927c:	2a00000f 	bcs	300092c0 <copy2sdram+0xa4>
30009280:	e51b2014 	ldr	r2, [fp, #-20]
30009284:	e51b3010 	ldr	r3, [fp, #-16]
30009288:	e5933000 	ldr	r3, [r3]
3000928c:	e5823000 	str	r3, [r2]
30009290:	e51b3014 	ldr	r3, [fp, #-20]
30009294:	e2833004 	add	r3, r3, #4	; 0x4
30009298:	e50b3014 	str	r3, [fp, #-20]
3000929c:	e51b3010 	ldr	r3, [fp, #-16]
300092a0:	e2833004 	add	r3, r3, #4	; 0x4
300092a4:	e50b3010 	str	r3, [fp, #-16]
300092a8:	eafffff0 	b	30009270 <copy2sdram+0x54>
300092ac:	ebfffdc4 	bl	300089c4 <nand_init>
300092b0:	e51b0010 	ldr	r0, [fp, #-16]
300092b4:	e51b1014 	ldr	r1, [fp, #-20]
300092b8:	e51b201c 	ldr	r2, [fp, #-28]
300092bc:	ebfffe70 	bl	30008c84 <nand_read>
300092c0:	e59f0014 	ldr	r0, [pc, #20]	; 300092dc <.text+0x131c>
300092c4:	eb0000f5 	bl	300096a0 <puts>
300092c8:	e24bd00c 	sub	sp, fp, #12	; 0xc
300092cc:	e89da800 	ldmia	sp, {fp, sp, pc}
300092d0:	30007fc0 	andcc	r7, r0, r0, asr #31
300092d4:	30010018 	andcc	r0, r1, r8, lsl r0
300092d8:	3000e6f4 	strccd	lr, [r0], -r4
300092dc:	3000e704 	andcc	lr, r0, r4, lsl #14

300092e0 <clean_bss>:
300092e0:	e1a0c00d 	mov	ip, sp
300092e4:	e92dd800 	stmdb	sp!, {fp, ip, lr, pc}
300092e8:	e24cb004 	sub	fp, ip, #4	; 0x4
300092ec:	e24dd00c 	sub	sp, sp, #12	; 0xc
300092f0:	e59f3060 	ldr	r3, [pc, #96]	; 30009358 <.text+0x1398>
300092f4:	e50b3010 	str	r3, [fp, #-16]
300092f8:	e59f305c 	ldr	r3, [pc, #92]	; 3000935c <.text+0x139c>
300092fc:	e50b3014 	str	r3, [fp, #-20]
30009300:	e3a03000 	mov	r3, #0	; 0x0
30009304:	e50b3018 	str	r3, [fp, #-24]
30009308:	e59f0050 	ldr	r0, [pc, #80]	; 30009360 <.text+0x13a0>
3000930c:	e51b1010 	ldr	r1, [fp, #-16]
30009310:	e51b2014 	ldr	r2, [fp, #-20]
30009314:	eb000a23 	bl	3000bba8 <printf>
30009318:	e51b2010 	ldr	r2, [fp, #-16]
3000931c:	e51b3014 	ldr	r3, [fp, #-20]
30009320:	e1520003 	cmp	r2, r3
30009324:	2a000006 	bcs	30009344 <clean_bss+0x64>
30009328:	e51b2010 	ldr	r2, [fp, #-16]
3000932c:	e3a03000 	mov	r3, #0	; 0x0
30009330:	e5823000 	str	r3, [r2]
30009334:	e51b3010 	ldr	r3, [fp, #-16]
30009338:	e2833004 	add	r3, r3, #4	; 0x4
3000933c:	e50b3010 	str	r3, [fp, #-16]
30009340:	eafffff4 	b	30009318 <clean_bss+0x38>
30009344:	e59f2018 	ldr	r2, [pc, #24]	; 30009364 <.text+0x13a4>
30009348:	e51b3014 	ldr	r3, [fp, #-20]
3000934c:	e5823000 	str	r3, [r2]
30009350:	e24bd00c 	sub	sp, fp, #12	; 0xc
30009354:	e89da800 	ldmia	sp, {fp, sp, pc}
30009358:	30010018 	andcc	r0, r1, r8, lsl r0
3000935c:	3001a3d0 	ldrccd	sl, [r1], -r0
30009360:	3000e714 	andcc	lr, r0, r4, lsl r7
30009364:	3001001c 	andcc	r0, r1, ip, lsl r0

30009368 <timer_irq>:
30009368:	e1a0c00d 	mov	ip, sp
3000936c:	e92dd800 	stmdb	sp!, {fp, ip, lr, pc}
30009370:	e24cb004 	sub	fp, ip, #4	; 0x4
30009374:	e24dd004 	sub	sp, sp, #4	; 0x4
30009378:	e50b0010 	str	r0, [fp, #-16]
3000937c:	e59f0004 	ldr	r0, [pc, #4]	; 30009388 <.text+0x13c8>
30009380:	eb0000c6 	bl	300096a0 <puts>
30009384:	e89da808 	ldmia	sp, {r3, fp, sp, pc}
30009388:	3000e73c 	andcc	lr, r0, ip, lsr r7

3000938c <timer_init>:
3000938c:	e1a0c00d 	mov	ip, sp
30009390:	e92dd810 	stmdb	sp!, {r4, fp, ip, lr, pc}
30009394:	e24cb004 	sub	fp, ip, #4	; 0x4
30009398:	e24dd008 	sub	sp, sp, #8	; 0x8
3000939c:	e50b0014 	str	r0, [fp, #-20]
300093a0:	e3a02451 	mov	r2, #1358954496	; 0x51000000
300093a4:	e3a03031 	mov	r3, #49	; 0x31
300093a8:	e5823000 	str	r3, [r2]
300093ac:	e3a02451 	mov	r2, #1358954496	; 0x51000000
300093b0:	e2822004 	add	r2, r2, #4	; 0x4
300093b4:	e3a03451 	mov	r3, #1358954496	; 0x51000000
300093b8:	e2833004 	add	r3, r3, #4	; 0x4
300093bc:	e5933000 	ldr	r3, [r3]
300093c0:	e3c3300f 	bic	r3, r3, #15	; 0xf
300093c4:	e5823000 	str	r3, [r2]
300093c8:	e3a02451 	mov	r2, #1358954496	; 0x51000000
300093cc:	e2822004 	add	r2, r2, #4	; 0x4
300093d0:	e3a03451 	mov	r3, #1358954496	; 0x51000000
300093d4:	e2833004 	add	r3, r3, #4	; 0x4
300093d8:	e5933000 	ldr	r3, [r3]
300093dc:	e3833003 	orr	r3, r3, #3	; 0x3
300093e0:	e5823000 	str	r3, [r2]
300093e4:	e51b3014 	ldr	r3, [fp, #-20]
300093e8:	e3530ffa 	cmp	r3, #1000	; 0x3e8
300093ec:	8a000013 	bhi	30009440 <timer_init+0xb4>
300093f0:	e51b3014 	ldr	r3, [fp, #-20]
300093f4:	e3530000 	cmp	r3, #0	; 0x0
300093f8:	0a000010 	beq	30009440 <timer_init+0xb4>
300093fc:	e3a04451 	mov	r4, #1358954496	; 0x51000000
30009400:	e284400c 	add	r4, r4, #12	; 0xc
30009404:	e51b1014 	ldr	r1, [fp, #-20]
30009408:	e1a02001 	mov	r2, r1
3000940c:	e1a02282 	mov	r2, r2, lsl #5
30009410:	e0612002 	rsb	r2, r1, r2
30009414:	e1a03302 	mov	r3, r2, lsl #6
30009418:	e0623003 	rsb	r3, r2, r3
3000941c:	e1a03183 	mov	r3, r3, lsl #3
30009420:	e0833001 	add	r3, r3, r1
30009424:	e1a03103 	mov	r3, r3, lsl #2
30009428:	e1a00003 	mov	r0, r3
3000942c:	e3a01ffa 	mov	r1, #1000	; 0x3e8
30009430:	eb0007c6 	bl	3000b350 <__udivsi3>
30009434:	e1a03000 	mov	r3, r0
30009438:	e5843000 	str	r3, [r4]
3000943c:	ea000004 	b	30009454 <timer_init+0xc8>
30009440:	e59f0078 	ldr	r0, [pc, #120]	; 300094c0 <.text+0x1500>
30009444:	eb000095 	bl	300096a0 <puts>
30009448:	e3e03000 	mvn	r3, #0	; 0x0
3000944c:	e50b3018 	str	r3, [fp, #-24]
30009450:	ea000017 	b	300094b4 <timer_init+0x128>
30009454:	e3a02451 	mov	r2, #1358954496	; 0x51000000
30009458:	e2822008 	add	r2, r2, #8	; 0x8
3000945c:	e3a03451 	mov	r3, #1358954496	; 0x51000000
30009460:	e2833008 	add	r3, r3, #8	; 0x8
30009464:	e5933000 	ldr	r3, [r3]
30009468:	e3833002 	orr	r3, r3, #2	; 0x2
3000946c:	e5823000 	str	r3, [r2]
30009470:	e3a02451 	mov	r2, #1358954496	; 0x51000000
30009474:	e2822008 	add	r2, r2, #8	; 0x8
30009478:	e3a03451 	mov	r3, #1358954496	; 0x51000000
3000947c:	e2833008 	add	r3, r3, #8	; 0x8
30009480:	e5933000 	ldr	r3, [r3]
30009484:	e3c33002 	bic	r3, r3, #2	; 0x2
30009488:	e5823000 	str	r3, [r2]
3000948c:	e3a02451 	mov	r2, #1358954496	; 0x51000000
30009490:	e2822008 	add	r2, r2, #8	; 0x8
30009494:	e3a03451 	mov	r3, #1358954496	; 0x51000000
30009498:	e2833008 	add	r3, r3, #8	; 0x8
3000949c:	e5933000 	ldr	r3, [r3]
300094a0:	e3833009 	orr	r3, r3, #9	; 0x9
300094a4:	e5823000 	str	r3, [r2]
300094a8:	e3a0000a 	mov	r0, #10	; 0xa
300094ac:	e59f1010 	ldr	r1, [pc, #16]	; 300094c4 <.text+0x1504>
300094b0:	ebfffc9b 	bl	30008724 <register_irq>
300094b4:	e51b0018 	ldr	r0, [fp, #-24]
300094b8:	e24bd010 	sub	sp, fp, #16	; 0x10
300094bc:	e89da810 	ldmia	sp, {r4, fp, sp, pc}
300094c0:	3000e74c 	andcc	lr, r0, ip, asr #14
300094c4:	30009368 	andcc	r9, r0, r8, ror #6

300094c8 <Exit_Critical>:
300094c8:	e1a0c00d 	mov	ip, sp
300094cc:	e92dd800 	stmdb	sp!, {fp, ip, lr, pc}
300094d0:	e24cb004 	sub	fp, ip, #4	; 0x4
300094d4:	e59f2034 	ldr	r2, [pc, #52]	; 30009510 <.text+0x1550>
300094d8:	e59f3030 	ldr	r3, [pc, #48]	; 30009510 <.text+0x1550>
300094dc:	e5933000 	ldr	r3, [r3]
300094e0:	e2433001 	sub	r3, r3, #1	; 0x1
300094e4:	e5823000 	str	r3, [r2]
300094e8:	e3530000 	cmp	r3, #0	; 0x0
300094ec:	1a000006 	bne	3000950c <Exit_Critical+0x44>
300094f0:	e3a02451 	mov	r2, #1358954496	; 0x51000000
300094f4:	e2822008 	add	r2, r2, #8	; 0x8
300094f8:	e3a03451 	mov	r3, #1358954496	; 0x51000000
300094fc:	e2833008 	add	r3, r3, #8	; 0x8
30009500:	e5933000 	ldr	r3, [r3]
30009504:	e3833001 	orr	r3, r3, #1	; 0x1
30009508:	e5823000 	str	r3, [r2]
3000950c:	e89da800 	ldmia	sp, {fp, sp, pc}
30009510:	30010020 	andcc	r0, r1, r0, lsr #32

30009514 <Enter_Critical>:
30009514:	e1a0c00d 	mov	ip, sp
30009518:	e92dd800 	stmdb	sp!, {fp, ip, lr, pc}
3000951c:	e24cb004 	sub	fp, ip, #4	; 0x4
30009520:	e3a02451 	mov	r2, #1358954496	; 0x51000000
30009524:	e2822008 	add	r2, r2, #8	; 0x8
30009528:	e3a03451 	mov	r3, #1358954496	; 0x51000000
3000952c:	e2833008 	add	r3, r3, #8	; 0x8
30009530:	e5933000 	ldr	r3, [r3]
30009534:	e3c33001 	bic	r3, r3, #1	; 0x1
30009538:	e5823000 	str	r3, [r2]
3000953c:	e59f2010 	ldr	r2, [pc, #16]	; 30009554 <.text+0x1594>
30009540:	e59f300c 	ldr	r3, [pc, #12]	; 30009554 <.text+0x1594>
30009544:	e5933000 	ldr	r3, [r3]
30009548:	e2833001 	add	r3, r3, #1	; 0x1
3000954c:	e5823000 	str	r3, [r2]
30009550:	e89da800 	ldmia	sp, {fp, sp, pc}
30009554:	30010020 	andcc	r0, r1, r0, lsr #32

30009558 <Uart_Init>:
30009558:	e1a0c00d 	mov	ip, sp
3000955c:	e92dd800 	stmdb	sp!, {fp, ip, lr, pc}
30009560:	e24cb004 	sub	fp, ip, #4	; 0x4
30009564:	e24dd014 	sub	sp, sp, #20	; 0x14
30009568:	eb000596 	bl	3000abc8 <led_test>
3000956c:	e3a03456 	mov	r3, #1442840576	; 0x56000000
30009570:	e2833070 	add	r3, r3, #112	; 0x70
30009574:	e50b3010 	str	r3, [fp, #-16]
30009578:	e51b2010 	ldr	r2, [fp, #-16]
3000957c:	e51b3010 	ldr	r3, [fp, #-16]
30009580:	e5933000 	ldr	r3, [r3]
30009584:	e3833020 	orr	r3, r3, #32	; 0x20
30009588:	e5823000 	str	r3, [r2]
3000958c:	e51b2010 	ldr	r2, [fp, #-16]
30009590:	e51b3010 	ldr	r3, [fp, #-16]
30009594:	e5933000 	ldr	r3, [r3]
30009598:	e3833080 	orr	r3, r3, #128	; 0x80
3000959c:	e5823000 	str	r3, [r2]
300095a0:	e51b2010 	ldr	r2, [fp, #-16]
300095a4:	e51b3010 	ldr	r3, [fp, #-16]
300095a8:	e5933000 	ldr	r3, [r3]
300095ac:	e3c33010 	bic	r3, r3, #16	; 0x10
300095b0:	e5823000 	str	r3, [r2]
300095b4:	e51b2010 	ldr	r2, [fp, #-16]
300095b8:	e51b3010 	ldr	r3, [fp, #-16]
300095bc:	e5933000 	ldr	r3, [r3]
300095c0:	e3c33040 	bic	r3, r3, #64	; 0x40
300095c4:	e5823000 	str	r3, [r2]
300095c8:	e3a03456 	mov	r3, #1442840576	; 0x56000000
300095cc:	e2833078 	add	r3, r3, #120	; 0x78
300095d0:	e50b3014 	str	r3, [fp, #-20]
300095d4:	e51b2014 	ldr	r2, [fp, #-20]
300095d8:	e51b3014 	ldr	r3, [fp, #-20]
300095dc:	e5933000 	ldr	r3, [r3]
300095e0:	e3c3300c 	bic	r3, r3, #12	; 0xc
300095e4:	e5823000 	str	r3, [r2]
300095e8:	e3a03245 	mov	r3, #1342177284	; 0x50000004
300095ec:	e50b3018 	str	r3, [fp, #-24]
300095f0:	e51b2018 	ldr	r2, [fp, #-24]
300095f4:	e51b3018 	ldr	r3, [fp, #-24]
300095f8:	e5933000 	ldr	r3, [r3]
300095fc:	e3833005 	orr	r3, r3, #5	; 0x5
30009600:	e5823000 	str	r3, [r2]
30009604:	e3a03205 	mov	r3, #1342177280	; 0x50000000
30009608:	e2833028 	add	r3, r3, #40	; 0x28
3000960c:	e50b301c 	str	r3, [fp, #-28]
30009610:	e51b201c 	ldr	r2, [fp, #-28]
30009614:	e3a0301a 	mov	r3, #26	; 0x1a
30009618:	e5823000 	str	r3, [r2]
3000961c:	e3a03205 	mov	r3, #1342177280	; 0x50000000
30009620:	e50b3020 	str	r3, [fp, #-32]
30009624:	e51b2020 	ldr	r2, [fp, #-32]
30009628:	e3a03003 	mov	r3, #3	; 0x3
3000962c:	e5823000 	str	r3, [r2]
30009630:	e59f0008 	ldr	r0, [pc, #8]	; 30009640 <.text+0x1680>
30009634:	eb000019 	bl	300096a0 <puts>
30009638:	e24bd00c 	sub	sp, fp, #12	; 0xc
3000963c:	e89da800 	ldmia	sp, {fp, sp, pc}
30009640:	3000e758 	andcc	lr, r0, r8, asr r7

30009644 <putchar>:
30009644:	e1a0c00d 	mov	ip, sp
30009648:	e92dd800 	stmdb	sp!, {fp, ip, lr, pc}
3000964c:	e24cb004 	sub	fp, ip, #4	; 0x4
30009650:	e24dd00c 	sub	sp, sp, #12	; 0xc
30009654:	e1a03000 	mov	r3, r0
30009658:	e54b300d 	strb	r3, [fp, #-13]
3000965c:	e3a03205 	mov	r3, #1342177280	; 0x50000000
30009660:	e2833010 	add	r3, r3, #16	; 0x10
30009664:	e50b3014 	str	r3, [fp, #-20]
30009668:	e3a03205 	mov	r3, #1342177280	; 0x50000000
3000966c:	e2833020 	add	r3, r3, #32	; 0x20
30009670:	e50b3018 	str	r3, [fp, #-24]
30009674:	e51b3014 	ldr	r3, [fp, #-20]
30009678:	e5933000 	ldr	r3, [r3]
3000967c:	e2033004 	and	r3, r3, #4	; 0x4
30009680:	e3530000 	cmp	r3, #0	; 0x0
30009684:	1a000000 	bne	3000968c <putchar+0x48>
30009688:	eafffff9 	b	30009674 <putchar+0x30>
3000968c:	e51b2018 	ldr	r2, [fp, #-24]
30009690:	e55b300d 	ldrb	r3, [fp, #-13]
30009694:	e5c23000 	strb	r3, [r2]
30009698:	e24bd00c 	sub	sp, fp, #12	; 0xc
3000969c:	e89da800 	ldmia	sp, {fp, sp, pc}

300096a0 <puts>:
300096a0:	e1a0c00d 	mov	ip, sp
300096a4:	e92dd800 	stmdb	sp!, {fp, ip, lr, pc}
300096a8:	e24cb004 	sub	fp, ip, #4	; 0x4
300096ac:	e24dd004 	sub	sp, sp, #4	; 0x4
300096b0:	e50b0010 	str	r0, [fp, #-16]
300096b4:	e51b3010 	ldr	r3, [fp, #-16]
300096b8:	e5d33000 	ldrb	r3, [r3]
300096bc:	e3530000 	cmp	r3, #0	; 0x0
300096c0:	0a000007 	beq	300096e4 <puts+0x44>
300096c4:	e51b3010 	ldr	r3, [fp, #-16]
300096c8:	e5d33000 	ldrb	r3, [r3]
300096cc:	e1a00003 	mov	r0, r3
300096d0:	ebffffdb 	bl	30009644 <putchar>
300096d4:	e51b3010 	ldr	r3, [fp, #-16]
300096d8:	e2833001 	add	r3, r3, #1	; 0x1
300096dc:	e50b3010 	str	r3, [fp, #-16]
300096e0:	eafffff3 	b	300096b4 <puts+0x14>
300096e4:	e89da808 	ldmia	sp, {r3, fp, sp, pc}

300096e8 <getchar>:
300096e8:	e1a0c00d 	mov	ip, sp
300096ec:	e92dd800 	stmdb	sp!, {fp, ip, lr, pc}
300096f0:	e24cb004 	sub	fp, ip, #4	; 0x4
300096f4:	e24dd008 	sub	sp, sp, #8	; 0x8
300096f8:	e3a03205 	mov	r3, #1342177280	; 0x50000000
300096fc:	e2833010 	add	r3, r3, #16	; 0x10
30009700:	e50b3010 	str	r3, [fp, #-16]
30009704:	e3a03205 	mov	r3, #1342177280	; 0x50000000
30009708:	e2833024 	add	r3, r3, #36	; 0x24
3000970c:	e50b3014 	str	r3, [fp, #-20]
30009710:	e51b3010 	ldr	r3, [fp, #-16]
30009714:	e5933000 	ldr	r3, [r3]
30009718:	e2033001 	and	r3, r3, #1	; 0x1
3000971c:	e3530000 	cmp	r3, #0	; 0x0
30009720:	1a000000 	bne	30009728 <getchar+0x40>
30009724:	eafffff9 	b	30009710 <getchar+0x28>
30009728:	e51b3014 	ldr	r3, [fp, #-20]
3000972c:	e5d33000 	ldrb	r3, [r3]
30009730:	e20330ff 	and	r3, r3, #255	; 0xff
30009734:	e1a00003 	mov	r0, r3
30009738:	e24bd00c 	sub	sp, fp, #12	; 0xc
3000973c:	e89da800 	ldmia	sp, {fp, sp, pc}

30009740 <pri>:
30009740:	e1a0c00d 	mov	ip, sp
30009744:	e92dd800 	stmdb	sp!, {fp, ip, lr, pc}
30009748:	e24cb004 	sub	fp, ip, #4	; 0x4
3000974c:	e24dd010 	sub	sp, sp, #16	; 0x10
30009750:	e50b0010 	str	r0, [fp, #-16]
30009754:	e50b1014 	str	r1, [fp, #-20]
30009758:	e3a03007 	mov	r3, #7	; 0x7
3000975c:	e50b301c 	str	r3, [fp, #-28]
30009760:	e51b0010 	ldr	r0, [fp, #-16]
30009764:	ebffffcd 	bl	300096a0 <puts>
30009768:	e51b301c 	ldr	r3, [fp, #-28]
3000976c:	e3530000 	cmp	r3, #0	; 0x0
30009770:	ba000017 	blt	300097d4 <pri+0x94>
30009774:	e51b301c 	ldr	r3, [fp, #-28]
30009778:	e1a02103 	mov	r2, r3, lsl #2
3000977c:	e51b3014 	ldr	r3, [fp, #-20]
30009780:	e1a03253 	mov	r3, r3, asr r2
30009784:	e203300f 	and	r3, r3, #15	; 0xf
30009788:	e54b3015 	strb	r3, [fp, #-21]
3000978c:	e55b3015 	ldrb	r3, [fp, #-21]
30009790:	e3530009 	cmp	r3, #9	; 0x9
30009794:	8a000005 	bhi	300097b0 <pri+0x70>
30009798:	e55b3015 	ldrb	r3, [fp, #-21]
3000979c:	e2833030 	add	r3, r3, #48	; 0x30
300097a0:	e20330ff 	and	r3, r3, #255	; 0xff
300097a4:	e1a00003 	mov	r0, r3
300097a8:	ebffffa5 	bl	30009644 <putchar>
300097ac:	ea000004 	b	300097c4 <pri+0x84>
300097b0:	e55b3015 	ldrb	r3, [fp, #-21]
300097b4:	e2833057 	add	r3, r3, #87	; 0x57
300097b8:	e20330ff 	and	r3, r3, #255	; 0xff
300097bc:	e1a00003 	mov	r0, r3
300097c0:	ebffff9f 	bl	30009644 <putchar>
300097c4:	e51b301c 	ldr	r3, [fp, #-28]
300097c8:	e2433001 	sub	r3, r3, #1	; 0x1
300097cc:	e50b301c 	str	r3, [fp, #-28]
300097d0:	eaffffe4 	b	30009768 <pri+0x28>
300097d4:	e24bd00c 	sub	sp, fp, #12	; 0xc
300097d8:	e89da800 	ldmia	sp, {fp, sp, pc}

300097dc <pri_byte>:
300097dc:	e1a0c00d 	mov	ip, sp
300097e0:	e92dd800 	stmdb	sp!, {fp, ip, lr, pc}
300097e4:	e24cb004 	sub	fp, ip, #4	; 0x4
300097e8:	e24dd00c 	sub	sp, sp, #12	; 0xc
300097ec:	e50b0010 	str	r0, [fp, #-16]
300097f0:	e1a03001 	mov	r3, r1
300097f4:	e54b3011 	strb	r3, [fp, #-17]
300097f8:	e3a03001 	mov	r3, #1	; 0x1
300097fc:	e50b3018 	str	r3, [fp, #-24]
30009800:	e51b0010 	ldr	r0, [fp, #-16]
30009804:	ebffffa5 	bl	300096a0 <puts>
30009808:	e51b3018 	ldr	r3, [fp, #-24]
3000980c:	e3530000 	cmp	r3, #0	; 0x0
30009810:	ba000017 	blt	30009874 <pri_byte+0x98>
30009814:	e55b2011 	ldrb	r2, [fp, #-17]
30009818:	e51b3018 	ldr	r3, [fp, #-24]
3000981c:	e1a03103 	mov	r3, r3, lsl #2
30009820:	e1a03352 	mov	r3, r2, asr r3
30009824:	e203300f 	and	r3, r3, #15	; 0xf
30009828:	e54b3012 	strb	r3, [fp, #-18]
3000982c:	e55b3012 	ldrb	r3, [fp, #-18]
30009830:	e3530009 	cmp	r3, #9	; 0x9
30009834:	8a000005 	bhi	30009850 <pri_byte+0x74>
30009838:	e55b3012 	ldrb	r3, [fp, #-18]
3000983c:	e2833030 	add	r3, r3, #48	; 0x30
30009840:	e20330ff 	and	r3, r3, #255	; 0xff
30009844:	e1a00003 	mov	r0, r3
30009848:	ebffff7d 	bl	30009644 <putchar>
3000984c:	ea000004 	b	30009864 <pri_byte+0x88>
30009850:	e55b3012 	ldrb	r3, [fp, #-18]
30009854:	e2833057 	add	r3, r3, #87	; 0x57
30009858:	e20330ff 	and	r3, r3, #255	; 0xff
3000985c:	e1a00003 	mov	r0, r3
30009860:	ebffff77 	bl	30009644 <putchar>
30009864:	e51b3018 	ldr	r3, [fp, #-24]
30009868:	e2433001 	sub	r3, r3, #1	; 0x1
3000986c:	e50b3018 	str	r3, [fp, #-24]
30009870:	eaffffe4 	b	30009808 <pri_byte+0x2c>
30009874:	e59f0008 	ldr	r0, [pc, #8]	; 30009884 <.text+0x18c4>
30009878:	ebffff88 	bl	300096a0 <puts>
3000987c:	e24bd00c 	sub	sp, fp, #12	; 0xc
30009880:	e89da800 	ldmia	sp, {fp, sp, pc}
30009884:	3000e76c 	andcc	lr, r0, ip, ror #14

30009888 <fb_get_lcd_params>:
30009888:	e1a0c00d 	mov	ip, sp
3000988c:	e92dd800 	stmdb	sp!, {fp, ip, lr, pc}
30009890:	e24cb004 	sub	fp, ip, #4	; 0x4
30009894:	e59f0010 	ldr	r0, [pc, #16]	; 300098ac <.text+0x18ec>
30009898:	e59f1010 	ldr	r1, [pc, #16]	; 300098b0 <.text+0x18f0>
3000989c:	e59f2010 	ldr	r2, [pc, #16]	; 300098b4 <.text+0x18f4>
300098a0:	e59f3010 	ldr	r3, [pc, #16]	; 300098b8 <.text+0x18f8>
300098a4:	eb0000c0 	bl	30009bac <get_lcd_params>
300098a8:	e89da800 	ldmia	sp, {fp, sp, pc}
300098ac:	30010024 	andcc	r0, r1, r4, lsr #32
300098b0:	30010028 	andcc	r0, r1, r8, lsr #32
300098b4:	3001002c 	andcc	r0, r1, ip, lsr #32
300098b8:	30010030 	andcc	r0, r1, r0, lsr r0

300098bc <convert32bppto16bpp>:
300098bc:	e1a0c00d 	mov	ip, sp
300098c0:	e92dd800 	stmdb	sp!, {fp, ip, lr, pc}
300098c4:	e24cb004 	sub	fp, ip, #4	; 0x4
300098c8:	e24dd010 	sub	sp, sp, #16	; 0x10
300098cc:	e50b0010 	str	r0, [fp, #-16]
300098d0:	e51b3010 	ldr	r3, [fp, #-16]
300098d4:	e1a03823 	mov	r3, r3, lsr #16
300098d8:	e20330ff 	and	r3, r3, #255	; 0xff
300098dc:	e50b3014 	str	r3, [fp, #-20]
300098e0:	e51b3010 	ldr	r3, [fp, #-16]
300098e4:	e1a03423 	mov	r3, r3, lsr #8
300098e8:	e20330ff 	and	r3, r3, #255	; 0xff
300098ec:	e50b3018 	str	r3, [fp, #-24]
300098f0:	e51b3010 	ldr	r3, [fp, #-16]
300098f4:	e20330ff 	and	r3, r3, #255	; 0xff
300098f8:	e50b301c 	str	r3, [fp, #-28]
300098fc:	e51b3014 	ldr	r3, [fp, #-20]
30009900:	e1a031c3 	mov	r3, r3, asr #3
30009904:	e50b3014 	str	r3, [fp, #-20]
30009908:	e51b3018 	ldr	r3, [fp, #-24]
3000990c:	e1a03143 	mov	r3, r3, asr #2
30009910:	e50b3018 	str	r3, [fp, #-24]
30009914:	e51b301c 	ldr	r3, [fp, #-28]
30009918:	e1a031c3 	mov	r3, r3, asr #3
3000991c:	e50b301c 	str	r3, [fp, #-28]
30009920:	e51b3014 	ldr	r3, [fp, #-20]
30009924:	e1a02583 	mov	r2, r3, lsl #11
30009928:	e51b3018 	ldr	r3, [fp, #-24]
3000992c:	e1a03283 	mov	r3, r3, lsl #5
30009930:	e1821003 	orr	r1, r2, r3
30009934:	e51b301c 	ldr	r3, [fp, #-28]
30009938:	e1a02003 	mov	r2, r3
3000993c:	e1a03001 	mov	r3, r1
30009940:	e1823003 	orr	r3, r2, r3
30009944:	e1a03803 	mov	r3, r3, lsl #16
30009948:	e1a03823 	mov	r3, r3, lsr #16
3000994c:	e1a00003 	mov	r0, r3
30009950:	e24bd00c 	sub	sp, fp, #12	; 0xc
30009954:	e89da800 	ldmia	sp, {fp, sp, pc}

30009958 <fb_put_pixel>:
30009958:	e1a0c00d 	mov	ip, sp
3000995c:	e92dd800 	stmdb	sp!, {fp, ip, lr, pc}
30009960:	e24cb004 	sub	fp, ip, #4	; 0x4
30009964:	e24dd020 	sub	sp, sp, #32	; 0x20
30009968:	e50b0010 	str	r0, [fp, #-16]
3000996c:	e50b1014 	str	r1, [fp, #-20]
30009970:	e50b2018 	str	r2, [fp, #-24]
30009974:	e59f30f8 	ldr	r3, [pc, #248]	; 30009a74 <.text+0x1ab4>
30009978:	e59f20f8 	ldr	r2, [pc, #248]	; 30009a78 <.text+0x1ab8>
3000997c:	e5931000 	ldr	r1, [r3]
30009980:	e5923000 	ldr	r3, [r2]
30009984:	e0020193 	mul	r2, r3, r1
30009988:	e1a03fc2 	mov	r3, r2, asr #31
3000998c:	e1a03ea3 	mov	r3, r3, lsr #29
30009990:	e0823003 	add	r3, r2, r3
30009994:	e1a021c3 	mov	r2, r3, asr #3
30009998:	e51b3014 	ldr	r3, [fp, #-20]
3000999c:	e0020293 	mul	r2, r3, r2
300099a0:	e59f30d4 	ldr	r3, [pc, #212]	; 30009a7c <.text+0x1abc>
300099a4:	e5933000 	ldr	r3, [r3]
300099a8:	e0821003 	add	r1, r2, r3
300099ac:	e59f30c4 	ldr	r3, [pc, #196]	; 30009a78 <.text+0x1ab8>
300099b0:	e51b2010 	ldr	r2, [fp, #-16]
300099b4:	e5933000 	ldr	r3, [r3]
300099b8:	e0020293 	mul	r2, r3, r2
300099bc:	e1a03fc2 	mov	r3, r2, asr #31
300099c0:	e1a03ea3 	mov	r3, r3, lsr #29
300099c4:	e0823003 	add	r3, r2, r3
300099c8:	e1a031c3 	mov	r3, r3, asr #3
300099cc:	e0813003 	add	r3, r1, r3
300099d0:	e50b3028 	str	r3, [fp, #-40]
300099d4:	e59f309c 	ldr	r3, [pc, #156]	; 30009a78 <.text+0x1ab8>
300099d8:	e5933000 	ldr	r3, [r3]
300099dc:	e50b302c 	str	r3, [fp, #-44]
300099e0:	e51b302c 	ldr	r3, [fp, #-44]
300099e4:	e3530010 	cmp	r3, #16	; 0x10
300099e8:	0a000010 	beq	30009a30 <fb_put_pixel+0xd8>
300099ec:	e51b302c 	ldr	r3, [fp, #-44]
300099f0:	e3530010 	cmp	r3, #16	; 0x10
300099f4:	ca000003 	bgt	30009a08 <fb_put_pixel+0xb0>
300099f8:	e51b302c 	ldr	r3, [fp, #-44]
300099fc:	e3530008 	cmp	r3, #8	; 0x8
30009a00:	0a000004 	beq	30009a18 <fb_put_pixel+0xc0>
30009a04:	ea000018 	b	30009a6c <fb_put_pixel+0x114>
30009a08:	e51b302c 	ldr	r3, [fp, #-44]
30009a0c:	e3530020 	cmp	r3, #32	; 0x20
30009a10:	0a000010 	beq	30009a58 <fb_put_pixel+0x100>
30009a14:	ea000014 	b	30009a6c <fb_put_pixel+0x114>
30009a18:	e51b3028 	ldr	r3, [fp, #-40]
30009a1c:	e50b301c 	str	r3, [fp, #-28]
30009a20:	e51b201c 	ldr	r2, [fp, #-28]
30009a24:	e51b3018 	ldr	r3, [fp, #-24]
30009a28:	e5c23000 	strb	r3, [r2]
30009a2c:	ea00000e 	b	30009a6c <fb_put_pixel+0x114>
30009a30:	e51b3028 	ldr	r3, [fp, #-40]
30009a34:	e50b3020 	str	r3, [fp, #-32]
30009a38:	e51b0018 	ldr	r0, [fp, #-24]
30009a3c:	ebffff9e 	bl	300098bc <convert32bppto16bpp>
30009a40:	e1a03000 	mov	r3, r0
30009a44:	e51b2020 	ldr	r2, [fp, #-32]
30009a48:	e5c23000 	strb	r3, [r2]
30009a4c:	e1a03443 	mov	r3, r3, asr #8
30009a50:	e5c23001 	strb	r3, [r2, #1]
30009a54:	ea000004 	b	30009a6c <fb_put_pixel+0x114>
30009a58:	e51b3028 	ldr	r3, [fp, #-40]
30009a5c:	e50b3024 	str	r3, [fp, #-36]
30009a60:	e51b2024 	ldr	r2, [fp, #-36]
30009a64:	e51b3018 	ldr	r3, [fp, #-24]
30009a68:	e5823000 	str	r3, [r2]
30009a6c:	e24bd00c 	sub	sp, fp, #12	; 0xc
30009a70:	e89da800 	ldmia	sp, {fp, sp, pc}
30009a74:	30010028 	andcc	r0, r1, r8, lsr #32
30009a78:	30010030 	andcc	r0, r1, r0, lsr r0
30009a7c:	30010024 	andcc	r0, r1, r4, lsr #32

30009a80 <register_lcd>:
30009a80:	e1a0c00d 	mov	ip, sp
30009a84:	e92dd800 	stmdb	sp!, {fp, ip, lr, pc}
30009a88:	e24cb004 	sub	fp, ip, #4	; 0x4
30009a8c:	e24dd00c 	sub	sp, sp, #12	; 0xc
30009a90:	e50b0010 	str	r0, [fp, #-16]
30009a94:	e3a03000 	mov	r3, #0	; 0x0
30009a98:	e50b3014 	str	r3, [fp, #-20]
30009a9c:	e51b3014 	ldr	r3, [fp, #-20]
30009aa0:	e3530009 	cmp	r3, #9	; 0x9
30009aa4:	ca00000f 	bgt	30009ae8 <register_lcd+0x68>
30009aa8:	e59f304c 	ldr	r3, [pc, #76]	; 30009afc <.text+0x1b3c>
30009aac:	e51b2014 	ldr	r2, [fp, #-20]
30009ab0:	e7933102 	ldr	r3, [r3, r2, lsl #2]
30009ab4:	e3530000 	cmp	r3, #0	; 0x0
30009ab8:	1a000006 	bne	30009ad8 <register_lcd+0x58>
30009abc:	e59f1038 	ldr	r1, [pc, #56]	; 30009afc <.text+0x1b3c>
30009ac0:	e51b2014 	ldr	r2, [fp, #-20]
30009ac4:	e51b3010 	ldr	r3, [fp, #-16]
30009ac8:	e7813102 	str	r3, [r1, r2, lsl #2]
30009acc:	e51b3014 	ldr	r3, [fp, #-20]
30009ad0:	e50b3018 	str	r3, [fp, #-24]
30009ad4:	ea000005 	b	30009af0 <register_lcd+0x70>
30009ad8:	e51b3014 	ldr	r3, [fp, #-20]
30009adc:	e2833001 	add	r3, r3, #1	; 0x1
30009ae0:	e50b3014 	str	r3, [fp, #-20]
30009ae4:	eaffffec 	b	30009a9c <register_lcd+0x1c>
30009ae8:	e3e03000 	mvn	r3, #0	; 0x0
30009aec:	e50b3018 	str	r3, [fp, #-24]
30009af0:	e51b0018 	ldr	r0, [fp, #-24]
30009af4:	e24bd00c 	sub	sp, fp, #12	; 0xc
30009af8:	e89da800 	ldmia	sp, {fp, sp, pc}
30009afc:	30010034 	andcc	r0, r1, r4, lsr r0

30009b00 <select_lcd>:
30009b00:	e1a0c00d 	mov	ip, sp
30009b04:	e92dd800 	stmdb	sp!, {fp, ip, lr, pc}
30009b08:	e24cb004 	sub	fp, ip, #4	; 0x4
30009b0c:	e24dd00c 	sub	sp, sp, #12	; 0xc
30009b10:	e50b0010 	str	r0, [fp, #-16]
30009b14:	e3a03000 	mov	r3, #0	; 0x0
30009b18:	e50b3014 	str	r3, [fp, #-20]
30009b1c:	e51b3014 	ldr	r3, [fp, #-20]
30009b20:	e3530009 	cmp	r3, #9	; 0x9
30009b24:	ca000019 	bgt	30009b90 <select_lcd+0x90>
30009b28:	e59f3074 	ldr	r3, [pc, #116]	; 30009ba4 <.text+0x1be4>
30009b2c:	e51b2014 	ldr	r2, [fp, #-20]
30009b30:	e7933102 	ldr	r3, [r3, r2, lsl #2]
30009b34:	e3530000 	cmp	r3, #0	; 0x0
30009b38:	0a000010 	beq	30009b80 <select_lcd+0x80>
30009b3c:	e59f2060 	ldr	r2, [pc, #96]	; 30009ba4 <.text+0x1be4>
30009b40:	e51b3014 	ldr	r3, [fp, #-20]
30009b44:	e7923103 	ldr	r3, [r2, r3, lsl #2]
30009b48:	e5930000 	ldr	r0, [r3]
30009b4c:	e51b1010 	ldr	r1, [fp, #-16]
30009b50:	eb000f67 	bl	3000d8f4 <strcmp>
30009b54:	e1a03000 	mov	r3, r0
30009b58:	e3530000 	cmp	r3, #0	; 0x0
30009b5c:	1a000007 	bne	30009b80 <select_lcd+0x80>
30009b60:	e59f1040 	ldr	r1, [pc, #64]	; 30009ba8 <.text+0x1be8>
30009b64:	e59f2038 	ldr	r2, [pc, #56]	; 30009ba4 <.text+0x1be4>
30009b68:	e51b3014 	ldr	r3, [fp, #-20]
30009b6c:	e7923103 	ldr	r3, [r2, r3, lsl #2]
30009b70:	e5813000 	str	r3, [r1]
30009b74:	e51b3014 	ldr	r3, [fp, #-20]
30009b78:	e50b3018 	str	r3, [fp, #-24]
30009b7c:	ea000005 	b	30009b98 <select_lcd+0x98>
30009b80:	e51b3014 	ldr	r3, [fp, #-20]
30009b84:	e2833001 	add	r3, r3, #1	; 0x1
30009b88:	e50b3014 	str	r3, [fp, #-20]
30009b8c:	eaffffe2 	b	30009b1c <select_lcd+0x1c>
30009b90:	e3e03000 	mvn	r3, #0	; 0x0
30009b94:	e50b3018 	str	r3, [fp, #-24]
30009b98:	e51b0018 	ldr	r0, [fp, #-24]
30009b9c:	e24bd00c 	sub	sp, fp, #12	; 0xc
30009ba0:	e89da800 	ldmia	sp, {fp, sp, pc}
30009ba4:	30010034 	andcc	r0, r1, r4, lsr r0
30009ba8:	3001005c 	andcc	r0, r1, ip, asr r0

30009bac <get_lcd_params>:
30009bac:	e1a0c00d 	mov	ip, sp
30009bb0:	e92dd800 	stmdb	sp!, {fp, ip, lr, pc}
30009bb4:	e24cb004 	sub	fp, ip, #4	; 0x4
30009bb8:	e24dd010 	sub	sp, sp, #16	; 0x10
30009bbc:	e50b0010 	str	r0, [fp, #-16]
30009bc0:	e50b1014 	str	r1, [fp, #-20]
30009bc4:	e50b2018 	str	r2, [fp, #-24]
30009bc8:	e50b301c 	str	r3, [fp, #-28]
30009bcc:	e51b2010 	ldr	r2, [fp, #-16]
30009bd0:	e59f304c 	ldr	r3, [pc, #76]	; 30009c24 <.text+0x1c64>
30009bd4:	e5933000 	ldr	r3, [r3]
30009bd8:	e5933044 	ldr	r3, [r3, #68]
30009bdc:	e5823000 	str	r3, [r2]
30009be0:	e51b2014 	ldr	r2, [fp, #-20]
30009be4:	e59f3038 	ldr	r3, [pc, #56]	; 30009c24 <.text+0x1c64>
30009be8:	e5933000 	ldr	r3, [r3]
30009bec:	e5933038 	ldr	r3, [r3, #56]
30009bf0:	e5823000 	str	r3, [r2]
30009bf4:	e51b2018 	ldr	r2, [fp, #-24]
30009bf8:	e59f3024 	ldr	r3, [pc, #36]	; 30009c24 <.text+0x1c64>
30009bfc:	e5933000 	ldr	r3, [r3]
30009c00:	e593303c 	ldr	r3, [r3, #60]
30009c04:	e5823000 	str	r3, [r2]
30009c08:	e51b201c 	ldr	r2, [fp, #-28]
30009c0c:	e59f3010 	ldr	r3, [pc, #16]	; 30009c24 <.text+0x1c64>
30009c10:	e5933000 	ldr	r3, [r3]
30009c14:	e5933040 	ldr	r3, [r3, #64]
30009c18:	e5823000 	str	r3, [r2]
30009c1c:	e24bd00c 	sub	sp, fp, #12	; 0xc
30009c20:	e89da800 	ldmia	sp, {fp, sp, pc}
30009c24:	3001005c 	andcc	r0, r1, ip, asr r0

30009c28 <lcd_enable>:
30009c28:	e1a0c00d 	mov	ip, sp
30009c2c:	e92dd800 	stmdb	sp!, {fp, ip, lr, pc}
30009c30:	e24cb004 	sub	fp, ip, #4	; 0x4
30009c34:	eb0000a6 	bl	30009ed4 <lcd_controller_enable>
30009c38:	e89da800 	ldmia	sp, {fp, sp, pc}

30009c3c <lcd_disable>:
30009c3c:	e1a0c00d 	mov	ip, sp
30009c40:	e92dd800 	stmdb	sp!, {fp, ip, lr, pc}
30009c44:	e24cb004 	sub	fp, ip, #4	; 0x4
30009c48:	eb0000af 	bl	30009f0c <lcd_controller_disable>
30009c4c:	e89da800 	ldmia	sp, {fp, sp, pc}

30009c50 <lcd_init>:
30009c50:	e1a0c00d 	mov	ip, sp
30009c54:	e92dd800 	stmdb	sp!, {fp, ip, lr, pc}
30009c58:	e24cb004 	sub	fp, ip, #4	; 0x4
30009c5c:	e59f0054 	ldr	r0, [pc, #84]	; 30009cb8 <.text+0x1cf8>
30009c60:	ebfffe8e 	bl	300096a0 <puts>
30009c64:	eb00001c 	bl	30009cdc <lcd_4_3_add>
30009c68:	e59f004c 	ldr	r0, [pc, #76]	; 30009cbc <.text+0x1cfc>
30009c6c:	ebfffe8b 	bl	300096a0 <puts>
30009c70:	eb0000b3 	bl	30009f44 <lcd_contoller_add>
30009c74:	e59f0044 	ldr	r0, [pc, #68]	; 30009cc0 <.text+0x1d00>
30009c78:	ebfffe88 	bl	300096a0 <puts>
30009c7c:	e59f0040 	ldr	r0, [pc, #64]	; 30009cc4 <.text+0x1d04>
30009c80:	ebffff9e 	bl	30009b00 <select_lcd>
30009c84:	e59f003c 	ldr	r0, [pc, #60]	; 30009cc8 <.text+0x1d08>
30009c88:	ebfffe84 	bl	300096a0 <puts>
30009c8c:	e59f0038 	ldr	r0, [pc, #56]	; 30009ccc <.text+0x1d0c>
30009c90:	eb000038 	bl	30009d78 <select_lcd_controller>
30009c94:	e59f0034 	ldr	r0, [pc, #52]	; 30009cd0 <.text+0x1d10>
30009c98:	ebfffe80 	bl	300096a0 <puts>
30009c9c:	e59f3030 	ldr	r3, [pc, #48]	; 30009cd4 <.text+0x1d14>
30009ca0:	e5930000 	ldr	r0, [r3]
30009ca4:	eb00005e 	bl	30009e24 <lcd_controller_init>
30009ca8:	e59f0028 	ldr	r0, [pc, #40]	; 30009cd8 <.text+0x1d18>
30009cac:	ebfffe7b 	bl	300096a0 <puts>
30009cb0:	e1a00003 	mov	r0, r3
30009cb4:	e89da800 	ldmia	sp, {fp, sp, pc}
30009cb8:	3000e770 	andcc	lr, r0, r0, ror r7
30009cbc:	3000e780 	andcc	lr, r0, r0, lsl #15
30009cc0:	3000e798 	mulcc	r0, r8, r7
30009cc4:	3000e7a4 	andcc	lr, r0, r4, lsr #15
30009cc8:	3000e7ac 	andcc	lr, r0, ip, lsr #15
30009ccc:	3000e7c8 	andcc	lr, r0, r8, asr #15
30009cd0:	3000e7d0 	ldrccd	lr, [r0], -r0
30009cd4:	3001005c 	andcc	r0, r1, ip, asr r0
30009cd8:	3000e7e8 	andcc	lr, r0, r8, ror #15

30009cdc <lcd_4_3_add>:
30009cdc:	e1a0c00d 	mov	ip, sp
30009ce0:	e92dd800 	stmdb	sp!, {fp, ip, lr, pc}
30009ce4:	e24cb004 	sub	fp, ip, #4	; 0x4
30009ce8:	e59f0004 	ldr	r0, [pc, #4]	; 30009cf4 <.text+0x1d34>
30009cec:	ebffff63 	bl	30009a80 <register_lcd>
30009cf0:	e89da800 	ldmia	sp, {fp, sp, pc}
30009cf4:	3000ff5c 	andcc	pc, r0, ip, asr pc

30009cf8 <register_lcd_controller>:
30009cf8:	e1a0c00d 	mov	ip, sp
30009cfc:	e92dd800 	stmdb	sp!, {fp, ip, lr, pc}
30009d00:	e24cb004 	sub	fp, ip, #4	; 0x4
30009d04:	e24dd00c 	sub	sp, sp, #12	; 0xc
30009d08:	e50b0010 	str	r0, [fp, #-16]
30009d0c:	e3a03000 	mov	r3, #0	; 0x0
30009d10:	e50b3014 	str	r3, [fp, #-20]
30009d14:	e51b3014 	ldr	r3, [fp, #-20]
30009d18:	e3530009 	cmp	r3, #9	; 0x9
30009d1c:	ca00000f 	bgt	30009d60 <register_lcd_controller+0x68>
30009d20:	e59f304c 	ldr	r3, [pc, #76]	; 30009d74 <.text+0x1db4>
30009d24:	e51b2014 	ldr	r2, [fp, #-20]
30009d28:	e7933102 	ldr	r3, [r3, r2, lsl #2]
30009d2c:	e3530000 	cmp	r3, #0	; 0x0
30009d30:	1a000006 	bne	30009d50 <register_lcd_controller+0x58>
30009d34:	e59f1038 	ldr	r1, [pc, #56]	; 30009d74 <.text+0x1db4>
30009d38:	e51b2014 	ldr	r2, [fp, #-20]
30009d3c:	e51b3010 	ldr	r3, [fp, #-16]
30009d40:	e7813102 	str	r3, [r1, r2, lsl #2]
30009d44:	e51b3014 	ldr	r3, [fp, #-20]
30009d48:	e50b3018 	str	r3, [fp, #-24]
30009d4c:	ea000005 	b	30009d68 <register_lcd_controller+0x70>
30009d50:	e51b3014 	ldr	r3, [fp, #-20]
30009d54:	e2833001 	add	r3, r3, #1	; 0x1
30009d58:	e50b3014 	str	r3, [fp, #-20]
30009d5c:	eaffffec 	b	30009d14 <register_lcd_controller+0x1c>
30009d60:	e3e03000 	mvn	r3, #0	; 0x0
30009d64:	e50b3018 	str	r3, [fp, #-24]
30009d68:	e51b0018 	ldr	r0, [fp, #-24]
30009d6c:	e24bd00c 	sub	sp, fp, #12	; 0xc
30009d70:	e89da800 	ldmia	sp, {fp, sp, pc}
30009d74:	30010060 	andcc	r0, r1, r0, rrx

30009d78 <select_lcd_controller>:
30009d78:	e1a0c00d 	mov	ip, sp
30009d7c:	e92dd800 	stmdb	sp!, {fp, ip, lr, pc}
30009d80:	e24cb004 	sub	fp, ip, #4	; 0x4
30009d84:	e24dd00c 	sub	sp, sp, #12	; 0xc
30009d88:	e50b0010 	str	r0, [fp, #-16]
30009d8c:	e3a03000 	mov	r3, #0	; 0x0
30009d90:	e50b3014 	str	r3, [fp, #-20]
30009d94:	e51b3014 	ldr	r3, [fp, #-20]
30009d98:	e3530009 	cmp	r3, #9	; 0x9
30009d9c:	ca000019 	bgt	30009e08 <select_lcd_controller+0x90>
30009da0:	e59f3074 	ldr	r3, [pc, #116]	; 30009e1c <.text+0x1e5c>
30009da4:	e51b2014 	ldr	r2, [fp, #-20]
30009da8:	e7933102 	ldr	r3, [r3, r2, lsl #2]
30009dac:	e3530000 	cmp	r3, #0	; 0x0
30009db0:	0a000010 	beq	30009df8 <select_lcd_controller+0x80>
30009db4:	e59f2060 	ldr	r2, [pc, #96]	; 30009e1c <.text+0x1e5c>
30009db8:	e51b3014 	ldr	r3, [fp, #-20]
30009dbc:	e7923103 	ldr	r3, [r2, r3, lsl #2]
30009dc0:	e5930000 	ldr	r0, [r3]
30009dc4:	e51b1010 	ldr	r1, [fp, #-16]
30009dc8:	eb000ec9 	bl	3000d8f4 <strcmp>
30009dcc:	e1a03000 	mov	r3, r0
30009dd0:	e3530000 	cmp	r3, #0	; 0x0
30009dd4:	1a000007 	bne	30009df8 <select_lcd_controller+0x80>
30009dd8:	e59f1040 	ldr	r1, [pc, #64]	; 30009e20 <.text+0x1e60>
30009ddc:	e59f2038 	ldr	r2, [pc, #56]	; 30009e1c <.text+0x1e5c>
30009de0:	e51b3014 	ldr	r3, [fp, #-20]
30009de4:	e7923103 	ldr	r3, [r2, r3, lsl #2]
30009de8:	e5813000 	str	r3, [r1]
30009dec:	e51b3014 	ldr	r3, [fp, #-20]
30009df0:	e50b3018 	str	r3, [fp, #-24]
30009df4:	ea000005 	b	30009e10 <select_lcd_controller+0x98>
30009df8:	e51b3014 	ldr	r3, [fp, #-20]
30009dfc:	e2833001 	add	r3, r3, #1	; 0x1
30009e00:	e50b3014 	str	r3, [fp, #-20]
30009e04:	eaffffe2 	b	30009d94 <select_lcd_controller+0x1c>
30009e08:	e3e03000 	mvn	r3, #0	; 0x0
30009e0c:	e50b3018 	str	r3, [fp, #-24]
30009e10:	e51b0018 	ldr	r0, [fp, #-24]
30009e14:	e24bd00c 	sub	sp, fp, #12	; 0xc
30009e18:	e89da800 	ldmia	sp, {fp, sp, pc}
30009e1c:	30010060 	andcc	r0, r1, r0, rrx
30009e20:	30010088 	andcc	r0, r1, r8, lsl #1

30009e24 <lcd_controller_init>:
30009e24:	e1a0c00d 	mov	ip, sp
30009e28:	e92dd800 	stmdb	sp!, {fp, ip, lr, pc}
30009e2c:	e24cb004 	sub	fp, ip, #4	; 0x4
30009e30:	e24dd008 	sub	sp, sp, #8	; 0x8
30009e34:	e50b0010 	str	r0, [fp, #-16]
30009e38:	e59f007c 	ldr	r0, [pc, #124]	; 30009ebc <.text+0x1efc>
30009e3c:	ebfffe17 	bl	300096a0 <puts>
30009e40:	e59f3078 	ldr	r3, [pc, #120]	; 30009ec0 <.text+0x1f00>
30009e44:	e5933000 	ldr	r3, [r3]
30009e48:	e3530000 	cmp	r3, #0	; 0x0
30009e4c:	0a000013 	beq	30009ea0 <lcd_controller_init+0x7c>
30009e50:	e59f006c 	ldr	r0, [pc, #108]	; 30009ec4 <.text+0x1f04>
30009e54:	ebfffe11 	bl	300096a0 <puts>
30009e58:	e59f3060 	ldr	r3, [pc, #96]	; 30009ec0 <.text+0x1f00>
30009e5c:	e5933000 	ldr	r3, [r3]
30009e60:	e5933004 	ldr	r3, [r3, #4]
30009e64:	e51b0010 	ldr	r0, [fp, #-16]
30009e68:	e1a0e00f 	mov	lr, pc
30009e6c:	e1a0f003 	mov	pc, r3
30009e70:	e59f0050 	ldr	r0, [pc, #80]	; 30009ec8 <.text+0x1f08>
30009e74:	ebfffe09 	bl	300096a0 <puts>
30009e78:	e59f3040 	ldr	r3, [pc, #64]	; 30009ec0 <.text+0x1f00>
30009e7c:	e5933000 	ldr	r3, [r3]
30009e80:	e5933010 	ldr	r3, [r3, #16]
30009e84:	e1a0e00f 	mov	lr, pc
30009e88:	e1a0f003 	mov	pc, r3
30009e8c:	e59f0038 	ldr	r0, [pc, #56]	; 30009ecc <.text+0x1f0c>
30009e90:	ebfffe02 	bl	300096a0 <puts>
30009e94:	e3a03000 	mov	r3, #0	; 0x0
30009e98:	e50b3014 	str	r3, [fp, #-20]
30009e9c:	ea000003 	b	30009eb0 <lcd_controller_init+0x8c>
30009ea0:	e59f0028 	ldr	r0, [pc, #40]	; 30009ed0 <.text+0x1f10>
30009ea4:	ebfffdfd 	bl	300096a0 <puts>
30009ea8:	e3e03000 	mvn	r3, #0	; 0x0
30009eac:	e50b3014 	str	r3, [fp, #-20]
30009eb0:	e51b0014 	ldr	r0, [fp, #-20]
30009eb4:	e24bd00c 	sub	sp, fp, #12	; 0xc
30009eb8:	e89da800 	ldmia	sp, {fp, sp, pc}
30009ebc:	3000e80c 	andcc	lr, r0, ip, lsl #16
30009ec0:	30010088 	andcc	r0, r1, r8, lsl #1
30009ec4:	3000e828 	andcc	lr, r0, r8, lsr #16
30009ec8:	3000e848 	andcc	lr, r0, r8, asr #16
30009ecc:	3000e868 	andcc	lr, r0, r8, ror #16
30009ed0:	3000e888 	andcc	lr, r0, r8, lsl #17

30009ed4 <lcd_controller_enable>:
30009ed4:	e1a0c00d 	mov	ip, sp
30009ed8:	e92dd800 	stmdb	sp!, {fp, ip, lr, pc}
30009edc:	e24cb004 	sub	fp, ip, #4	; 0x4
30009ee0:	e59f3020 	ldr	r3, [pc, #32]	; 30009f08 <.text+0x1f48>
30009ee4:	e5933000 	ldr	r3, [r3]
30009ee8:	e3530000 	cmp	r3, #0	; 0x0
30009eec:	0a000004 	beq	30009f04 <lcd_controller_enable+0x30>
30009ef0:	e59f3010 	ldr	r3, [pc, #16]	; 30009f08 <.text+0x1f48>
30009ef4:	e5933000 	ldr	r3, [r3]
30009ef8:	e5933008 	ldr	r3, [r3, #8]
30009efc:	e1a0e00f 	mov	lr, pc
30009f00:	e1a0f003 	mov	pc, r3
30009f04:	e89da800 	ldmia	sp, {fp, sp, pc}
30009f08:	30010088 	andcc	r0, r1, r8, lsl #1

30009f0c <lcd_controller_disable>:
30009f0c:	e1a0c00d 	mov	ip, sp
30009f10:	e92dd800 	stmdb	sp!, {fp, ip, lr, pc}
30009f14:	e24cb004 	sub	fp, ip, #4	; 0x4
30009f18:	e59f3020 	ldr	r3, [pc, #32]	; 30009f40 <.text+0x1f80>
30009f1c:	e5933000 	ldr	r3, [r3]
30009f20:	e3530000 	cmp	r3, #0	; 0x0
30009f24:	0a000004 	beq	30009f3c <lcd_controller_disable+0x30>
30009f28:	e59f3010 	ldr	r3, [pc, #16]	; 30009f40 <.text+0x1f80>
30009f2c:	e5933000 	ldr	r3, [r3]
30009f30:	e593300c 	ldr	r3, [r3, #12]
30009f34:	e1a0e00f 	mov	lr, pc
30009f38:	e1a0f003 	mov	pc, r3
30009f3c:	e89da800 	ldmia	sp, {fp, sp, pc}
30009f40:	30010088 	andcc	r0, r1, r8, lsl #1

30009f44 <lcd_contoller_add>:
30009f44:	e1a0c00d 	mov	ip, sp
30009f48:	e92dd800 	stmdb	sp!, {fp, ip, lr, pc}
30009f4c:	e24cb004 	sub	fp, ip, #4	; 0x4
30009f50:	eb0002f7 	bl	3000ab34 <s3c2440_lcd_contoller_add>
30009f54:	e89da800 	ldmia	sp, {fp, sp, pc}

30009f58 <lcd_test>:
30009f58:	e1a0c00d 	mov	ip, sp
30009f5c:	e92dd800 	stmdb	sp!, {fp, ip, lr, pc}
30009f60:	e24cb004 	sub	fp, ip, #4	; 0x4
30009f64:	e24dd024 	sub	sp, sp, #36	; 0x24
30009f68:	e59f060c 	ldr	r0, [pc, #1548]	; 3000a57c <.text+0x25bc>
30009f6c:	ebfffdcb 	bl	300096a0 <puts>
30009f70:	ebffff36 	bl	30009c50 <lcd_init>
30009f74:	e59f0604 	ldr	r0, [pc, #1540]	; 3000a580 <.text+0x25c0>
30009f78:	ebfffdc8 	bl	300096a0 <puts>
30009f7c:	ebffff29 	bl	30009c28 <lcd_enable>
30009f80:	e59f05fc 	ldr	r0, [pc, #1532]	; 3000a584 <.text+0x25c4>
30009f84:	ebfffdc5 	bl	300096a0 <puts>
30009f88:	e24b3010 	sub	r3, fp, #16	; 0x10
30009f8c:	e24b2014 	sub	r2, fp, #20	; 0x14
30009f90:	e24bc018 	sub	ip, fp, #24	; 0x18
30009f94:	e24be01c 	sub	lr, fp, #28	; 0x1c
30009f98:	e1a00003 	mov	r0, r3
30009f9c:	e1a01002 	mov	r1, r2
30009fa0:	e1a0200c 	mov	r2, ip
30009fa4:	e1a0300e 	mov	r3, lr
30009fa8:	ebfffeff 	bl	30009bac <get_lcd_params>
30009fac:	ebfffe35 	bl	30009888 <fb_get_lcd_params>
30009fb0:	eb000325 	bl	3000ac4c <font_init>
30009fb4:	e59f05cc 	ldr	r0, [pc, #1484]	; 3000a588 <.text+0x25c8>
30009fb8:	ebfffdb8 	bl	300096a0 <puts>
30009fbc:	e51b301c 	ldr	r3, [fp, #-28]
30009fc0:	e3530008 	cmp	r3, #8	; 0x8
30009fc4:	1a000073 	bne	3000a198 <lcd_test+0x240>
30009fc8:	e51b3010 	ldr	r3, [fp, #-16]
30009fcc:	e50b3028 	str	r3, [fp, #-40]
30009fd0:	e3a03000 	mov	r3, #0	; 0x0
30009fd4:	e50b3020 	str	r3, [fp, #-32]
30009fd8:	e51b2020 	ldr	r2, [fp, #-32]
30009fdc:	e51b3014 	ldr	r3, [fp, #-20]
30009fe0:	e1520003 	cmp	r2, r3
30009fe4:	aa000014 	bge	3000a03c <lcd_test+0xe4>
30009fe8:	e3a03000 	mov	r3, #0	; 0x0
30009fec:	e50b3024 	str	r3, [fp, #-36]
30009ff0:	e51b2024 	ldr	r2, [fp, #-36]
30009ff4:	e51b3018 	ldr	r3, [fp, #-24]
30009ff8:	e1520003 	cmp	r2, r3
30009ffc:	aa00000a 	bge	3000a02c <lcd_test+0xd4>
3000a000:	e24b0028 	sub	r0, fp, #40	; 0x28
3000a004:	e5902000 	ldr	r2, [r0]
3000a008:	e1a01002 	mov	r1, r2
3000a00c:	e3a0300c 	mov	r3, #12	; 0xc
3000a010:	e5c13000 	strb	r3, [r1]
3000a014:	e2822001 	add	r2, r2, #1	; 0x1
3000a018:	e5802000 	str	r2, [r0]
3000a01c:	e51b3024 	ldr	r3, [fp, #-36]
3000a020:	e2833001 	add	r3, r3, #1	; 0x1
3000a024:	e50b3024 	str	r3, [fp, #-36]
3000a028:	eafffff0 	b	30009ff0 <lcd_test+0x98>
3000a02c:	e51b3020 	ldr	r3, [fp, #-32]
3000a030:	e2833001 	add	r3, r3, #1	; 0x1
3000a034:	e50b3020 	str	r3, [fp, #-32]
3000a038:	eaffffe6 	b	30009fd8 <lcd_test+0x80>
3000a03c:	e51b3010 	ldr	r3, [fp, #-16]
3000a040:	e50b3028 	str	r3, [fp, #-40]
3000a044:	e3a03000 	mov	r3, #0	; 0x0
3000a048:	e50b3020 	str	r3, [fp, #-32]
3000a04c:	e51b2020 	ldr	r2, [fp, #-32]
3000a050:	e51b3014 	ldr	r3, [fp, #-20]
3000a054:	e1520003 	cmp	r2, r3
3000a058:	aa000014 	bge	3000a0b0 <lcd_test+0x158>
3000a05c:	e3a03000 	mov	r3, #0	; 0x0
3000a060:	e50b3024 	str	r3, [fp, #-36]
3000a064:	e51b2024 	ldr	r2, [fp, #-36]
3000a068:	e51b3018 	ldr	r3, [fp, #-24]
3000a06c:	e1520003 	cmp	r2, r3
3000a070:	aa00000a 	bge	3000a0a0 <lcd_test+0x148>
3000a074:	e24b0028 	sub	r0, fp, #40	; 0x28
3000a078:	e5902000 	ldr	r2, [r0]
3000a07c:	e1a01002 	mov	r1, r2
3000a080:	e3a0302f 	mov	r3, #47	; 0x2f
3000a084:	e5c13000 	strb	r3, [r1]
3000a088:	e2822001 	add	r2, r2, #1	; 0x1
3000a08c:	e5802000 	str	r2, [r0]
3000a090:	e51b3024 	ldr	r3, [fp, #-36]
3000a094:	e2833001 	add	r3, r3, #1	; 0x1
3000a098:	e50b3024 	str	r3, [fp, #-36]
3000a09c:	eafffff0 	b	3000a064 <lcd_test+0x10c>
3000a0a0:	e51b3020 	ldr	r3, [fp, #-32]
3000a0a4:	e2833001 	add	r3, r3, #1	; 0x1
3000a0a8:	e50b3020 	str	r3, [fp, #-32]
3000a0ac:	eaffffe6 	b	3000a04c <lcd_test+0xf4>
3000a0b0:	e51b3010 	ldr	r3, [fp, #-16]
3000a0b4:	e50b3028 	str	r3, [fp, #-40]
3000a0b8:	e3a03000 	mov	r3, #0	; 0x0
3000a0bc:	e50b3020 	str	r3, [fp, #-32]
3000a0c0:	e51b2020 	ldr	r2, [fp, #-32]
3000a0c4:	e51b3014 	ldr	r3, [fp, #-20]
3000a0c8:	e1520003 	cmp	r2, r3
3000a0cc:	aa000014 	bge	3000a124 <lcd_test+0x1cc>
3000a0d0:	e3a03000 	mov	r3, #0	; 0x0
3000a0d4:	e50b3024 	str	r3, [fp, #-36]
3000a0d8:	e51b2024 	ldr	r2, [fp, #-36]
3000a0dc:	e51b3018 	ldr	r3, [fp, #-24]
3000a0e0:	e1520003 	cmp	r2, r3
3000a0e4:	aa00000a 	bge	3000a114 <lcd_test+0x1bc>
3000a0e8:	e24b0028 	sub	r0, fp, #40	; 0x28
3000a0ec:	e5902000 	ldr	r2, [r0]
3000a0f0:	e1a01002 	mov	r1, r2
3000a0f4:	e3a03058 	mov	r3, #88	; 0x58
3000a0f8:	e5c13000 	strb	r3, [r1]
3000a0fc:	e2822001 	add	r2, r2, #1	; 0x1
3000a100:	e5802000 	str	r2, [r0]
3000a104:	e51b3024 	ldr	r3, [fp, #-36]
3000a108:	e2833001 	add	r3, r3, #1	; 0x1
3000a10c:	e50b3024 	str	r3, [fp, #-36]
3000a110:	eafffff0 	b	3000a0d8 <lcd_test+0x180>
3000a114:	e51b3020 	ldr	r3, [fp, #-32]
3000a118:	e2833001 	add	r3, r3, #1	; 0x1
3000a11c:	e50b3020 	str	r3, [fp, #-32]
3000a120:	eaffffe6 	b	3000a0c0 <lcd_test+0x168>
3000a124:	e51b3010 	ldr	r3, [fp, #-16]
3000a128:	e50b3028 	str	r3, [fp, #-40]
3000a12c:	e3a03000 	mov	r3, #0	; 0x0
3000a130:	e50b3020 	str	r3, [fp, #-32]
3000a134:	e51b2020 	ldr	r2, [fp, #-32]
3000a138:	e51b3014 	ldr	r3, [fp, #-20]
3000a13c:	e1520003 	cmp	r2, r3
3000a140:	aa000109 	bge	3000a56c <lcd_test+0x614>
3000a144:	e3a03000 	mov	r3, #0	; 0x0
3000a148:	e50b3024 	str	r3, [fp, #-36]
3000a14c:	e51b2024 	ldr	r2, [fp, #-36]
3000a150:	e51b3018 	ldr	r3, [fp, #-24]
3000a154:	e1520003 	cmp	r2, r3
3000a158:	aa00000a 	bge	3000a188 <lcd_test+0x230>
3000a15c:	e24b0028 	sub	r0, fp, #40	; 0x28
3000a160:	e5902000 	ldr	r2, [r0]
3000a164:	e1a01002 	mov	r1, r2
3000a168:	e3a03000 	mov	r3, #0	; 0x0
3000a16c:	e5c13000 	strb	r3, [r1]
3000a170:	e2822001 	add	r2, r2, #1	; 0x1
3000a174:	e5802000 	str	r2, [r0]
3000a178:	e51b3024 	ldr	r3, [fp, #-36]
3000a17c:	e2833001 	add	r3, r3, #1	; 0x1
3000a180:	e50b3024 	str	r3, [fp, #-36]
3000a184:	eafffff0 	b	3000a14c <lcd_test+0x1f4>
3000a188:	e51b3020 	ldr	r3, [fp, #-32]
3000a18c:	e2833001 	add	r3, r3, #1	; 0x1
3000a190:	e50b3020 	str	r3, [fp, #-32]
3000a194:	eaffffe6 	b	3000a134 <lcd_test+0x1dc>
3000a198:	e51b301c 	ldr	r3, [fp, #-28]
3000a19c:	e3530010 	cmp	r3, #16	; 0x10
3000a1a0:	1a00007a 	bne	3000a390 <lcd_test+0x438>
3000a1a4:	e51b3010 	ldr	r3, [fp, #-16]
3000a1a8:	e50b302c 	str	r3, [fp, #-44]
3000a1ac:	e3a03000 	mov	r3, #0	; 0x0
3000a1b0:	e50b3020 	str	r3, [fp, #-32]
3000a1b4:	e51b2020 	ldr	r2, [fp, #-32]
3000a1b8:	e51b3014 	ldr	r3, [fp, #-20]
3000a1bc:	e1520003 	cmp	r2, r3
3000a1c0:	aa000016 	bge	3000a220 <lcd_test+0x2c8>
3000a1c4:	e3a03000 	mov	r3, #0	; 0x0
3000a1c8:	e50b3024 	str	r3, [fp, #-36]
3000a1cc:	e51b2024 	ldr	r2, [fp, #-36]
3000a1d0:	e51b3018 	ldr	r3, [fp, #-24]
3000a1d4:	e1520003 	cmp	r2, r3
3000a1d8:	aa00000c 	bge	3000a210 <lcd_test+0x2b8>
3000a1dc:	e24bc02c 	sub	ip, fp, #44	; 0x2c
3000a1e0:	e59c3000 	ldr	r3, [ip]
3000a1e4:	e1a00003 	mov	r0, r3
3000a1e8:	e3a02000 	mov	r2, #0	; 0x0
3000a1ec:	e3a010f8 	mov	r1, #248	; 0xf8
3000a1f0:	e5c02000 	strb	r2, [r0]
3000a1f4:	e5c01001 	strb	r1, [r0, #1]
3000a1f8:	e2833002 	add	r3, r3, #2	; 0x2
3000a1fc:	e58c3000 	str	r3, [ip]
3000a200:	e51b3024 	ldr	r3, [fp, #-36]
3000a204:	e2833001 	add	r3, r3, #1	; 0x1
3000a208:	e50b3024 	str	r3, [fp, #-36]
3000a20c:	eaffffee 	b	3000a1cc <lcd_test+0x274>
3000a210:	e51b3020 	ldr	r3, [fp, #-32]
3000a214:	e2833001 	add	r3, r3, #1	; 0x1
3000a218:	e50b3020 	str	r3, [fp, #-32]
3000a21c:	eaffffe4 	b	3000a1b4 <lcd_test+0x25c>
3000a220:	e51b3010 	ldr	r3, [fp, #-16]
3000a224:	e50b302c 	str	r3, [fp, #-44]
3000a228:	e3a03000 	mov	r3, #0	; 0x0
3000a22c:	e50b3020 	str	r3, [fp, #-32]
3000a230:	e51b2020 	ldr	r2, [fp, #-32]
3000a234:	e51b3014 	ldr	r3, [fp, #-20]
3000a238:	e1520003 	cmp	r2, r3
3000a23c:	aa000016 	bge	3000a29c <lcd_test+0x344>
3000a240:	e3a03000 	mov	r3, #0	; 0x0
3000a244:	e50b3024 	str	r3, [fp, #-36]
3000a248:	e51b2024 	ldr	r2, [fp, #-36]
3000a24c:	e51b3018 	ldr	r3, [fp, #-24]
3000a250:	e1520003 	cmp	r2, r3
3000a254:	aa00000c 	bge	3000a28c <lcd_test+0x334>
3000a258:	e24bc02c 	sub	ip, fp, #44	; 0x2c
3000a25c:	e59c3000 	ldr	r3, [ip]
3000a260:	e1a00003 	mov	r0, r3
3000a264:	e3a020e0 	mov	r2, #224	; 0xe0
3000a268:	e3a01007 	mov	r1, #7	; 0x7
3000a26c:	e5c02000 	strb	r2, [r0]
3000a270:	e5c01001 	strb	r1, [r0, #1]
3000a274:	e2833002 	add	r3, r3, #2	; 0x2
3000a278:	e58c3000 	str	r3, [ip]
3000a27c:	e51b3024 	ldr	r3, [fp, #-36]
3000a280:	e2833001 	add	r3, r3, #1	; 0x1
3000a284:	e50b3024 	str	r3, [fp, #-36]
3000a288:	eaffffee 	b	3000a248 <lcd_test+0x2f0>
3000a28c:	e51b3020 	ldr	r3, [fp, #-32]
3000a290:	e2833001 	add	r3, r3, #1	; 0x1
3000a294:	e50b3020 	str	r3, [fp, #-32]
3000a298:	eaffffe4 	b	3000a230 <lcd_test+0x2d8>
3000a29c:	e51b3010 	ldr	r3, [fp, #-16]
3000a2a0:	e50b302c 	str	r3, [fp, #-44]
3000a2a4:	e3a03000 	mov	r3, #0	; 0x0
3000a2a8:	e50b3020 	str	r3, [fp, #-32]
3000a2ac:	e51b2020 	ldr	r2, [fp, #-32]
3000a2b0:	e51b3014 	ldr	r3, [fp, #-20]
3000a2b4:	e1520003 	cmp	r2, r3
3000a2b8:	aa000016 	bge	3000a318 <lcd_test+0x3c0>
3000a2bc:	e3a03000 	mov	r3, #0	; 0x0
3000a2c0:	e50b3024 	str	r3, [fp, #-36]
3000a2c4:	e51b2024 	ldr	r2, [fp, #-36]
3000a2c8:	e51b3018 	ldr	r3, [fp, #-24]
3000a2cc:	e1520003 	cmp	r2, r3
3000a2d0:	aa00000c 	bge	3000a308 <lcd_test+0x3b0>
3000a2d4:	e24bc02c 	sub	ip, fp, #44	; 0x2c
3000a2d8:	e59c3000 	ldr	r3, [ip]
3000a2dc:	e1a00003 	mov	r0, r3
3000a2e0:	e3a0201f 	mov	r2, #31	; 0x1f
3000a2e4:	e3a01000 	mov	r1, #0	; 0x0
3000a2e8:	e5c02000 	strb	r2, [r0]
3000a2ec:	e5c01001 	strb	r1, [r0, #1]
3000a2f0:	e2833002 	add	r3, r3, #2	; 0x2
3000a2f4:	e58c3000 	str	r3, [ip]
3000a2f8:	e51b3024 	ldr	r3, [fp, #-36]
3000a2fc:	e2833001 	add	r3, r3, #1	; 0x1
3000a300:	e50b3024 	str	r3, [fp, #-36]
3000a304:	eaffffee 	b	3000a2c4 <lcd_test+0x36c>
3000a308:	e51b3020 	ldr	r3, [fp, #-32]
3000a30c:	e2833001 	add	r3, r3, #1	; 0x1
3000a310:	e50b3020 	str	r3, [fp, #-32]
3000a314:	eaffffe4 	b	3000a2ac <lcd_test+0x354>
3000a318:	e51b3010 	ldr	r3, [fp, #-16]
3000a31c:	e50b302c 	str	r3, [fp, #-44]
3000a320:	e3a03000 	mov	r3, #0	; 0x0
3000a324:	e50b3020 	str	r3, [fp, #-32]
3000a328:	e51b2020 	ldr	r2, [fp, #-32]
3000a32c:	e51b3014 	ldr	r3, [fp, #-20]
3000a330:	e1520003 	cmp	r2, r3
3000a334:	aa00008c 	bge	3000a56c <lcd_test+0x614>
3000a338:	e3a03000 	mov	r3, #0	; 0x0
3000a33c:	e50b3024 	str	r3, [fp, #-36]
3000a340:	e51b2024 	ldr	r2, [fp, #-36]
3000a344:	e51b3018 	ldr	r3, [fp, #-24]
3000a348:	e1520003 	cmp	r2, r3
3000a34c:	aa00000b 	bge	3000a380 <lcd_test+0x428>
3000a350:	e24b002c 	sub	r0, fp, #44	; 0x2c
3000a354:	e5903000 	ldr	r3, [r0]
3000a358:	e1a01003 	mov	r1, r3
3000a35c:	e3a02000 	mov	r2, #0	; 0x0
3000a360:	e5c12000 	strb	r2, [r1]
3000a364:	e5c12001 	strb	r2, [r1, #1]
3000a368:	e2833002 	add	r3, r3, #2	; 0x2
3000a36c:	e5803000 	str	r3, [r0]
3000a370:	e51b3024 	ldr	r3, [fp, #-36]
3000a374:	e2833001 	add	r3, r3, #1	; 0x1
3000a378:	e50b3024 	str	r3, [fp, #-36]
3000a37c:	eaffffef 	b	3000a340 <lcd_test+0x3e8>
3000a380:	e51b3020 	ldr	r3, [fp, #-32]
3000a384:	e2833001 	add	r3, r3, #1	; 0x1
3000a388:	e50b3020 	str	r3, [fp, #-32]
3000a38c:	eaffffe5 	b	3000a328 <lcd_test+0x3d0>
3000a390:	e51b301c 	ldr	r3, [fp, #-28]
3000a394:	e3530020 	cmp	r3, #32	; 0x20
3000a398:	1a000073 	bne	3000a56c <lcd_test+0x614>
3000a39c:	e51b3010 	ldr	r3, [fp, #-16]
3000a3a0:	e50b3030 	str	r3, [fp, #-48]
3000a3a4:	e3a03000 	mov	r3, #0	; 0x0
3000a3a8:	e50b3020 	str	r3, [fp, #-32]
3000a3ac:	e51b2020 	ldr	r2, [fp, #-32]
3000a3b0:	e51b3014 	ldr	r3, [fp, #-20]
3000a3b4:	e1520003 	cmp	r2, r3
3000a3b8:	aa000014 	bge	3000a410 <lcd_test+0x4b8>
3000a3bc:	e3a03000 	mov	r3, #0	; 0x0
3000a3c0:	e50b3024 	str	r3, [fp, #-36]
3000a3c4:	e51b2024 	ldr	r2, [fp, #-36]
3000a3c8:	e51b3018 	ldr	r3, [fp, #-24]
3000a3cc:	e1520003 	cmp	r2, r3
3000a3d0:	aa00000a 	bge	3000a400 <lcd_test+0x4a8>
3000a3d4:	e24b0030 	sub	r0, fp, #48	; 0x30
3000a3d8:	e5903000 	ldr	r3, [r0]
3000a3dc:	e1a01003 	mov	r1, r3
3000a3e0:	e3a028ff 	mov	r2, #16711680	; 0xff0000
3000a3e4:	e5812000 	str	r2, [r1]
3000a3e8:	e2833004 	add	r3, r3, #4	; 0x4
3000a3ec:	e5803000 	str	r3, [r0]
3000a3f0:	e51b3024 	ldr	r3, [fp, #-36]
3000a3f4:	e2833001 	add	r3, r3, #1	; 0x1
3000a3f8:	e50b3024 	str	r3, [fp, #-36]
3000a3fc:	eafffff0 	b	3000a3c4 <lcd_test+0x46c>
3000a400:	e51b3020 	ldr	r3, [fp, #-32]
3000a404:	e2833001 	add	r3, r3, #1	; 0x1
3000a408:	e50b3020 	str	r3, [fp, #-32]
3000a40c:	eaffffe6 	b	3000a3ac <lcd_test+0x454>
3000a410:	e51b3010 	ldr	r3, [fp, #-16]
3000a414:	e50b3030 	str	r3, [fp, #-48]
3000a418:	e3a03000 	mov	r3, #0	; 0x0
3000a41c:	e50b3020 	str	r3, [fp, #-32]
3000a420:	e51b2020 	ldr	r2, [fp, #-32]
3000a424:	e51b3014 	ldr	r3, [fp, #-20]
3000a428:	e1520003 	cmp	r2, r3
3000a42c:	aa000014 	bge	3000a484 <lcd_test+0x52c>
3000a430:	e3a03000 	mov	r3, #0	; 0x0
3000a434:	e50b3024 	str	r3, [fp, #-36]
3000a438:	e51b2024 	ldr	r2, [fp, #-36]
3000a43c:	e51b3018 	ldr	r3, [fp, #-24]
3000a440:	e1520003 	cmp	r2, r3
3000a444:	aa00000a 	bge	3000a474 <lcd_test+0x51c>
3000a448:	e24b0030 	sub	r0, fp, #48	; 0x30
3000a44c:	e5903000 	ldr	r3, [r0]
3000a450:	e1a01003 	mov	r1, r3
3000a454:	e3a02cff 	mov	r2, #65280	; 0xff00
3000a458:	e5812000 	str	r2, [r1]
3000a45c:	e2833004 	add	r3, r3, #4	; 0x4
3000a460:	e5803000 	str	r3, [r0]
3000a464:	e51b3024 	ldr	r3, [fp, #-36]
3000a468:	e2833001 	add	r3, r3, #1	; 0x1
3000a46c:	e50b3024 	str	r3, [fp, #-36]
3000a470:	eafffff0 	b	3000a438 <lcd_test+0x4e0>
3000a474:	e51b3020 	ldr	r3, [fp, #-32]
3000a478:	e2833001 	add	r3, r3, #1	; 0x1
3000a47c:	e50b3020 	str	r3, [fp, #-32]
3000a480:	eaffffe6 	b	3000a420 <lcd_test+0x4c8>
3000a484:	e51b3010 	ldr	r3, [fp, #-16]
3000a488:	e50b3030 	str	r3, [fp, #-48]
3000a48c:	e3a03000 	mov	r3, #0	; 0x0
3000a490:	e50b3020 	str	r3, [fp, #-32]
3000a494:	e51b2020 	ldr	r2, [fp, #-32]
3000a498:	e51b3014 	ldr	r3, [fp, #-20]
3000a49c:	e1520003 	cmp	r2, r3
3000a4a0:	aa000014 	bge	3000a4f8 <lcd_test+0x5a0>
3000a4a4:	e3a03000 	mov	r3, #0	; 0x0
3000a4a8:	e50b3024 	str	r3, [fp, #-36]
3000a4ac:	e51b2024 	ldr	r2, [fp, #-36]
3000a4b0:	e51b3018 	ldr	r3, [fp, #-24]
3000a4b4:	e1520003 	cmp	r2, r3
3000a4b8:	aa00000a 	bge	3000a4e8 <lcd_test+0x590>
3000a4bc:	e24b0030 	sub	r0, fp, #48	; 0x30
3000a4c0:	e5903000 	ldr	r3, [r0]
3000a4c4:	e1a01003 	mov	r1, r3
3000a4c8:	e3a020ff 	mov	r2, #255	; 0xff
3000a4cc:	e5812000 	str	r2, [r1]
3000a4d0:	e2833004 	add	r3, r3, #4	; 0x4
3000a4d4:	e5803000 	str	r3, [r0]
3000a4d8:	e51b3024 	ldr	r3, [fp, #-36]
3000a4dc:	e2833001 	add	r3, r3, #1	; 0x1
3000a4e0:	e50b3024 	str	r3, [fp, #-36]
3000a4e4:	eafffff0 	b	3000a4ac <lcd_test+0x554>
3000a4e8:	e51b3020 	ldr	r3, [fp, #-32]
3000a4ec:	e2833001 	add	r3, r3, #1	; 0x1
3000a4f0:	e50b3020 	str	r3, [fp, #-32]
3000a4f4:	eaffffe6 	b	3000a494 <lcd_test+0x53c>
3000a4f8:	e51b3010 	ldr	r3, [fp, #-16]
3000a4fc:	e50b3030 	str	r3, [fp, #-48]
3000a500:	e3a03000 	mov	r3, #0	; 0x0
3000a504:	e50b3020 	str	r3, [fp, #-32]
3000a508:	e51b2020 	ldr	r2, [fp, #-32]
3000a50c:	e51b3014 	ldr	r3, [fp, #-20]
3000a510:	e1520003 	cmp	r2, r3
3000a514:	aa000014 	bge	3000a56c <lcd_test+0x614>
3000a518:	e3a03000 	mov	r3, #0	; 0x0
3000a51c:	e50b3024 	str	r3, [fp, #-36]
3000a520:	e51b2024 	ldr	r2, [fp, #-36]
3000a524:	e51b3018 	ldr	r3, [fp, #-24]
3000a528:	e1520003 	cmp	r2, r3
3000a52c:	aa00000a 	bge	3000a55c <lcd_test+0x604>
3000a530:	e24b0030 	sub	r0, fp, #48	; 0x30
3000a534:	e5903000 	ldr	r3, [r0]
3000a538:	e1a01003 	mov	r1, r3
3000a53c:	e3a02000 	mov	r2, #0	; 0x0
3000a540:	e5812000 	str	r2, [r1]
3000a544:	e2833004 	add	r3, r3, #4	; 0x4
3000a548:	e5803000 	str	r3, [r0]
3000a54c:	e51b3024 	ldr	r3, [fp, #-36]
3000a550:	e2833001 	add	r3, r3, #1	; 0x1
3000a554:	e50b3024 	str	r3, [fp, #-36]
3000a558:	eafffff0 	b	3000a520 <lcd_test+0x5c8>
3000a55c:	e51b3020 	ldr	r3, [fp, #-32]
3000a560:	e2833001 	add	r3, r3, #1	; 0x1
3000a564:	e50b3020 	str	r3, [fp, #-32]
3000a568:	eaffffe6 	b	3000a508 <lcd_test+0x5b0>
3000a56c:	e59f0018 	ldr	r0, [pc, #24]	; 3000a58c <.text+0x25cc>
3000a570:	ebfffc4a 	bl	300096a0 <puts>
3000a574:	e24bd00c 	sub	sp, fp, #12	; 0xc
3000a578:	e89da800 	ldmia	sp, {fp, sp, pc}
3000a57c:	3000e8a8 	andcc	lr, r0, r8, lsr #17
3000a580:	3000e8b8 	strcch	lr, [r0], -r8
3000a584:	3000e8c8 	andcc	lr, r0, r8, asr #17
3000a588:	3000e8dc 	ldrccd	lr, [r0], -ip
3000a58c:	3000e8e4 	andcc	lr, r0, r4, ror #17

3000a590 <jz2440_lcd_pin_init>:
3000a590:	e1a0c00d 	mov	ip, sp
3000a594:	e92dd800 	stmdb	sp!, {fp, ip, lr, pc}
3000a598:	e24cb004 	sub	fp, ip, #4	; 0x4
3000a59c:	e59f0098 	ldr	r0, [pc, #152]	; 3000a63c <.text+0x267c>
3000a5a0:	ebfffc3e 	bl	300096a0 <puts>
3000a5a4:	e3a02456 	mov	r2, #1442840576	; 0x56000000
3000a5a8:	e2822010 	add	r2, r2, #16	; 0x10
3000a5ac:	e3a03456 	mov	r3, #1442840576	; 0x56000000
3000a5b0:	e2833010 	add	r3, r3, #16	; 0x10
3000a5b4:	e5933000 	ldr	r3, [r3]
3000a5b8:	e3c33003 	bic	r3, r3, #3	; 0x3
3000a5bc:	e5823000 	str	r3, [r2]
3000a5c0:	e59f0078 	ldr	r0, [pc, #120]	; 3000a640 <.text+0x2680>
3000a5c4:	ebfffc35 	bl	300096a0 <puts>
3000a5c8:	e3a02456 	mov	r2, #1442840576	; 0x56000000
3000a5cc:	e2822010 	add	r2, r2, #16	; 0x10
3000a5d0:	e3a03456 	mov	r3, #1442840576	; 0x56000000
3000a5d4:	e2833010 	add	r3, r3, #16	; 0x10
3000a5d8:	e5933000 	ldr	r3, [r3]
3000a5dc:	e3833001 	orr	r3, r3, #1	; 0x1
3000a5e0:	e5823000 	str	r3, [r2]
3000a5e4:	e59f0058 	ldr	r0, [pc, #88]	; 3000a644 <.text+0x2684>
3000a5e8:	ebfffc2c 	bl	300096a0 <puts>
3000a5ec:	e59f0054 	ldr	r0, [pc, #84]	; 3000a648 <.text+0x2688>
3000a5f0:	ebfffc2a 	bl	300096a0 <puts>
3000a5f4:	e3a02456 	mov	r2, #1442840576	; 0x56000000
3000a5f8:	e2822030 	add	r2, r2, #48	; 0x30
3000a5fc:	e3a03caa 	mov	r3, #43520	; 0xaa00
3000a600:	e28330aa 	add	r3, r3, #170	; 0xaa
3000a604:	e1833803 	orr	r3, r3, r3, lsl #16
3000a608:	e5823000 	str	r3, [r2]
3000a60c:	e59f0038 	ldr	r0, [pc, #56]	; 3000a64c <.text+0x268c>
3000a610:	ebfffc22 	bl	300096a0 <puts>
3000a614:	e3a02456 	mov	r2, #1442840576	; 0x56000000
3000a618:	e2822060 	add	r2, r2, #96	; 0x60
3000a61c:	e3a03456 	mov	r3, #1442840576	; 0x56000000
3000a620:	e2833060 	add	r3, r3, #96	; 0x60
3000a624:	e5933000 	ldr	r3, [r3]
3000a628:	e3833c03 	orr	r3, r3, #768	; 0x300
3000a62c:	e5823000 	str	r3, [r2]
3000a630:	e59f0018 	ldr	r0, [pc, #24]	; 3000a650 <.text+0x2690>
3000a634:	ebfffc19 	bl	300096a0 <puts>
3000a638:	e89da800 	ldmia	sp, {fp, sp, pc}
3000a63c:	3000e8f8 	strccd	lr, [r0], -r8
3000a640:	3000e914 	andcc	lr, r0, r4, lsl r9
3000a644:	3000e930 	andcc	lr, r0, r0, lsr r9
3000a648:	3000e94c 	andcc	lr, r0, ip, asr #18
3000a64c:	3000e968 	andcc	lr, r0, r8, ror #18
3000a650:	3000e984 	andcc	lr, r0, r4, lsl #19

3000a654 <s3c2440_lcd_controller_init>:
3000a654:	e1a0c00d 	mov	ip, sp
3000a658:	e92dd810 	stmdb	sp!, {r4, fp, ip, lr, pc}
3000a65c:	e24cb004 	sub	fp, ip, #4	; 0x4
3000a660:	e24dd01c 	sub	sp, sp, #28	; 0x1c
3000a664:	e50b0014 	str	r0, [fp, #-20]
3000a668:	e59f032c 	ldr	r0, [pc, #812]	; 3000a99c <.text+0x29dc>
3000a66c:	ebfffc0b 	bl	300096a0 <puts>
3000a670:	ebffffc6 	bl	3000a590 <jz2440_lcd_pin_init>
3000a674:	e59f0324 	ldr	r0, [pc, #804]	; 3000a9a0 <.text+0x29e0>
3000a678:	ebfffc08 	bl	300096a0 <puts>
3000a67c:	e51b3014 	ldr	r3, [fp, #-20]
3000a680:	e5930034 	ldr	r0, [r3, #52]
3000a684:	eb000eaa 	bl	3000e134 <__floatsisf>
3000a688:	e1a03000 	mov	r3, r0
3000a68c:	e59f0310 	ldr	r0, [pc, #784]	; 3000a9a4 <.text+0x29e4>
3000a690:	e1a01003 	mov	r1, r3
3000a694:	eb000f28 	bl	3000e33c <__divsf3>
3000a698:	e1a03000 	mov	r3, r0
3000a69c:	e1a00003 	mov	r0, r3
3000a6a0:	e59f1300 	ldr	r1, [pc, #768]	; 3000a9a8 <.text+0x29e8>
3000a6a4:	eb000f24 	bl	3000e33c <__divsf3>
3000a6a8:	e1a03000 	mov	r3, r0
3000a6ac:	e1a00003 	mov	r0, r3
3000a6b0:	e59f12f4 	ldr	r1, [pc, #756]	; 3000a9ac <.text+0x29ec>
3000a6b4:	eb000e2b 	bl	3000df68 <__subsf3>
3000a6b8:	e1a03000 	mov	r3, r0
3000a6bc:	e1a00003 	mov	r0, r3
3000a6c0:	eb000df5 	bl	3000de9c <__extendsfdf2>
3000a6c4:	e1a04001 	mov	r4, r1
3000a6c8:	e1a03000 	mov	r3, r0
3000a6cc:	e1a01004 	mov	r1, r4
3000a6d0:	e1a00003 	mov	r0, r3
3000a6d4:	e28f2fae 	add	r2, pc, #696	; 0x2b8
3000a6d8:	e892000c 	ldmia	r2, {r2, r3}
3000a6dc:	eb000d20 	bl	3000db64 <__adddf3>
3000a6e0:	e1a04001 	mov	r4, r1
3000a6e4:	e1a03000 	mov	r3, r0
3000a6e8:	e1a01004 	mov	r1, r4
3000a6ec:	e1a00003 	mov	r0, r3
3000a6f0:	eb000dfc 	bl	3000dee8 <__fixdfsi>
3000a6f4:	e1a03000 	mov	r3, r0
3000a6f8:	e50b3020 	str	r3, [fp, #-32]
3000a6fc:	e59f02ac 	ldr	r0, [pc, #684]	; 3000a9b0 <.text+0x29f0>
3000a700:	ebfffbe6 	bl	300096a0 <puts>
3000a704:	e51b3014 	ldr	r3, [fp, #-20]
3000a708:	e5933040 	ldr	r3, [r3, #64]
3000a70c:	e3530008 	cmp	r3, #8	; 0x8
3000a710:	0a000009 	beq	3000a73c <s3c2440_lcd_controller_init+0xe8>
3000a714:	e51b3014 	ldr	r3, [fp, #-20]
3000a718:	e5933040 	ldr	r3, [r3, #64]
3000a71c:	e3530010 	cmp	r3, #16	; 0x10
3000a720:	1a000002 	bne	3000a730 <s3c2440_lcd_controller_init+0xdc>
3000a724:	e3a0300c 	mov	r3, #12	; 0xc
3000a728:	e50b3028 	str	r3, [fp, #-40]
3000a72c:	ea000004 	b	3000a744 <s3c2440_lcd_controller_init+0xf0>
3000a730:	e3a0300d 	mov	r3, #13	; 0xd
3000a734:	e50b3028 	str	r3, [fp, #-40]
3000a738:	ea000001 	b	3000a744 <s3c2440_lcd_controller_init+0xf0>
3000a73c:	e3a0300b 	mov	r3, #11	; 0xb
3000a740:	e50b3028 	str	r3, [fp, #-40]
3000a744:	e51b3028 	ldr	r3, [fp, #-40]
3000a748:	e50b3024 	str	r3, [fp, #-36]
3000a74c:	e59f0260 	ldr	r0, [pc, #608]	; 3000a9b4 <.text+0x29f4>
3000a750:	ebfffbd2 	bl	300096a0 <puts>
3000a754:	e3a0144d 	mov	r1, #1291845632	; 0x4d000000
3000a758:	e51b3020 	ldr	r3, [fp, #-32]
3000a75c:	e1a02403 	mov	r2, r3, lsl #8
3000a760:	e51b3024 	ldr	r3, [fp, #-36]
3000a764:	e1a03083 	mov	r3, r3, lsl #1
3000a768:	e1823003 	orr	r3, r2, r3
3000a76c:	e3833060 	orr	r3, r3, #96	; 0x60
3000a770:	e5813000 	str	r3, [r1]
3000a774:	e59f023c 	ldr	r0, [pc, #572]	; 3000a9b8 <.text+0x29f8>
3000a778:	ebfffbc8 	bl	300096a0 <puts>
3000a77c:	e3a0244d 	mov	r2, #1291845632	; 0x4d000000
3000a780:	e2822004 	add	r2, r2, #4	; 0x4
3000a784:	e51b3014 	ldr	r3, [fp, #-20]
3000a788:	e5933020 	ldr	r3, [r3, #32]
3000a78c:	e2433001 	sub	r3, r3, #1	; 0x1
3000a790:	e1a01c03 	mov	r1, r3, lsl #24
3000a794:	e51b3014 	ldr	r3, [fp, #-20]
3000a798:	e593303c 	ldr	r3, [r3, #60]
3000a79c:	e2433001 	sub	r3, r3, #1	; 0x1
3000a7a0:	e1a03703 	mov	r3, r3, lsl #14
3000a7a4:	e1811003 	orr	r1, r1, r3
3000a7a8:	e51b3014 	ldr	r3, [fp, #-20]
3000a7ac:	e5933024 	ldr	r3, [r3, #36]
3000a7b0:	e2433001 	sub	r3, r3, #1	; 0x1
3000a7b4:	e1a03303 	mov	r3, r3, lsl #6
3000a7b8:	e1811003 	orr	r1, r1, r3
3000a7bc:	e51b3014 	ldr	r3, [fp, #-20]
3000a7c0:	e593301c 	ldr	r3, [r3, #28]
3000a7c4:	e2433001 	sub	r3, r3, #1	; 0x1
3000a7c8:	e1813003 	orr	r3, r1, r3
3000a7cc:	e5823000 	str	r3, [r2]
3000a7d0:	e3a0244d 	mov	r2, #1291845632	; 0x4d000000
3000a7d4:	e2822008 	add	r2, r2, #8	; 0x8
3000a7d8:	e51b3014 	ldr	r3, [fp, #-20]
3000a7dc:	e593302c 	ldr	r3, [r3, #44]
3000a7e0:	e2433001 	sub	r3, r3, #1	; 0x1
3000a7e4:	e1a01983 	mov	r1, r3, lsl #19
3000a7e8:	e51b3014 	ldr	r3, [fp, #-20]
3000a7ec:	e5933038 	ldr	r3, [r3, #56]
3000a7f0:	e2433001 	sub	r3, r3, #1	; 0x1
3000a7f4:	e1a03403 	mov	r3, r3, lsl #8
3000a7f8:	e1811003 	orr	r1, r1, r3
3000a7fc:	e51b3014 	ldr	r3, [fp, #-20]
3000a800:	e5933030 	ldr	r3, [r3, #48]
3000a804:	e2433001 	sub	r3, r3, #1	; 0x1
3000a808:	e1813003 	orr	r3, r1, r3
3000a80c:	e5823000 	str	r3, [r2]
3000a810:	e59f01a4 	ldr	r0, [pc, #420]	; 3000a9bc <.text+0x29fc>
3000a814:	ebfffba1 	bl	300096a0 <puts>
3000a818:	e3a0244d 	mov	r2, #1291845632	; 0x4d000000
3000a81c:	e282200c 	add	r2, r2, #12	; 0xc
3000a820:	e51b3014 	ldr	r3, [fp, #-20]
3000a824:	e5933028 	ldr	r3, [r3, #40]
3000a828:	e2433001 	sub	r3, r3, #1	; 0x1
3000a82c:	e5823000 	str	r3, [r2]
3000a830:	e51b3014 	ldr	r3, [fp, #-20]
3000a834:	e5933040 	ldr	r3, [r3, #64]
3000a838:	e3530020 	cmp	r3, #32	; 0x20
3000a83c:	0a000009 	beq	3000a868 <s3c2440_lcd_controller_init+0x214>
3000a840:	e51b3014 	ldr	r3, [fp, #-20]
3000a844:	e5933040 	ldr	r3, [r3, #64]
3000a848:	e3530010 	cmp	r3, #16	; 0x10
3000a84c:	1a000002 	bne	3000a85c <s3c2440_lcd_controller_init+0x208>
3000a850:	e3a03001 	mov	r3, #1	; 0x1
3000a854:	e50b302c 	str	r3, [fp, #-44]
3000a858:	ea000004 	b	3000a870 <s3c2440_lcd_controller_init+0x21c>
3000a85c:	e3a03002 	mov	r3, #2	; 0x2
3000a860:	e50b302c 	str	r3, [fp, #-44]
3000a864:	ea000001 	b	3000a870 <s3c2440_lcd_controller_init+0x21c>
3000a868:	e3a03000 	mov	r3, #0	; 0x0
3000a86c:	e50b302c 	str	r3, [fp, #-44]
3000a870:	e51b302c 	ldr	r3, [fp, #-44]
3000a874:	e50b3018 	str	r3, [fp, #-24]
3000a878:	e3a0144d 	mov	r1, #1291845632	; 0x4d000000
3000a87c:	e2811010 	add	r1, r1, #16	; 0x10
3000a880:	e51b3014 	ldr	r3, [fp, #-20]
3000a884:	e593300c 	ldr	r3, [r3, #12]
3000a888:	e1a02503 	mov	r2, r3, lsl #10
3000a88c:	e51b3014 	ldr	r3, [fp, #-20]
3000a890:	e5933010 	ldr	r3, [r3, #16]
3000a894:	e1a03383 	mov	r3, r3, lsl #7
3000a898:	e1822003 	orr	r2, r2, r3
3000a89c:	e51b3014 	ldr	r3, [fp, #-20]
3000a8a0:	e5933014 	ldr	r3, [r3, #20]
3000a8a4:	e1a03483 	mov	r3, r3, lsl #9
3000a8a8:	e1822003 	orr	r2, r2, r3
3000a8ac:	e51b3014 	ldr	r3, [fp, #-20]
3000a8b0:	e5933018 	ldr	r3, [r3, #24]
3000a8b4:	e1a03403 	mov	r3, r3, lsl #8
3000a8b8:	e1822003 	orr	r2, r2, r3
3000a8bc:	e51b3014 	ldr	r3, [fp, #-20]
3000a8c0:	e5933004 	ldr	r3, [r3, #4]
3000a8c4:	e1a03303 	mov	r3, r3, lsl #6
3000a8c8:	e1822003 	orr	r2, r2, r3
3000a8cc:	e51b3014 	ldr	r3, [fp, #-20]
3000a8d0:	e5933008 	ldr	r3, [r3, #8]
3000a8d4:	e1a03283 	mov	r3, r3, lsl #5
3000a8d8:	e1822003 	orr	r2, r2, r3
3000a8dc:	e51b3018 	ldr	r3, [fp, #-24]
3000a8e0:	e1823003 	orr	r3, r2, r3
3000a8e4:	e3833b02 	orr	r3, r3, #2048	; 0x800
3000a8e8:	e5813000 	str	r3, [r1]
3000a8ec:	e59f00cc 	ldr	r0, [pc, #204]	; 3000a9c0 <.text+0x2a00>
3000a8f0:	ebfffb6a 	bl	300096a0 <puts>
3000a8f4:	e51b3014 	ldr	r3, [fp, #-20]
3000a8f8:	e5933044 	ldr	r3, [r3, #68]
3000a8fc:	e3c33102 	bic	r3, r3, #-2147483648	; 0x80000000
3000a900:	e50b301c 	str	r3, [fp, #-28]
3000a904:	e3a0344d 	mov	r3, #1291845632	; 0x4d000000
3000a908:	e2833014 	add	r3, r3, #20	; 0x14
3000a90c:	e51b201c 	ldr	r2, [fp, #-28]
3000a910:	e1a020a2 	mov	r2, r2, lsr #1
3000a914:	e5832000 	str	r2, [r3]
3000a918:	e51b0014 	ldr	r0, [fp, #-20]
3000a91c:	e51b3014 	ldr	r3, [fp, #-20]
3000a920:	e51b2014 	ldr	r2, [fp, #-20]
3000a924:	e5931038 	ldr	r1, [r3, #56]
3000a928:	e592303c 	ldr	r3, [r2, #60]
3000a92c:	e0020193 	mul	r2, r3, r1
3000a930:	e51b3014 	ldr	r3, [fp, #-20]
3000a934:	e5933040 	ldr	r3, [r3, #64]
3000a938:	e0020293 	mul	r2, r3, r2
3000a93c:	e1a03fc2 	mov	r3, r2, asr #31
3000a940:	e1a03ea3 	mov	r3, r3, lsr #29
3000a944:	e0823003 	add	r3, r2, r3
3000a948:	e1a021c3 	mov	r2, r3, asr #3
3000a94c:	e5903044 	ldr	r3, [r0, #68]
3000a950:	e0833002 	add	r3, r3, r2
3000a954:	e50b301c 	str	r3, [fp, #-28]
3000a958:	e51b301c 	ldr	r3, [fp, #-28]
3000a95c:	e1a030a3 	mov	r3, r3, lsr #1
3000a960:	e50b301c 	str	r3, [fp, #-28]
3000a964:	e51b301c 	ldr	r3, [fp, #-28]
3000a968:	e3c334ff 	bic	r3, r3, #-16777216	; 0xff000000
3000a96c:	e3c3360e 	bic	r3, r3, #14680064	; 0xe00000
3000a970:	e50b301c 	str	r3, [fp, #-28]
3000a974:	e3a0344d 	mov	r3, #1291845632	; 0x4d000000
3000a978:	e2833018 	add	r3, r3, #24	; 0x18
3000a97c:	e51b201c 	ldr	r2, [fp, #-28]
3000a980:	e5832000 	str	r2, [r3]
3000a984:	e59f0038 	ldr	r0, [pc, #56]	; 3000a9c4 <.text+0x2a04>
3000a988:	ebfffb44 	bl	300096a0 <puts>
3000a98c:	e24bd010 	sub	sp, fp, #16	; 0x10
3000a990:	e89da810 	ldmia	sp, {r4, fp, sp, pc}
3000a994:	3fe00000 	swicc	0x00e00000
3000a998:	00000000 	andeq	r0, r0, r0
3000a99c:	3000e9a0 	andcc	lr, r0, r0, lsr #19
3000a9a0:	3000e9b8 	strcch	lr, [r0], -r8
3000a9a4:	42c80000 	sbcmi	r0, r8, #0	; 0x0
3000a9a8:	40000000 	andmi	r0, r0, r0
3000a9ac:	3f800000 	swicc	0x00800000
3000a9b0:	3000e9d4 	ldrccd	lr, [r0], -r4
3000a9b4:	3000e9e0 	andcc	lr, r0, r0, ror #19
3000a9b8:	3000e9f0 	strccd	lr, [r0], -r0
3000a9bc:	3000ea18 	andcc	lr, r0, r8, lsl sl
3000a9c0:	3000ea40 	andcc	lr, r0, r0, asr #20
3000a9c4:	3000ea68 	andcc	lr, r0, r8, ror #20

3000a9c8 <s3c2440_lcd_controller_enalbe>:
3000a9c8:	e1a0c00d 	mov	ip, sp
3000a9cc:	e92dd800 	stmdb	sp!, {fp, ip, lr, pc}
3000a9d0:	e24cb004 	sub	fp, ip, #4	; 0x4
3000a9d4:	e3a02456 	mov	r2, #1442840576	; 0x56000000
3000a9d8:	e2822014 	add	r2, r2, #20	; 0x14
3000a9dc:	e3a03456 	mov	r3, #1442840576	; 0x56000000
3000a9e0:	e2833014 	add	r3, r3, #20	; 0x14
3000a9e4:	e5933000 	ldr	r3, [r3]
3000a9e8:	e3833001 	orr	r3, r3, #1	; 0x1
3000a9ec:	e5823000 	str	r3, [r2]
3000a9f0:	e3a0244d 	mov	r2, #1291845632	; 0x4d000000
3000a9f4:	e2822010 	add	r2, r2, #16	; 0x10
3000a9f8:	e3a0344d 	mov	r3, #1291845632	; 0x4d000000
3000a9fc:	e2833010 	add	r3, r3, #16	; 0x10
3000aa00:	e5933000 	ldr	r3, [r3]
3000aa04:	e3833008 	orr	r3, r3, #8	; 0x8
3000aa08:	e5823000 	str	r3, [r2]
3000aa0c:	e3a0244d 	mov	r2, #1291845632	; 0x4d000000
3000aa10:	e3a0344d 	mov	r3, #1291845632	; 0x4d000000
3000aa14:	e5933000 	ldr	r3, [r3]
3000aa18:	e3833001 	orr	r3, r3, #1	; 0x1
3000aa1c:	e5823000 	str	r3, [r2]
3000aa20:	e89da800 	ldmia	sp, {fp, sp, pc}

3000aa24 <s3c2440_lcd_controller_disable>:
3000aa24:	e1a0c00d 	mov	ip, sp
3000aa28:	e92dd800 	stmdb	sp!, {fp, ip, lr, pc}
3000aa2c:	e24cb004 	sub	fp, ip, #4	; 0x4
3000aa30:	e3a02456 	mov	r2, #1442840576	; 0x56000000
3000aa34:	e2822014 	add	r2, r2, #20	; 0x14
3000aa38:	e3a03456 	mov	r3, #1442840576	; 0x56000000
3000aa3c:	e2833014 	add	r3, r3, #20	; 0x14
3000aa40:	e5933000 	ldr	r3, [r3]
3000aa44:	e3c33001 	bic	r3, r3, #1	; 0x1
3000aa48:	e5823000 	str	r3, [r2]
3000aa4c:	e3a0244d 	mov	r2, #1291845632	; 0x4d000000
3000aa50:	e2822010 	add	r2, r2, #16	; 0x10
3000aa54:	e3a0344d 	mov	r3, #1291845632	; 0x4d000000
3000aa58:	e2833010 	add	r3, r3, #16	; 0x10
3000aa5c:	e5933000 	ldr	r3, [r3]
3000aa60:	e3c33008 	bic	r3, r3, #8	; 0x8
3000aa64:	e5823000 	str	r3, [r2]
3000aa68:	e3a0244d 	mov	r2, #1291845632	; 0x4d000000
3000aa6c:	e3a0344d 	mov	r3, #1291845632	; 0x4d000000
3000aa70:	e5933000 	ldr	r3, [r3]
3000aa74:	e3c33001 	bic	r3, r3, #1	; 0x1
3000aa78:	e5823000 	str	r3, [r2]
3000aa7c:	e89da800 	ldmia	sp, {fp, sp, pc}

3000aa80 <s3c2440_lcd_controller_init_palette>:
3000aa80:	e1a0c00d 	mov	ip, sp
3000aa84:	e92dd800 	stmdb	sp!, {fp, ip, lr, pc}
3000aa88:	e24cb004 	sub	fp, ip, #4	; 0x4
3000aa8c:	e24dd00c 	sub	sp, sp, #12	; 0xc
3000aa90:	e3a0344d 	mov	r3, #1291845632	; 0x4d000000
3000aa94:	e2833b01 	add	r3, r3, #1024	; 0x400
3000aa98:	e50b3010 	str	r3, [fp, #-16]
3000aa9c:	e3a0344d 	mov	r3, #1291845632	; 0x4d000000
3000aaa0:	e5933000 	ldr	r3, [r3]
3000aaa4:	e2033001 	and	r3, r3, #1	; 0x1
3000aaa8:	e50b3018 	str	r3, [fp, #-24]
3000aaac:	e51b3018 	ldr	r3, [fp, #-24]
3000aab0:	e3530000 	cmp	r3, #0	; 0x0
3000aab4:	0a000004 	beq	3000aacc <s3c2440_lcd_controller_init_palette+0x4c>
3000aab8:	e3a0244d 	mov	r2, #1291845632	; 0x4d000000
3000aabc:	e3a0344d 	mov	r3, #1291845632	; 0x4d000000
3000aac0:	e5933000 	ldr	r3, [r3]
3000aac4:	e3c33001 	bic	r3, r3, #1	; 0x1
3000aac8:	e5823000 	str	r3, [r2]
3000aacc:	e3a03000 	mov	r3, #0	; 0x0
3000aad0:	e50b3014 	str	r3, [fp, #-20]
3000aad4:	e51b3014 	ldr	r3, [fp, #-20]
3000aad8:	e35300ff 	cmp	r3, #255	; 0xff
3000aadc:	ca00000a 	bgt	3000ab0c <s3c2440_lcd_controller_init_palette+0x8c>
3000aae0:	e24b0010 	sub	r0, fp, #16	; 0x10
3000aae4:	e5903000 	ldr	r3, [r0]
3000aae8:	e1a01003 	mov	r1, r3
3000aaec:	e51b2014 	ldr	r2, [fp, #-20]
3000aaf0:	e5812000 	str	r2, [r1]
3000aaf4:	e2833004 	add	r3, r3, #4	; 0x4
3000aaf8:	e5803000 	str	r3, [r0]
3000aafc:	e51b3014 	ldr	r3, [fp, #-20]
3000ab00:	e2833001 	add	r3, r3, #1	; 0x1
3000ab04:	e50b3014 	str	r3, [fp, #-20]
3000ab08:	eafffff1 	b	3000aad4 <s3c2440_lcd_controller_init_palette+0x54>
3000ab0c:	e51b3018 	ldr	r3, [fp, #-24]
3000ab10:	e3530000 	cmp	r3, #0	; 0x0
3000ab14:	0a000004 	beq	3000ab2c <s3c2440_lcd_controller_init_palette+0xac>
3000ab18:	e3a0244d 	mov	r2, #1291845632	; 0x4d000000
3000ab1c:	e3a0344d 	mov	r3, #1291845632	; 0x4d000000
3000ab20:	e5933000 	ldr	r3, [r3]
3000ab24:	e3833001 	orr	r3, r3, #1	; 0x1
3000ab28:	e5823000 	str	r3, [r2]
3000ab2c:	e24bd00c 	sub	sp, fp, #12	; 0xc
3000ab30:	e89da800 	ldmia	sp, {fp, sp, pc}

3000ab34 <s3c2440_lcd_contoller_add>:
3000ab34:	e1a0c00d 	mov	ip, sp
3000ab38:	e92dd800 	stmdb	sp!, {fp, ip, lr, pc}
3000ab3c:	e24cb004 	sub	fp, ip, #4	; 0x4
3000ab40:	e59f0004 	ldr	r0, [pc, #4]	; 3000ab4c <.text+0x2b8c>
3000ab44:	ebfffc6b 	bl	30009cf8 <register_lcd_controller>
3000ab48:	e89da800 	ldmia	sp, {fp, sp, pc}
3000ab4c:	3000ffa4 	andcc	pc, r0, r4, lsr #31

3000ab50 <dalay>:
3000ab50:	e1a0c00d 	mov	ip, sp
3000ab54:	e92dd800 	stmdb	sp!, {fp, ip, lr, pc}
3000ab58:	e24cb004 	sub	fp, ip, #4	; 0x4
3000ab5c:	e24dd004 	sub	sp, sp, #4	; 0x4
3000ab60:	e50b0010 	str	r0, [fp, #-16]
3000ab64:	e51b3010 	ldr	r3, [fp, #-16]
3000ab68:	e2433001 	sub	r3, r3, #1	; 0x1
3000ab6c:	e50b3010 	str	r3, [fp, #-16]
3000ab70:	e3730001 	cmn	r3, #1	; 0x1
3000ab74:	0a000000 	beq	3000ab7c <dalay+0x2c>
3000ab78:	eafffff9 	b	3000ab64 <dalay+0x14>
3000ab7c:	e89da808 	ldmia	sp, {r3, fp, sp, pc}

3000ab80 <led_init>:
3000ab80:	e1a0c00d 	mov	ip, sp
3000ab84:	e92dd800 	stmdb	sp!, {fp, ip, lr, pc}
3000ab88:	e24cb004 	sub	fp, ip, #4	; 0x4
3000ab8c:	e3a02456 	mov	r2, #1442840576	; 0x56000000
3000ab90:	e2822050 	add	r2, r2, #80	; 0x50
3000ab94:	e3a03456 	mov	r3, #1442840576	; 0x56000000
3000ab98:	e2833050 	add	r3, r3, #80	; 0x50
3000ab9c:	e5933000 	ldr	r3, [r3]
3000aba0:	e3c33c3f 	bic	r3, r3, #16128	; 0x3f00
3000aba4:	e5823000 	str	r3, [r2]
3000aba8:	e3a02456 	mov	r2, #1442840576	; 0x56000000
3000abac:	e2822050 	add	r2, r2, #80	; 0x50
3000abb0:	e3a03456 	mov	r3, #1442840576	; 0x56000000
3000abb4:	e2833050 	add	r3, r3, #80	; 0x50
3000abb8:	e5933000 	ldr	r3, [r3]
3000abbc:	e3833c15 	orr	r3, r3, #5376	; 0x1500
3000abc0:	e5823000 	str	r3, [r2]
3000abc4:	e89da800 	ldmia	sp, {fp, sp, pc}

3000abc8 <led_test>:
3000abc8:	e1a0c00d 	mov	ip, sp
3000abcc:	e92dd800 	stmdb	sp!, {fp, ip, lr, pc}
3000abd0:	e24cb004 	sub	fp, ip, #4	; 0x4
3000abd4:	e24dd008 	sub	sp, sp, #8	; 0x8
3000abd8:	e3a03456 	mov	r3, #1442840576	; 0x56000000
3000abdc:	e2833054 	add	r3, r3, #84	; 0x54
3000abe0:	e50b3010 	str	r3, [fp, #-16]
3000abe4:	e3a03000 	mov	r3, #0	; 0x0
3000abe8:	e50b3014 	str	r3, [fp, #-20]
3000abec:	e51b2010 	ldr	r2, [fp, #-16]
3000abf0:	e51b3010 	ldr	r3, [fp, #-16]
3000abf4:	e5933000 	ldr	r3, [r3]
3000abf8:	e3c33070 	bic	r3, r3, #112	; 0x70
3000abfc:	e5823000 	str	r3, [r2]
3000ac00:	e51b0010 	ldr	r0, [fp, #-16]
3000ac04:	e51b1010 	ldr	r1, [fp, #-16]
3000ac08:	e51b3014 	ldr	r3, [fp, #-20]
3000ac0c:	e1a02203 	mov	r2, r3, lsl #4
3000ac10:	e5913000 	ldr	r3, [r1]
3000ac14:	e1833002 	orr	r3, r3, r2
3000ac18:	e5803000 	str	r3, [r0]
3000ac1c:	e51b3014 	ldr	r3, [fp, #-20]
3000ac20:	e2833001 	add	r3, r3, #1	; 0x1
3000ac24:	e50b3014 	str	r3, [fp, #-20]
3000ac28:	e51b3014 	ldr	r3, [fp, #-20]
3000ac2c:	e3530008 	cmp	r3, #8	; 0x8
3000ac30:	1a000001 	bne	3000ac3c <led_test+0x74>
3000ac34:	e3a03000 	mov	r3, #0	; 0x0
3000ac38:	e50b3014 	str	r3, [fp, #-20]
3000ac3c:	e3a00b61 	mov	r0, #99328	; 0x18400
3000ac40:	e2800e2a 	add	r0, r0, #672	; 0x2a0
3000ac44:	ebffffc1 	bl	3000ab50 <dalay>
3000ac48:	eaffffe7 	b	3000abec <led_test+0x24>

3000ac4c <font_init>:
3000ac4c:	e1a0c00d 	mov	ip, sp
3000ac50:	e92dd800 	stmdb	sp!, {fp, ip, lr, pc}
3000ac54:	e24cb004 	sub	fp, ip, #4	; 0x4
3000ac58:	e59f0010 	ldr	r0, [pc, #16]	; 3000ac70 <.text+0x2cb0>
3000ac5c:	e59f1010 	ldr	r1, [pc, #16]	; 3000ac74 <.text+0x2cb4>
3000ac60:	e59f2010 	ldr	r2, [pc, #16]	; 3000ac78 <.text+0x2cb8>
3000ac64:	e59f3010 	ldr	r3, [pc, #16]	; 3000ac7c <.text+0x2cbc>
3000ac68:	ebfffbcf 	bl	30009bac <get_lcd_params>
3000ac6c:	e89da800 	ldmia	sp, {fp, sp, pc}
3000ac70:	3001008c 	andcc	r0, r1, ip, lsl #1
3000ac74:	30010090 	mulcc	r1, r0, r0
3000ac78:	30010094 	mulcc	r1, r4, r0
3000ac7c:	30010098 	mulcc	r1, r8, r0

3000ac80 <fb_print_char>:
3000ac80:	e1a0c00d 	mov	ip, sp
3000ac84:	e92dd800 	stmdb	sp!, {fp, ip, lr, pc}
3000ac88:	e24cb004 	sub	fp, ip, #4	; 0x4
3000ac8c:	e24dd024 	sub	sp, sp, #36	; 0x24
3000ac90:	e50b0010 	str	r0, [fp, #-16]
3000ac94:	e50b1014 	str	r1, [fp, #-20]
3000ac98:	e50b301c 	str	r3, [fp, #-28]
3000ac9c:	e1a03002 	mov	r3, r2
3000aca0:	e54b3015 	strb	r3, [fp, #-21]
3000aca4:	e55b3015 	ldrb	r3, [fp, #-21]
3000aca8:	e1a02203 	mov	r2, r3, lsl #4
3000acac:	e59f30b8 	ldr	r3, [pc, #184]	; 3000ad6c <.text+0x2dac>
3000acb0:	e0823003 	add	r3, r2, r3
3000acb4:	e50b3028 	str	r3, [fp, #-40]
3000acb8:	e51b3014 	ldr	r3, [fp, #-20]
3000acbc:	e50b3024 	str	r3, [fp, #-36]
3000acc0:	e51b3014 	ldr	r3, [fp, #-20]
3000acc4:	e2832010 	add	r2, r3, #16	; 0x10
3000acc8:	e51b3024 	ldr	r3, [fp, #-36]
3000accc:	e1520003 	cmp	r2, r3
3000acd0:	da000023 	ble	3000ad64 <fb_print_char+0xe4>
3000acd4:	e24b2028 	sub	r2, fp, #40	; 0x28
3000acd8:	e5923000 	ldr	r3, [r2]
3000acdc:	e5d31000 	ldrb	r1, [r3]
3000ace0:	e2833001 	add	r3, r3, #1	; 0x1
3000ace4:	e5823000 	str	r3, [r2]
3000ace8:	e54b1029 	strb	r1, [fp, #-41]
3000acec:	e3a03007 	mov	r3, #7	; 0x7
3000acf0:	e50b3030 	str	r3, [fp, #-48]
3000acf4:	e51b3010 	ldr	r3, [fp, #-16]
3000acf8:	e50b3020 	str	r3, [fp, #-32]
3000acfc:	e51b3010 	ldr	r3, [fp, #-16]
3000ad00:	e2832008 	add	r2, r3, #8	; 0x8
3000ad04:	e51b3020 	ldr	r3, [fp, #-32]
3000ad08:	e1520003 	cmp	r2, r3
3000ad0c:	da000010 	ble	3000ad54 <fb_print_char+0xd4>
3000ad10:	e55b2029 	ldrb	r2, [fp, #-41]
3000ad14:	e51b3030 	ldr	r3, [fp, #-48]
3000ad18:	e1a03352 	mov	r3, r2, asr r3
3000ad1c:	e2033001 	and	r3, r3, #1	; 0x1
3000ad20:	e3530000 	cmp	r3, #0	; 0x0
3000ad24:	0a000003 	beq	3000ad38 <fb_print_char+0xb8>
3000ad28:	e51b0020 	ldr	r0, [fp, #-32]
3000ad2c:	e51b1024 	ldr	r1, [fp, #-36]
3000ad30:	e51b201c 	ldr	r2, [fp, #-28]
3000ad34:	ebfffb07 	bl	30009958 <fb_put_pixel>
3000ad38:	e51b3030 	ldr	r3, [fp, #-48]
3000ad3c:	e2433001 	sub	r3, r3, #1	; 0x1
3000ad40:	e50b3030 	str	r3, [fp, #-48]
3000ad44:	e51b3020 	ldr	r3, [fp, #-32]
3000ad48:	e2833001 	add	r3, r3, #1	; 0x1
3000ad4c:	e50b3020 	str	r3, [fp, #-32]
3000ad50:	eaffffe9 	b	3000acfc <fb_print_char+0x7c>
3000ad54:	e51b3024 	ldr	r3, [fp, #-36]
3000ad58:	e2833001 	add	r3, r3, #1	; 0x1
3000ad5c:	e50b3024 	str	r3, [fp, #-36]
3000ad60:	eaffffd6 	b	3000acc0 <fb_print_char+0x40>
3000ad64:	e24bd00c 	sub	sp, fp, #12	; 0xc
3000ad68:	e89da800 	ldmia	sp, {fp, sp, pc}
3000ad6c:	3000ea94 	mulcc	r0, r4, sl

3000ad70 <fb_print_string>:
3000ad70:	e1a0c00d 	mov	ip, sp
3000ad74:	e92dd800 	stmdb	sp!, {fp, ip, lr, pc}
3000ad78:	e24cb004 	sub	fp, ip, #4	; 0x4
3000ad7c:	e24dd018 	sub	sp, sp, #24	; 0x18
3000ad80:	e50b0010 	str	r0, [fp, #-16]
3000ad84:	e50b1014 	str	r1, [fp, #-20]
3000ad88:	e50b2018 	str	r2, [fp, #-24]
3000ad8c:	e50b301c 	str	r3, [fp, #-28]
3000ad90:	e3a03000 	mov	r3, #0	; 0x0
3000ad94:	e50b3020 	str	r3, [fp, #-32]
3000ad98:	e51b2018 	ldr	r2, [fp, #-24]
3000ad9c:	e51b3020 	ldr	r3, [fp, #-32]
3000ada0:	e0823003 	add	r3, r2, r3
3000ada4:	e5d33000 	ldrb	r3, [r3]
3000ada8:	e3530000 	cmp	r3, #0	; 0x0
3000adac:	0a00002c 	beq	3000ae64 <fb_print_string+0xf4>
3000adb0:	e51b2018 	ldr	r2, [fp, #-24]
3000adb4:	e51b3020 	ldr	r3, [fp, #-32]
3000adb8:	e0823003 	add	r3, r2, r3
3000adbc:	e5d33000 	ldrb	r3, [r3]
3000adc0:	e353000a 	cmp	r3, #10	; 0xa
3000adc4:	1a000003 	bne	3000add8 <fb_print_string+0x68>
3000adc8:	e51b3014 	ldr	r3, [fp, #-20]
3000adcc:	e2833010 	add	r3, r3, #16	; 0x10
3000add0:	e50b3014 	str	r3, [fp, #-20]
3000add4:	ea00001e 	b	3000ae54 <fb_print_string+0xe4>
3000add8:	e51b2018 	ldr	r2, [fp, #-24]
3000addc:	e51b3020 	ldr	r3, [fp, #-32]
3000ade0:	e0823003 	add	r3, r2, r3
3000ade4:	e5d33000 	ldrb	r3, [r3]
3000ade8:	e353000d 	cmp	r3, #13	; 0xd
3000adec:	1a000002 	bne	3000adfc <fb_print_string+0x8c>
3000adf0:	e3a03000 	mov	r3, #0	; 0x0
3000adf4:	e50b3010 	str	r3, [fp, #-16]
3000adf8:	ea000015 	b	3000ae54 <fb_print_string+0xe4>
3000adfc:	e51b2018 	ldr	r2, [fp, #-24]
3000ae00:	e51b3020 	ldr	r3, [fp, #-32]
3000ae04:	e0823003 	add	r3, r2, r3
3000ae08:	e5d33000 	ldrb	r3, [r3]
3000ae0c:	e51b0010 	ldr	r0, [fp, #-16]
3000ae10:	e51b1014 	ldr	r1, [fp, #-20]
3000ae14:	e1a02003 	mov	r2, r3
3000ae18:	e51b301c 	ldr	r3, [fp, #-28]
3000ae1c:	ebffff97 	bl	3000ac80 <fb_print_char>
3000ae20:	e51b3010 	ldr	r3, [fp, #-16]
3000ae24:	e2833008 	add	r3, r3, #8	; 0x8
3000ae28:	e50b3010 	str	r3, [fp, #-16]
3000ae2c:	e59f3038 	ldr	r3, [pc, #56]	; 3000ae6c <.text+0x2eac>
3000ae30:	e51b2010 	ldr	r2, [fp, #-16]
3000ae34:	e5933000 	ldr	r3, [r3]
3000ae38:	e1520003 	cmp	r2, r3
3000ae3c:	ba000004 	blt	3000ae54 <fb_print_string+0xe4>
3000ae40:	e3a03000 	mov	r3, #0	; 0x0
3000ae44:	e50b3010 	str	r3, [fp, #-16]
3000ae48:	e51b3014 	ldr	r3, [fp, #-20]
3000ae4c:	e2833010 	add	r3, r3, #16	; 0x10
3000ae50:	e50b3014 	str	r3, [fp, #-20]
3000ae54:	e51b3020 	ldr	r3, [fp, #-32]
3000ae58:	e2833001 	add	r3, r3, #1	; 0x1
3000ae5c:	e50b3020 	str	r3, [fp, #-32]
3000ae60:	eaffffcc 	b	3000ad98 <fb_print_string+0x28>
3000ae64:	e24bd00c 	sub	sp, fp, #12	; 0xc
3000ae68:	e89da800 	ldmia	sp, {fp, sp, pc}
3000ae6c:	30010090 	mulcc	r1, r0, r0

3000ae70 <setdebug>:
3000ae70:	e1a0c00d 	mov	ip, sp
3000ae74:	e92dd800 	stmdb	sp!, {fp, ip, lr, pc}
3000ae78:	e24cb004 	sub	fp, ip, #4	; 0x4
3000ae7c:	e24dd004 	sub	sp, sp, #4	; 0x4
3000ae80:	e1a03000 	mov	r3, r0
3000ae84:	e54b300d 	strb	r3, [fp, #-13]
3000ae88:	e59f2008 	ldr	r2, [pc, #8]	; 3000ae98 <.text+0x2ed8>
3000ae8c:	e55b300d 	ldrb	r3, [fp, #-13]
3000ae90:	e5c23000 	strb	r3, [r2]
3000ae94:	e89da808 	ldmia	sp, {r3, fp, sp, pc}
3000ae98:	3001009c 	mulcc	r1, ip, r0

3000ae9c <getdebug>:
3000ae9c:	e1a0c00d 	mov	ip, sp
3000aea0:	e92dd800 	stmdb	sp!, {fp, ip, lr, pc}
3000aea4:	e24cb004 	sub	fp, ip, #4	; 0x4
3000aea8:	e59f3008 	ldr	r3, [pc, #8]	; 3000aeb8 <.text+0x2ef8>
3000aeac:	e5d33000 	ldrb	r3, [r3]
3000aeb0:	e1a00003 	mov	r0, r3
3000aeb4:	e89da800 	ldmia	sp, {fp, sp, pc}
3000aeb8:	3001009c 	mulcc	r1, ip, r0

3000aebc <debug>:
3000aebc:	e1a0c00d 	mov	ip, sp
3000aec0:	e92d000f 	stmdb	sp!, {r0, r1, r2, r3}
3000aec4:	e92dd800 	stmdb	sp!, {fp, ip, lr, pc}
3000aec8:	e24cb014 	sub	fp, ip, #20	; 0x14
3000aecc:	e24dd004 	sub	sp, sp, #4	; 0x4
3000aed0:	e59f3038 	ldr	r3, [pc, #56]	; 3000af10 <.text+0x2f50>
3000aed4:	e5d33000 	ldrb	r3, [r3]
3000aed8:	e3530000 	cmp	r3, #0	; 0x0
3000aedc:	1a000000 	bne	3000aee4 <debug+0x28>
3000aee0:	ea000008 	b	3000af08 <debug+0x4c>
3000aee4:	ebfff98a 	bl	30009514 <Enter_Critical>
3000aee8:	e28b3008 	add	r3, fp, #8	; 0x8
3000aeec:	e50b3010 	str	r3, [fp, #-16]
3000aef0:	e59b0004 	ldr	r0, [fp, #4]
3000aef4:	e51b1010 	ldr	r1, [fp, #-16]
3000aef8:	eb000281 	bl	3000b904 <my_vprintf>
3000aefc:	e3a03000 	mov	r3, #0	; 0x0
3000af00:	e50b3010 	str	r3, [fp, #-16]
3000af04:	ebfff96f 	bl	300094c8 <Exit_Critical>
3000af08:	e24bd00c 	sub	sp, fp, #12	; 0xc
3000af0c:	e89da800 	ldmia	sp, {fp, sp, pc}
3000af10:	3001009c 	mulcc	r1, ip, r0

3000af14 <core_init>:
3000af14:	e1a0c00d 	mov	ip, sp
3000af18:	e92dd800 	stmdb	sp!, {fp, ip, lr, pc}
3000af1c:	e24cb004 	sub	fp, ip, #4	; 0x4
3000af20:	e59f0030 	ldr	r0, [pc, #48]	; 3000af58 <.text+0x2f98>
3000af24:	ebfff9dd 	bl	300096a0 <puts>
3000af28:	e3a00000 	mov	r0, #0	; 0x0
3000af2c:	ebffffcf 	bl	3000ae70 <setdebug>
3000af30:	e59f0024 	ldr	r0, [pc, #36]	; 3000af5c <.text+0x2f9c>
3000af34:	ebfff9d9 	bl	300096a0 <puts>
3000af38:	e59f0020 	ldr	r0, [pc, #32]	; 3000af60 <.text+0x2fa0>
3000af3c:	e3a01000 	mov	r1, #0	; 0x0
3000af40:	e3a0201f 	mov	r2, #31	; 0x1f
3000af44:	e3a03a01 	mov	r3, #4096	; 0x1000
3000af48:	eb000624 	bl	3000c7e0 <creat_task>
3000af4c:	e59f0010 	ldr	r0, [pc, #16]	; 3000af64 <.text+0x2fa4>
3000af50:	ebfff9d2 	bl	300096a0 <puts>
3000af54:	e89da800 	ldmia	sp, {fp, sp, pc}
3000af58:	3000fa94 	mulcc	r0, r4, sl
3000af5c:	3000faa8 	andcc	pc, r0, r8, lsr #21
3000af60:	3000c134 	andcc	ip, r0, r4, lsr r1
3000af64:	3000fabc 	strcch	pc, [r0], -ip

3000af68 <initheap>:
3000af68:	e1a0c00d 	mov	ip, sp
3000af6c:	e92dd800 	stmdb	sp!, {fp, ip, lr, pc}
3000af70:	e24cb004 	sub	fp, ip, #4	; 0x4
3000af74:	e24dd00c 	sub	sp, sp, #12	; 0xc
3000af78:	ebfff829 	bl	30009024 <get_bss_end>
3000af7c:	e50b0010 	str	r0, [fp, #-16]
3000af80:	e3a035cf 	mov	r3, #868220928	; 0x33c00000
3000af84:	e283370e 	add	r3, r3, #3670016	; 0x380000
3000af88:	e50b3014 	str	r3, [fp, #-20]
3000af8c:	e51b3010 	ldr	r3, [fp, #-16]
3000af90:	e50b3018 	str	r3, [fp, #-24]
3000af94:	e51b2018 	ldr	r2, [fp, #-24]
3000af98:	e3a03000 	mov	r3, #0	; 0x0
3000af9c:	e5823004 	str	r3, [r2, #4]
3000afa0:	e51b1018 	ldr	r1, [fp, #-24]
3000afa4:	e51b2014 	ldr	r2, [fp, #-20]
3000afa8:	e51b3010 	ldr	r3, [fp, #-16]
3000afac:	e0633002 	rsb	r3, r3, r2
3000afb0:	e5813000 	str	r3, [r1]
3000afb4:	e59f2018 	ldr	r2, [pc, #24]	; 3000afd4 <.text+0x3014>
3000afb8:	e51b3018 	ldr	r3, [fp, #-24]
3000afbc:	e5823004 	str	r3, [r2, #4]
3000afc0:	e59f200c 	ldr	r2, [pc, #12]	; 3000afd4 <.text+0x3014>
3000afc4:	e3a03000 	mov	r3, #0	; 0x0
3000afc8:	e5823000 	str	r3, [r2]
3000afcc:	e24bd00c 	sub	sp, fp, #12	; 0xc
3000afd0:	e89da800 	ldmia	sp, {fp, sp, pc}
3000afd4:	300100a4 	andcc	r0, r1, r4, lsr #1

3000afd8 <New>:
3000afd8:	e1a0c00d 	mov	ip, sp
3000afdc:	e92dd800 	stmdb	sp!, {fp, ip, lr, pc}
3000afe0:	e24cb004 	sub	fp, ip, #4	; 0x4
3000afe4:	e24dd010 	sub	sp, sp, #16	; 0x10
3000afe8:	e50b0010 	str	r0, [fp, #-16]
3000afec:	ebfff948 	bl	30009514 <Enter_Critical>
3000aff0:	e3a03000 	mov	r3, #0	; 0x0
3000aff4:	e50b3014 	str	r3, [fp, #-20]
3000aff8:	e3a03000 	mov	r3, #0	; 0x0
3000affc:	e50b3018 	str	r3, [fp, #-24]
3000b000:	e59f314c 	ldr	r3, [pc, #332]	; 3000b154 <.text+0x3194>
3000b004:	e5d33000 	ldrb	r3, [r3]
3000b008:	e3530000 	cmp	r3, #0	; 0x0
3000b00c:	1a000003 	bne	3000b020 <New+0x48>
3000b010:	ebffffd4 	bl	3000af68 <initheap>
3000b014:	e59f3138 	ldr	r3, [pc, #312]	; 3000b154 <.text+0x3194>
3000b018:	e3a02001 	mov	r2, #1	; 0x1
3000b01c:	e5c32000 	strb	r2, [r3]
3000b020:	e51b3010 	ldr	r3, [fp, #-16]
3000b024:	e2833003 	add	r3, r3, #3	; 0x3
3000b028:	e3c33003 	bic	r3, r3, #3	; 0x3
3000b02c:	e50b3010 	str	r3, [fp, #-16]
3000b030:	e59f3120 	ldr	r3, [pc, #288]	; 3000b158 <.text+0x3198>
3000b034:	e50b3018 	str	r3, [fp, #-24]
3000b038:	e51b3018 	ldr	r3, [fp, #-24]
3000b03c:	e5933004 	ldr	r3, [r3, #4]
3000b040:	e3530000 	cmp	r3, #0	; 0x0
3000b044:	0a00000a 	beq	3000b074 <New+0x9c>
3000b048:	e51b3018 	ldr	r3, [fp, #-24]
3000b04c:	e5931004 	ldr	r1, [r3, #4]
3000b050:	e51b3010 	ldr	r3, [fp, #-16]
3000b054:	e2832008 	add	r2, r3, #8	; 0x8
3000b058:	e5913000 	ldr	r3, [r1]
3000b05c:	e1530002 	cmp	r3, r2
3000b060:	2a000003 	bcs	3000b074 <New+0x9c>
3000b064:	e51b3018 	ldr	r3, [fp, #-24]
3000b068:	e5933004 	ldr	r3, [r3, #4]
3000b06c:	e50b3018 	str	r3, [fp, #-24]
3000b070:	eafffff0 	b	3000b038 <New+0x60>
3000b074:	e51b3018 	ldr	r3, [fp, #-24]
3000b078:	e5933004 	ldr	r3, [r3, #4]
3000b07c:	e3530000 	cmp	r3, #0	; 0x0
3000b080:	1a000003 	bne	3000b094 <New+0xbc>
3000b084:	ebfff90f 	bl	300094c8 <Exit_Critical>
3000b088:	e3a03000 	mov	r3, #0	; 0x0
3000b08c:	e50b301c 	str	r3, [fp, #-28]
3000b090:	ea00002c 	b	3000b148 <New+0x170>
3000b094:	e51b3018 	ldr	r3, [fp, #-24]
3000b098:	e5933004 	ldr	r3, [r3, #4]
3000b09c:	e50b3014 	str	r3, [fp, #-20]
3000b0a0:	e51b3014 	ldr	r3, [fp, #-20]
3000b0a4:	e5932000 	ldr	r2, [r3]
3000b0a8:	e51b3010 	ldr	r3, [fp, #-16]
3000b0ac:	e0633002 	rsb	r3, r3, r2
3000b0b0:	e2433008 	sub	r3, r3, #8	; 0x8
3000b0b4:	e3530007 	cmp	r3, #7	; 0x7
3000b0b8:	9a000017 	bls	3000b11c <New+0x144>
3000b0bc:	e51b1018 	ldr	r1, [fp, #-24]
3000b0c0:	e51b2014 	ldr	r2, [fp, #-20]
3000b0c4:	e51b3010 	ldr	r3, [fp, #-16]
3000b0c8:	e0823003 	add	r3, r2, r3
3000b0cc:	e2833008 	add	r3, r3, #8	; 0x8
3000b0d0:	e5813004 	str	r3, [r1, #4]
3000b0d4:	e51b3018 	ldr	r3, [fp, #-24]
3000b0d8:	e5932004 	ldr	r2, [r3, #4]
3000b0dc:	e51b3014 	ldr	r3, [fp, #-20]
3000b0e0:	e5933004 	ldr	r3, [r3, #4]
3000b0e4:	e5823004 	str	r3, [r2, #4]
3000b0e8:	e51b3018 	ldr	r3, [fp, #-24]
3000b0ec:	e5931004 	ldr	r1, [r3, #4]
3000b0f0:	e51b3014 	ldr	r3, [fp, #-20]
3000b0f4:	e5932000 	ldr	r2, [r3]
3000b0f8:	e51b3010 	ldr	r3, [fp, #-16]
3000b0fc:	e0633002 	rsb	r3, r3, r2
3000b100:	e2433008 	sub	r3, r3, #8	; 0x8
3000b104:	e5813000 	str	r3, [r1]
3000b108:	e51b2014 	ldr	r2, [fp, #-20]
3000b10c:	e51b3010 	ldr	r3, [fp, #-16]
3000b110:	e2833008 	add	r3, r3, #8	; 0x8
3000b114:	e5823000 	str	r3, [r2]
3000b118:	ea000003 	b	3000b12c <New+0x154>
3000b11c:	e51b3018 	ldr	r3, [fp, #-24]
3000b120:	e51b2014 	ldr	r2, [fp, #-20]
3000b124:	e5922004 	ldr	r2, [r2, #4]
3000b128:	e5832004 	str	r2, [r3, #4]
3000b12c:	e51b2014 	ldr	r2, [fp, #-20]
3000b130:	e3a03000 	mov	r3, #0	; 0x0
3000b134:	e5823004 	str	r3, [r2, #4]
3000b138:	ebfff8e2 	bl	300094c8 <Exit_Critical>
3000b13c:	e51b3014 	ldr	r3, [fp, #-20]
3000b140:	e2833008 	add	r3, r3, #8	; 0x8
3000b144:	e50b301c 	str	r3, [fp, #-28]
3000b148:	e51b001c 	ldr	r0, [fp, #-28]
3000b14c:	e24bd00c 	sub	sp, fp, #12	; 0xc
3000b150:	e89da800 	ldmia	sp, {fp, sp, pc}
3000b154:	300100a0 	andcc	r0, r1, r0, lsr #1
3000b158:	300100a4 	andcc	r0, r1, r4, lsr #1

3000b15c <Delete>:
3000b15c:	e1a0c00d 	mov	ip, sp
3000b160:	e92dd800 	stmdb	sp!, {fp, ip, lr, pc}
3000b164:	e24cb004 	sub	fp, ip, #4	; 0x4
3000b168:	e24dd00c 	sub	sp, sp, #12	; 0xc
3000b16c:	e50b0010 	str	r0, [fp, #-16]
3000b170:	ebfff8e7 	bl	30009514 <Enter_Critical>
3000b174:	e51b3010 	ldr	r3, [fp, #-16]
3000b178:	e2433008 	sub	r3, r3, #8	; 0x8
3000b17c:	e50b3014 	str	r3, [fp, #-20]
3000b180:	e59f3124 	ldr	r3, [pc, #292]	; 3000b2ac <.text+0x32ec>
3000b184:	e50b3018 	str	r3, [fp, #-24]
3000b188:	e51b3018 	ldr	r3, [fp, #-24]
3000b18c:	e3530000 	cmp	r3, #0	; 0x0
3000b190:	1a000004 	bne	3000b1a8 <Delete+0x4c>
3000b194:	e51b2018 	ldr	r2, [fp, #-24]
3000b198:	e51b3014 	ldr	r3, [fp, #-20]
3000b19c:	e5823004 	str	r3, [r2, #4]
3000b1a0:	ebfff8c8 	bl	300094c8 <Exit_Critical>
3000b1a4:	ea00003e 	b	3000b2a4 <Delete+0x148>
3000b1a8:	e51b3018 	ldr	r3, [fp, #-24]
3000b1ac:	e5933004 	ldr	r3, [r3, #4]
3000b1b0:	e3530000 	cmp	r3, #0	; 0x0
3000b1b4:	0a000008 	beq	3000b1dc <Delete+0x80>
3000b1b8:	e51b3018 	ldr	r3, [fp, #-24]
3000b1bc:	e5932004 	ldr	r2, [r3, #4]
3000b1c0:	e51b3014 	ldr	r3, [fp, #-20]
3000b1c4:	e1520003 	cmp	r2, r3
3000b1c8:	2a000003 	bcs	3000b1dc <Delete+0x80>
3000b1cc:	e51b3018 	ldr	r3, [fp, #-24]
3000b1d0:	e5933004 	ldr	r3, [r3, #4]
3000b1d4:	e50b3018 	str	r3, [fp, #-24]
3000b1d8:	eafffff2 	b	3000b1a8 <Delete+0x4c>
3000b1dc:	e51b3018 	ldr	r3, [fp, #-24]
3000b1e0:	e5932000 	ldr	r2, [r3]
3000b1e4:	e51b3018 	ldr	r3, [fp, #-24]
3000b1e8:	e0822003 	add	r2, r2, r3
3000b1ec:	e51b3014 	ldr	r3, [fp, #-20]
3000b1f0:	e1520003 	cmp	r2, r3
3000b1f4:	1a000007 	bne	3000b218 <Delete+0xbc>
3000b1f8:	e51b0018 	ldr	r0, [fp, #-24]
3000b1fc:	e51b3018 	ldr	r3, [fp, #-24]
3000b200:	e51b2014 	ldr	r2, [fp, #-20]
3000b204:	e5931000 	ldr	r1, [r3]
3000b208:	e5923000 	ldr	r3, [r2]
3000b20c:	e0813003 	add	r3, r1, r3
3000b210:	e5803000 	str	r3, [r0]
3000b214:	ea000008 	b	3000b23c <Delete+0xe0>
3000b218:	e51b2014 	ldr	r2, [fp, #-20]
3000b21c:	e51b3018 	ldr	r3, [fp, #-24]
3000b220:	e5933004 	ldr	r3, [r3, #4]
3000b224:	e5823004 	str	r3, [r2, #4]
3000b228:	e51b2018 	ldr	r2, [fp, #-24]
3000b22c:	e51b3014 	ldr	r3, [fp, #-20]
3000b230:	e5823004 	str	r3, [r2, #4]
3000b234:	e51b3014 	ldr	r3, [fp, #-20]
3000b238:	e50b3018 	str	r3, [fp, #-24]
3000b23c:	e51b3018 	ldr	r3, [fp, #-24]
3000b240:	e5933004 	ldr	r3, [r3, #4]
3000b244:	e3530000 	cmp	r3, #0	; 0x0
3000b248:	0a000014 	beq	3000b2a0 <Delete+0x144>
3000b24c:	e51b3018 	ldr	r3, [fp, #-24]
3000b250:	e5932000 	ldr	r2, [r3]
3000b254:	e51b3018 	ldr	r3, [fp, #-24]
3000b258:	e0822003 	add	r2, r2, r3
3000b25c:	e51b3018 	ldr	r3, [fp, #-24]
3000b260:	e5933004 	ldr	r3, [r3, #4]
3000b264:	e1520003 	cmp	r2, r3
3000b268:	1a00000c 	bne	3000b2a0 <Delete+0x144>
3000b26c:	e51b1018 	ldr	r1, [fp, #-24]
3000b270:	e51b2018 	ldr	r2, [fp, #-24]
3000b274:	e51b3018 	ldr	r3, [fp, #-24]
3000b278:	e5933004 	ldr	r3, [r3, #4]
3000b27c:	e5922000 	ldr	r2, [r2]
3000b280:	e5933000 	ldr	r3, [r3]
3000b284:	e0823003 	add	r3, r2, r3
3000b288:	e5813000 	str	r3, [r1]
3000b28c:	e51b2018 	ldr	r2, [fp, #-24]
3000b290:	e51b3018 	ldr	r3, [fp, #-24]
3000b294:	e5933004 	ldr	r3, [r3, #4]
3000b298:	e5933004 	ldr	r3, [r3, #4]
3000b29c:	e5823004 	str	r3, [r2, #4]
3000b2a0:	ebfff888 	bl	300094c8 <Exit_Critical>
3000b2a4:	e24bd00c 	sub	sp, fp, #12	; 0xc
3000b2a8:	e89da800 	ldmia	sp, {fp, sp, pc}
3000b2ac:	300100a4 	andcc	r0, r1, r4, lsr #1

3000b2b0 <getheapmeminfo>:
3000b2b0:	e1a0c00d 	mov	ip, sp
3000b2b4:	e92dd800 	stmdb	sp!, {fp, ip, lr, pc}
3000b2b8:	e24cb004 	sub	fp, ip, #4	; 0x4
3000b2bc:	e24dd010 	sub	sp, sp, #16	; 0x10
3000b2c0:	e50b0010 	str	r0, [fp, #-16]
3000b2c4:	ebfff892 	bl	30009514 <Enter_Critical>
3000b2c8:	ebfff755 	bl	30009024 <get_bss_end>
3000b2cc:	e50b0014 	str	r0, [fp, #-20]
3000b2d0:	e3a035cf 	mov	r3, #868220928	; 0x33c00000
3000b2d4:	e283370e 	add	r3, r3, #3670016	; 0x380000
3000b2d8:	e50b3018 	str	r3, [fp, #-24]
3000b2dc:	e59f3064 	ldr	r3, [pc, #100]	; 3000b348 <.text+0x3388>
3000b2e0:	e50b301c 	str	r3, [fp, #-28]
3000b2e4:	e51b1010 	ldr	r1, [fp, #-16]
3000b2e8:	e51b2018 	ldr	r2, [fp, #-24]
3000b2ec:	e51b3014 	ldr	r3, [fp, #-20]
3000b2f0:	e0633002 	rsb	r3, r3, r2
3000b2f4:	e5813000 	str	r3, [r1]
3000b2f8:	e51b2010 	ldr	r2, [fp, #-16]
3000b2fc:	e3a03000 	mov	r3, #0	; 0x0
3000b300:	e5823004 	str	r3, [r2, #4]
3000b304:	e51b301c 	ldr	r3, [fp, #-28]
3000b308:	e3530000 	cmp	r3, #0	; 0x0
3000b30c:	0a00000a 	beq	3000b33c <getheapmeminfo+0x8c>
3000b310:	e51b0010 	ldr	r0, [fp, #-16]
3000b314:	e51b3010 	ldr	r3, [fp, #-16]
3000b318:	e51b201c 	ldr	r2, [fp, #-28]
3000b31c:	e5931004 	ldr	r1, [r3, #4]
3000b320:	e5923000 	ldr	r3, [r2]
3000b324:	e0813003 	add	r3, r1, r3
3000b328:	e5803004 	str	r3, [r0, #4]
3000b32c:	e51b301c 	ldr	r3, [fp, #-28]
3000b330:	e5933004 	ldr	r3, [r3, #4]
3000b334:	e50b301c 	str	r3, [fp, #-28]
3000b338:	eafffff1 	b	3000b304 <getheapmeminfo+0x54>
3000b33c:	ebfff861 	bl	300094c8 <Exit_Critical>
3000b340:	e24bd00c 	sub	sp, fp, #12	; 0xc
3000b344:	e89da800 	ldmia	sp, {fp, sp, pc}
3000b348:	300100a4 	andcc	r0, r1, r4, lsr #1
3000b34c:	00000000 	andeq	r0, r0, r0

3000b350 <__udivsi3>:
3000b350:	e2512001 	subs	r2, r1, #1	; 0x1
3000b354:	01a0f00e 	moveq	pc, lr
3000b358:	3a0000e5 	bcc	3000b6f4 <Ldiv0>
3000b35c:	e1500001 	cmp	r0, r1
3000b360:	9a000022 	bls	3000b3f0 <__udivsi3+0xa0>
3000b364:	e1110002 	tst	r1, r2
3000b368:	0a000023 	beq	3000b3fc <__udivsi3+0xac>
3000b36c:	e311020e 	tst	r1, #-536870912	; 0xe0000000
3000b370:	01a01181 	moveq	r1, r1, lsl #3
3000b374:	03a03008 	moveq	r3, #8	; 0x8
3000b378:	13a03001 	movne	r3, #1	; 0x1
3000b37c:	e3510201 	cmp	r1, #268435456	; 0x10000000
3000b380:	31510000 	cmpcc	r1, r0
3000b384:	31a01201 	movcc	r1, r1, lsl #4
3000b388:	31a03203 	movcc	r3, r3, lsl #4
3000b38c:	3afffffa 	bcc	3000b37c <__udivsi3+0x2c>
3000b390:	e3510102 	cmp	r1, #-2147483648	; 0x80000000
3000b394:	31510000 	cmpcc	r1, r0
3000b398:	31a01081 	movcc	r1, r1, lsl #1
3000b39c:	31a03083 	movcc	r3, r3, lsl #1
3000b3a0:	3afffffa 	bcc	3000b390 <__udivsi3+0x40>
3000b3a4:	e3a02000 	mov	r2, #0	; 0x0
3000b3a8:	e1500001 	cmp	r0, r1
3000b3ac:	20400001 	subcs	r0, r0, r1
3000b3b0:	21822003 	orrcs	r2, r2, r3
3000b3b4:	e15000a1 	cmp	r0, r1, lsr #1
3000b3b8:	204000a1 	subcs	r0, r0, r1, lsr #1
3000b3bc:	218220a3 	orrcs	r2, r2, r3, lsr #1
3000b3c0:	e1500121 	cmp	r0, r1, lsr #2
3000b3c4:	20400121 	subcs	r0, r0, r1, lsr #2
3000b3c8:	21822123 	orrcs	r2, r2, r3, lsr #2
3000b3cc:	e15001a1 	cmp	r0, r1, lsr #3
3000b3d0:	204001a1 	subcs	r0, r0, r1, lsr #3
3000b3d4:	218221a3 	orrcs	r2, r2, r3, lsr #3
3000b3d8:	e3500000 	cmp	r0, #0	; 0x0
3000b3dc:	11b03223 	movnes	r3, r3, lsr #4
3000b3e0:	11a01221 	movne	r1, r1, lsr #4
3000b3e4:	1affffef 	bne	3000b3a8 <__udivsi3+0x58>
3000b3e8:	e1a00002 	mov	r0, r2
3000b3ec:	e1a0f00e 	mov	pc, lr
3000b3f0:	03a00001 	moveq	r0, #1	; 0x1
3000b3f4:	13a00000 	movne	r0, #0	; 0x0
3000b3f8:	e1a0f00e 	mov	pc, lr
3000b3fc:	e3510801 	cmp	r1, #65536	; 0x10000
3000b400:	21a01821 	movcs	r1, r1, lsr #16
3000b404:	23a02010 	movcs	r2, #16	; 0x10
3000b408:	33a02000 	movcc	r2, #0	; 0x0
3000b40c:	e3510c01 	cmp	r1, #256	; 0x100
3000b410:	21a01421 	movcs	r1, r1, lsr #8
3000b414:	22822008 	addcs	r2, r2, #8	; 0x8
3000b418:	e3510010 	cmp	r1, #16	; 0x10
3000b41c:	21a01221 	movcs	r1, r1, lsr #4
3000b420:	22822004 	addcs	r2, r2, #4	; 0x4
3000b424:	e3510004 	cmp	r1, #4	; 0x4
3000b428:	82822003 	addhi	r2, r2, #3	; 0x3
3000b42c:	908220a1 	addls	r2, r2, r1, lsr #1
3000b430:	e1a00230 	mov	r0, r0, lsr r2
3000b434:	e1a0f00e 	mov	pc, lr
3000b438:	90909090 	umulllss	r9, r0, r0, r0
3000b43c:	90909090 	umulllss	r9, r0, r0, r0

3000b440 <__umodsi3>:
3000b440:	e2512001 	subs	r2, r1, #1	; 0x1
3000b444:	3a0000aa 	bcc	3000b6f4 <Ldiv0>
3000b448:	11500001 	cmpne	r0, r1
3000b44c:	03a00000 	moveq	r0, #0	; 0x0
3000b450:	81110002 	tsthi	r1, r2
3000b454:	00000002 	andeq	r0, r0, r2
3000b458:	91a0f00e 	movls	pc, lr
3000b45c:	e3a02000 	mov	r2, #0	; 0x0
3000b460:	e3510201 	cmp	r1, #268435456	; 0x10000000
3000b464:	31510000 	cmpcc	r1, r0
3000b468:	31a01201 	movcc	r1, r1, lsl #4
3000b46c:	32822004 	addcc	r2, r2, #4	; 0x4
3000b470:	3afffffa 	bcc	3000b460 <__umodsi3+0x20>
3000b474:	e3510102 	cmp	r1, #-2147483648	; 0x80000000
3000b478:	31510000 	cmpcc	r1, r0
3000b47c:	31a01081 	movcc	r1, r1, lsl #1
3000b480:	32822001 	addcc	r2, r2, #1	; 0x1
3000b484:	3afffffa 	bcc	3000b474 <__umodsi3+0x34>
3000b488:	e2522003 	subs	r2, r2, #3	; 0x3
3000b48c:	ba00000e 	blt	3000b4cc <__umodsi3+0x8c>
3000b490:	e1500001 	cmp	r0, r1
3000b494:	20400001 	subcs	r0, r0, r1
3000b498:	e15000a1 	cmp	r0, r1, lsr #1
3000b49c:	204000a1 	subcs	r0, r0, r1, lsr #1
3000b4a0:	e1500121 	cmp	r0, r1, lsr #2
3000b4a4:	20400121 	subcs	r0, r0, r1, lsr #2
3000b4a8:	e15001a1 	cmp	r0, r1, lsr #3
3000b4ac:	204001a1 	subcs	r0, r0, r1, lsr #3
3000b4b0:	e3500001 	cmp	r0, #1	; 0x1
3000b4b4:	e1a01221 	mov	r1, r1, lsr #4
3000b4b8:	a2522004 	subges	r2, r2, #4	; 0x4
3000b4bc:	aafffff3 	bge	3000b490 <__umodsi3+0x50>
3000b4c0:	e3120003 	tst	r2, #3	; 0x3
3000b4c4:	13300000 	teqne	r0, #0	; 0x0
3000b4c8:	0a00000a 	beq	3000b4f8 <__umodsi3+0xb8>
3000b4cc:	e3720002 	cmn	r2, #2	; 0x2
3000b4d0:	ba000006 	blt	3000b4f0 <__umodsi3+0xb0>
3000b4d4:	0a000002 	beq	3000b4e4 <__umodsi3+0xa4>
3000b4d8:	e1500001 	cmp	r0, r1
3000b4dc:	20400001 	subcs	r0, r0, r1
3000b4e0:	e1a010a1 	mov	r1, r1, lsr #1
3000b4e4:	e1500001 	cmp	r0, r1
3000b4e8:	20400001 	subcs	r0, r0, r1
3000b4ec:	e1a010a1 	mov	r1, r1, lsr #1
3000b4f0:	e1500001 	cmp	r0, r1
3000b4f4:	20400001 	subcs	r0, r0, r1
3000b4f8:	e1a0f00e 	mov	pc, lr
3000b4fc:	90909090 	umulllss	r9, r0, r0, r0

3000b500 <__divsi3>:
3000b500:	e3510000 	cmp	r1, #0	; 0x0
3000b504:	e020c001 	eor	ip, r0, r1
3000b508:	0a000079 	beq	3000b6f4 <Ldiv0>
3000b50c:	42611000 	rsbmi	r1, r1, #0	; 0x0
3000b510:	e2512001 	subs	r2, r1, #1	; 0x1
3000b514:	0a000027 	beq	3000b5b8 <__divsi3+0xb8>
3000b518:	e1b03000 	movs	r3, r0
3000b51c:	42603000 	rsbmi	r3, r0, #0	; 0x0
3000b520:	e1530001 	cmp	r3, r1
3000b524:	9a000026 	bls	3000b5c4 <__divsi3+0xc4>
3000b528:	e1110002 	tst	r1, r2
3000b52c:	0a000028 	beq	3000b5d4 <__divsi3+0xd4>
3000b530:	e311020e 	tst	r1, #-536870912	; 0xe0000000
3000b534:	01a01181 	moveq	r1, r1, lsl #3
3000b538:	03a02008 	moveq	r2, #8	; 0x8
3000b53c:	13a02001 	movne	r2, #1	; 0x1
3000b540:	e3510201 	cmp	r1, #268435456	; 0x10000000
3000b544:	31510003 	cmpcc	r1, r3
3000b548:	31a01201 	movcc	r1, r1, lsl #4
3000b54c:	31a02202 	movcc	r2, r2, lsl #4
3000b550:	3afffffa 	bcc	3000b540 <__divsi3+0x40>
3000b554:	e3510102 	cmp	r1, #-2147483648	; 0x80000000
3000b558:	31510003 	cmpcc	r1, r3
3000b55c:	31a01081 	movcc	r1, r1, lsl #1
3000b560:	31a02082 	movcc	r2, r2, lsl #1
3000b564:	3afffffa 	bcc	3000b554 <__divsi3+0x54>
3000b568:	e3a00000 	mov	r0, #0	; 0x0
3000b56c:	e1530001 	cmp	r3, r1
3000b570:	20433001 	subcs	r3, r3, r1
3000b574:	21800002 	orrcs	r0, r0, r2
3000b578:	e15300a1 	cmp	r3, r1, lsr #1
3000b57c:	204330a1 	subcs	r3, r3, r1, lsr #1
3000b580:	218000a2 	orrcs	r0, r0, r2, lsr #1
3000b584:	e1530121 	cmp	r3, r1, lsr #2
3000b588:	20433121 	subcs	r3, r3, r1, lsr #2
3000b58c:	21800122 	orrcs	r0, r0, r2, lsr #2
3000b590:	e15301a1 	cmp	r3, r1, lsr #3
3000b594:	204331a1 	subcs	r3, r3, r1, lsr #3
3000b598:	218001a2 	orrcs	r0, r0, r2, lsr #3
3000b59c:	e3530000 	cmp	r3, #0	; 0x0
3000b5a0:	11b02222 	movnes	r2, r2, lsr #4
3000b5a4:	11a01221 	movne	r1, r1, lsr #4
3000b5a8:	1affffef 	bne	3000b56c <__divsi3+0x6c>
3000b5ac:	e35c0000 	cmp	ip, #0	; 0x0
3000b5b0:	42600000 	rsbmi	r0, r0, #0	; 0x0
3000b5b4:	e1a0f00e 	mov	pc, lr
3000b5b8:	e13c0000 	teq	ip, r0
3000b5bc:	42600000 	rsbmi	r0, r0, #0	; 0x0
3000b5c0:	e1a0f00e 	mov	pc, lr
3000b5c4:	33a00000 	movcc	r0, #0	; 0x0
3000b5c8:	01a00fcc 	moveq	r0, ip, asr #31
3000b5cc:	03800001 	orreq	r0, r0, #1	; 0x1
3000b5d0:	e1a0f00e 	mov	pc, lr
3000b5d4:	e3510801 	cmp	r1, #65536	; 0x10000
3000b5d8:	21a01821 	movcs	r1, r1, lsr #16
3000b5dc:	23a02010 	movcs	r2, #16	; 0x10
3000b5e0:	33a02000 	movcc	r2, #0	; 0x0
3000b5e4:	e3510c01 	cmp	r1, #256	; 0x100
3000b5e8:	21a01421 	movcs	r1, r1, lsr #8
3000b5ec:	22822008 	addcs	r2, r2, #8	; 0x8
3000b5f0:	e3510010 	cmp	r1, #16	; 0x10
3000b5f4:	21a01221 	movcs	r1, r1, lsr #4
3000b5f8:	22822004 	addcs	r2, r2, #4	; 0x4
3000b5fc:	e3510004 	cmp	r1, #4	; 0x4
3000b600:	82822003 	addhi	r2, r2, #3	; 0x3
3000b604:	908220a1 	addls	r2, r2, r1, lsr #1
3000b608:	e35c0000 	cmp	ip, #0	; 0x0
3000b60c:	e1a00233 	mov	r0, r3, lsr r2
3000b610:	42600000 	rsbmi	r0, r0, #0	; 0x0
3000b614:	e1a0f00e 	mov	pc, lr
3000b618:	90909090 	umulllss	r9, r0, r0, r0
3000b61c:	90909090 	umulllss	r9, r0, r0, r0

3000b620 <__modsi3>:
3000b620:	e3510000 	cmp	r1, #0	; 0x0
3000b624:	0a000032 	beq	3000b6f4 <Ldiv0>
3000b628:	42611000 	rsbmi	r1, r1, #0	; 0x0
3000b62c:	e1b0c000 	movs	ip, r0
3000b630:	42600000 	rsbmi	r0, r0, #0	; 0x0
3000b634:	e2512001 	subs	r2, r1, #1	; 0x1
3000b638:	11500001 	cmpne	r0, r1
3000b63c:	03a00000 	moveq	r0, #0	; 0x0
3000b640:	81110002 	tsthi	r1, r2
3000b644:	00000002 	andeq	r0, r0, r2
3000b648:	9a000026 	bls	3000b6e8 <__modsi3+0xc8>
3000b64c:	e3a02000 	mov	r2, #0	; 0x0
3000b650:	e3510201 	cmp	r1, #268435456	; 0x10000000
3000b654:	31510000 	cmpcc	r1, r0
3000b658:	31a01201 	movcc	r1, r1, lsl #4
3000b65c:	32822004 	addcc	r2, r2, #4	; 0x4
3000b660:	3afffffa 	bcc	3000b650 <__modsi3+0x30>
3000b664:	e3510102 	cmp	r1, #-2147483648	; 0x80000000
3000b668:	31510000 	cmpcc	r1, r0
3000b66c:	31a01081 	movcc	r1, r1, lsl #1
3000b670:	32822001 	addcc	r2, r2, #1	; 0x1
3000b674:	3afffffa 	bcc	3000b664 <__modsi3+0x44>
3000b678:	e2522003 	subs	r2, r2, #3	; 0x3
3000b67c:	ba00000e 	blt	3000b6bc <__modsi3+0x9c>
3000b680:	e1500001 	cmp	r0, r1
3000b684:	20400001 	subcs	r0, r0, r1
3000b688:	e15000a1 	cmp	r0, r1, lsr #1
3000b68c:	204000a1 	subcs	r0, r0, r1, lsr #1
3000b690:	e1500121 	cmp	r0, r1, lsr #2
3000b694:	20400121 	subcs	r0, r0, r1, lsr #2
3000b698:	e15001a1 	cmp	r0, r1, lsr #3
3000b69c:	204001a1 	subcs	r0, r0, r1, lsr #3
3000b6a0:	e3500001 	cmp	r0, #1	; 0x1
3000b6a4:	e1a01221 	mov	r1, r1, lsr #4
3000b6a8:	a2522004 	subges	r2, r2, #4	; 0x4
3000b6ac:	aafffff3 	bge	3000b680 <__modsi3+0x60>
3000b6b0:	e3120003 	tst	r2, #3	; 0x3
3000b6b4:	13300000 	teqne	r0, #0	; 0x0
3000b6b8:	0a00000a 	beq	3000b6e8 <__modsi3+0xc8>
3000b6bc:	e3720002 	cmn	r2, #2	; 0x2
3000b6c0:	ba000006 	blt	3000b6e0 <__modsi3+0xc0>
3000b6c4:	0a000002 	beq	3000b6d4 <__modsi3+0xb4>
3000b6c8:	e1500001 	cmp	r0, r1
3000b6cc:	20400001 	subcs	r0, r0, r1
3000b6d0:	e1a010a1 	mov	r1, r1, lsr #1
3000b6d4:	e1500001 	cmp	r0, r1
3000b6d8:	20400001 	subcs	r0, r0, r1
3000b6dc:	e1a010a1 	mov	r1, r1, lsr #1
3000b6e0:	e1500001 	cmp	r0, r1
3000b6e4:	20400001 	subcs	r0, r0, r1
3000b6e8:	e35c0000 	cmp	ip, #0	; 0x0
3000b6ec:	42600000 	rsbmi	r0, r0, #0	; 0x0
3000b6f0:	e1a0f00e 	mov	pc, lr

3000b6f4 <Ldiv0>:
3000b6f4:	e52de004 	str	lr, [sp, #-4]!
3000b6f8:	e3a00000 	mov	r0, #0	; 0x0
3000b6fc:	e49df004 	ldr	pc, [sp], #4

3000b700 <outc>:
3000b700:	e1a0c00d 	mov	ip, sp
3000b704:	e92dd800 	stmdb	sp!, {fp, ip, lr, pc}
3000b708:	e24cb004 	sub	fp, ip, #4	; 0x4
3000b70c:	e24dd004 	sub	sp, sp, #4	; 0x4
3000b710:	e50b0010 	str	r0, [fp, #-16]
3000b714:	e51b3010 	ldr	r3, [fp, #-16]
3000b718:	e20330ff 	and	r3, r3, #255	; 0xff
3000b71c:	e1a00003 	mov	r0, r3
3000b720:	ebfff7c7 	bl	30009644 <putchar>
3000b724:	e3a03000 	mov	r3, #0	; 0x0
3000b728:	e1a00003 	mov	r0, r3
3000b72c:	e89da808 	ldmia	sp, {r3, fp, sp, pc}

3000b730 <outs>:
3000b730:	e1a0c00d 	mov	ip, sp
3000b734:	e92dd800 	stmdb	sp!, {fp, ip, lr, pc}
3000b738:	e24cb004 	sub	fp, ip, #4	; 0x4
3000b73c:	e24dd004 	sub	sp, sp, #4	; 0x4
3000b740:	e50b0010 	str	r0, [fp, #-16]
3000b744:	e51b3010 	ldr	r3, [fp, #-16]
3000b748:	e5d33000 	ldrb	r3, [r3]
3000b74c:	e3530000 	cmp	r3, #0	; 0x0
3000b750:	0a000008 	beq	3000b778 <outs+0x48>
3000b754:	e24b1010 	sub	r1, fp, #16	; 0x10
3000b758:	e5913000 	ldr	r3, [r1]
3000b75c:	e1a02003 	mov	r2, r3
3000b760:	e5d22000 	ldrb	r2, [r2]
3000b764:	e2833001 	add	r3, r3, #1	; 0x1
3000b768:	e5813000 	str	r3, [r1]
3000b76c:	e1a00002 	mov	r0, r2
3000b770:	ebfff7b3 	bl	30009644 <putchar>
3000b774:	eafffff2 	b	3000b744 <outs+0x14>
3000b778:	e3a03000 	mov	r3, #0	; 0x0
3000b77c:	e1a00003 	mov	r0, r3
3000b780:	e89da808 	ldmia	sp, {r3, fp, sp, pc}

3000b784 <out_num>:
3000b784:	e1a0c00d 	mov	ip, sp
3000b788:	e92dd830 	stmdb	sp!, {r4, r5, fp, ip, lr, pc}
3000b78c:	e24cb004 	sub	fp, ip, #4	; 0x4
3000b790:	e24dd060 	sub	sp, sp, #96	; 0x60
3000b794:	e50b0018 	str	r0, [fp, #-24]
3000b798:	e50b101c 	str	r1, [fp, #-28]
3000b79c:	e50b3024 	str	r3, [fp, #-36]
3000b7a0:	e1a03002 	mov	r3, r2
3000b7a4:	e54b301d 	strb	r3, [fp, #-29]
3000b7a8:	e3a03000 	mov	r3, #0	; 0x0
3000b7ac:	e50b3028 	str	r3, [fp, #-40]
3000b7b0:	e24b3068 	sub	r3, fp, #104	; 0x68
3000b7b4:	e2833040 	add	r3, r3, #64	; 0x40
3000b7b8:	e50b306c 	str	r3, [fp, #-108]
3000b7bc:	e3a03000 	mov	r3, #0	; 0x0
3000b7c0:	e50b3070 	str	r3, [fp, #-112]
3000b7c4:	e3a03000 	mov	r3, #0	; 0x0
3000b7c8:	e50b3074 	str	r3, [fp, #-116]
3000b7cc:	e51b306c 	ldr	r3, [fp, #-108]
3000b7d0:	e2433001 	sub	r3, r3, #1	; 0x1
3000b7d4:	e1a02003 	mov	r2, r3
3000b7d8:	e50b206c 	str	r2, [fp, #-108]
3000b7dc:	e3a03000 	mov	r3, #0	; 0x0
3000b7e0:	e5c23000 	strb	r3, [r2]
3000b7e4:	e51b3018 	ldr	r3, [fp, #-24]
3000b7e8:	e3530000 	cmp	r3, #0	; 0x0
3000b7ec:	aa000003 	bge	3000b800 <out_num+0x7c>
3000b7f0:	e51b3018 	ldr	r3, [fp, #-24]
3000b7f4:	e2633000 	rsb	r3, r3, #0	; 0x0
3000b7f8:	e50b3028 	str	r3, [fp, #-40]
3000b7fc:	ea000001 	b	3000b808 <out_num+0x84>
3000b800:	e51b3018 	ldr	r3, [fp, #-24]
3000b804:	e50b3028 	str	r3, [fp, #-40]
3000b808:	e51b306c 	ldr	r3, [fp, #-108]
3000b80c:	e2433001 	sub	r3, r3, #1	; 0x1
3000b810:	e1a04003 	mov	r4, r3
3000b814:	e50b406c 	str	r4, [fp, #-108]
3000b818:	e59f50e0 	ldr	r5, [pc, #224]	; 3000b900 <.text+0x3940>
3000b81c:	e51b3028 	ldr	r3, [fp, #-40]
3000b820:	e1a00003 	mov	r0, r3
3000b824:	e51b101c 	ldr	r1, [fp, #-28]
3000b828:	ebffff04 	bl	3000b440 <__umodsi3>
3000b82c:	e1a03000 	mov	r3, r0
3000b830:	e7d53003 	ldrb	r3, [r5, r3]
3000b834:	e5c43000 	strb	r3, [r4]
3000b838:	e51b3070 	ldr	r3, [fp, #-112]
3000b83c:	e2833001 	add	r3, r3, #1	; 0x1
3000b840:	e50b3070 	str	r3, [fp, #-112]
3000b844:	e51b0028 	ldr	r0, [fp, #-40]
3000b848:	e51b101c 	ldr	r1, [fp, #-28]
3000b84c:	ebfffebf 	bl	3000b350 <__udivsi3>
3000b850:	e1a03000 	mov	r3, r0
3000b854:	e50b3028 	str	r3, [fp, #-40]
3000b858:	e3530000 	cmp	r3, #0	; 0x0
3000b85c:	0a000000 	beq	3000b864 <out_num+0xe0>
3000b860:	eaffffe8 	b	3000b808 <out_num+0x84>
3000b864:	e51b3024 	ldr	r3, [fp, #-36]
3000b868:	e3530000 	cmp	r3, #0	; 0x0
3000b86c:	0a000014 	beq	3000b8c4 <out_num+0x140>
3000b870:	e51b2070 	ldr	r2, [fp, #-112]
3000b874:	e51b3024 	ldr	r3, [fp, #-36]
3000b878:	e1520003 	cmp	r2, r3
3000b87c:	aa000010 	bge	3000b8c4 <out_num+0x140>
3000b880:	e51b3024 	ldr	r3, [fp, #-36]
3000b884:	e51b2070 	ldr	r2, [fp, #-112]
3000b888:	e0623003 	rsb	r3, r2, r3
3000b88c:	e50b3074 	str	r3, [fp, #-116]
3000b890:	e51b3074 	ldr	r3, [fp, #-116]
3000b894:	e3530000 	cmp	r3, #0	; 0x0
3000b898:	0a000009 	beq	3000b8c4 <out_num+0x140>
3000b89c:	e51b306c 	ldr	r3, [fp, #-108]
3000b8a0:	e2433001 	sub	r3, r3, #1	; 0x1
3000b8a4:	e1a02003 	mov	r2, r3
3000b8a8:	e50b206c 	str	r2, [fp, #-108]
3000b8ac:	e55b301d 	ldrb	r3, [fp, #-29]
3000b8b0:	e5c23000 	strb	r3, [r2]
3000b8b4:	e51b3074 	ldr	r3, [fp, #-116]
3000b8b8:	e2433001 	sub	r3, r3, #1	; 0x1
3000b8bc:	e50b3074 	str	r3, [fp, #-116]
3000b8c0:	eafffff2 	b	3000b890 <out_num+0x10c>
3000b8c4:	e51b3018 	ldr	r3, [fp, #-24]
3000b8c8:	e3530000 	cmp	r3, #0	; 0x0
3000b8cc:	aa000005 	bge	3000b8e8 <out_num+0x164>
3000b8d0:	e51b306c 	ldr	r3, [fp, #-108]
3000b8d4:	e2433001 	sub	r3, r3, #1	; 0x1
3000b8d8:	e1a02003 	mov	r2, r3
3000b8dc:	e50b206c 	str	r2, [fp, #-108]
3000b8e0:	e3a0302d 	mov	r3, #45	; 0x2d
3000b8e4:	e5c23000 	strb	r3, [r2]
3000b8e8:	e51b006c 	ldr	r0, [fp, #-108]
3000b8ec:	ebffff8f 	bl	3000b730 <outs>
3000b8f0:	e1a03000 	mov	r3, r0
3000b8f4:	e1a00003 	mov	r0, r3
3000b8f8:	e24bd014 	sub	sp, fp, #20	; 0x14
3000b8fc:	e89da830 	ldmia	sp, {r4, r5, fp, sp, pc}
3000b900:	3000ffb8 	strcch	pc, [r0], -r8

3000b904 <my_vprintf>:
3000b904:	e1a0c00d 	mov	ip, sp
3000b908:	e92dd800 	stmdb	sp!, {fp, ip, lr, pc}
3000b90c:	e24cb004 	sub	fp, ip, #4	; 0x4
3000b910:	e24dd010 	sub	sp, sp, #16	; 0x10
3000b914:	e50b0010 	str	r0, [fp, #-16]
3000b918:	e50b1014 	str	r1, [fp, #-20]
3000b91c:	e3a03020 	mov	r3, #32	; 0x20
3000b920:	e54b3015 	strb	r3, [fp, #-21]
3000b924:	e3a03000 	mov	r3, #0	; 0x0
3000b928:	e50b301c 	str	r3, [fp, #-28]
3000b92c:	e51b3010 	ldr	r3, [fp, #-16]
3000b930:	e5d33000 	ldrb	r3, [r3]
3000b934:	e3530000 	cmp	r3, #0	; 0x0
3000b938:	0a000096 	beq	3000bb98 <.text+0x3bd8>
3000b93c:	e51b3010 	ldr	r3, [fp, #-16]
3000b940:	e5d33000 	ldrb	r3, [r3]
3000b944:	e3530025 	cmp	r3, #37	; 0x25
3000b948:	0a000004 	beq	3000b960 <my_vprintf+0x5c>
3000b94c:	e51b3010 	ldr	r3, [fp, #-16]
3000b950:	e5d33000 	ldrb	r3, [r3]
3000b954:	e1a00003 	mov	r0, r3
3000b958:	ebffff68 	bl	3000b700 <outc>
3000b95c:	ea000089 	b	3000bb88 <.text+0x3bc8>
3000b960:	e51b3010 	ldr	r3, [fp, #-16]
3000b964:	e2833001 	add	r3, r3, #1	; 0x1
3000b968:	e50b3010 	str	r3, [fp, #-16]
3000b96c:	e51b3010 	ldr	r3, [fp, #-16]
3000b970:	e5d33000 	ldrb	r3, [r3]
3000b974:	e3530030 	cmp	r3, #48	; 0x30
3000b978:	1a000004 	bne	3000b990 <my_vprintf+0x8c>
3000b97c:	e3a03030 	mov	r3, #48	; 0x30
3000b980:	e54b3015 	strb	r3, [fp, #-21]
3000b984:	e51b3010 	ldr	r3, [fp, #-16]
3000b988:	e2833001 	add	r3, r3, #1	; 0x1
3000b98c:	e50b3010 	str	r3, [fp, #-16]
3000b990:	e3a03020 	mov	r3, #32	; 0x20
3000b994:	e54b3015 	strb	r3, [fp, #-21]
3000b998:	e3a03000 	mov	r3, #0	; 0x0
3000b99c:	e50b301c 	str	r3, [fp, #-28]
3000b9a0:	e51b3010 	ldr	r3, [fp, #-16]
3000b9a4:	e5d33000 	ldrb	r3, [r3]
3000b9a8:	e353002f 	cmp	r3, #47	; 0x2f
3000b9ac:	9a000013 	bls	3000ba00 <my_vprintf+0xfc>
3000b9b0:	e51b3010 	ldr	r3, [fp, #-16]
3000b9b4:	e5d33000 	ldrb	r3, [r3]
3000b9b8:	e3530039 	cmp	r3, #57	; 0x39
3000b9bc:	8a00000f 	bhi	3000ba00 <my_vprintf+0xfc>
3000b9c0:	e51b201c 	ldr	r2, [fp, #-28]
3000b9c4:	e1a03002 	mov	r3, r2
3000b9c8:	e1a03103 	mov	r3, r3, lsl #2
3000b9cc:	e0833002 	add	r3, r3, r2
3000b9d0:	e1a03083 	mov	r3, r3, lsl #1
3000b9d4:	e50b301c 	str	r3, [fp, #-28]
3000b9d8:	e51b3010 	ldr	r3, [fp, #-16]
3000b9dc:	e5d32000 	ldrb	r2, [r3]
3000b9e0:	e51b301c 	ldr	r3, [fp, #-28]
3000b9e4:	e0823003 	add	r3, r2, r3
3000b9e8:	e2433030 	sub	r3, r3, #48	; 0x30
3000b9ec:	e50b301c 	str	r3, [fp, #-28]
3000b9f0:	e51b3010 	ldr	r3, [fp, #-16]
3000b9f4:	e2833001 	add	r3, r3, #1	; 0x1
3000b9f8:	e50b3010 	str	r3, [fp, #-16]
3000b9fc:	eaffffe7 	b	3000b9a0 <my_vprintf+0x9c>
3000ba00:	e51b3010 	ldr	r3, [fp, #-16]
3000ba04:	e5d33000 	ldrb	r3, [r3]
3000ba08:	e2433063 	sub	r3, r3, #99	; 0x63
3000ba0c:	e3530015 	cmp	r3, #21	; 0x15
3000ba10:	979ff103 	ldrls	pc, [pc, r3, lsl #2]
3000ba14:	ea000057 	b	3000bb78 <.text+0x3bb8>
3000ba18:	3000bb30 	andcc	fp, r0, r0, lsr fp
3000ba1c:	3000ba70 	andcc	fp, r0, r0, ror sl
3000ba20:	3000bb78 	andcc	fp, r0, r8, ror fp
3000ba24:	3000bb78 	andcc	fp, r0, r8, ror fp
3000ba28:	3000bb78 	andcc	fp, r0, r8, ror fp
3000ba2c:	3000bb78 	andcc	fp, r0, r8, ror fp
3000ba30:	3000bb78 	andcc	fp, r0, r8, ror fp
3000ba34:	3000bb78 	andcc	fp, r0, r8, ror fp
3000ba38:	3000bb78 	andcc	fp, r0, r8, ror fp
3000ba3c:	3000bb78 	andcc	fp, r0, r8, ror fp
3000ba40:	3000bb78 	andcc	fp, r0, r8, ror fp
3000ba44:	3000bb78 	andcc	fp, r0, r8, ror fp
3000ba48:	3000baa0 	andcc	fp, r0, r0, lsr #21
3000ba4c:	3000bb78 	andcc	fp, r0, r8, ror fp
3000ba50:	3000bb78 	andcc	fp, r0, r8, ror fp
3000ba54:	3000bb78 	andcc	fp, r0, r8, ror fp
3000ba58:	3000bb54 	andcc	fp, r0, r4, asr fp
3000ba5c:	3000bb78 	andcc	fp, r0, r8, ror fp
3000ba60:	3000bad0 	ldrccd	fp, [r0], -r0
3000ba64:	3000bb78 	andcc	fp, r0, r8, ror fp
3000ba68:	3000bb78 	andcc	fp, r0, r8, ror fp
3000ba6c:	3000bb00 	andcc	fp, r0, r0, lsl #22
3000ba70:	e51b3014 	ldr	r3, [fp, #-20]
3000ba74:	e2833004 	add	r3, r3, #4	; 0x4
3000ba78:	e50b3014 	str	r3, [fp, #-20]
3000ba7c:	e3e02003 	mvn	r2, #3	; 0x3
3000ba80:	e51b3014 	ldr	r3, [fp, #-20]
3000ba84:	e0823003 	add	r3, r2, r3
3000ba88:	e55b2015 	ldrb	r2, [fp, #-21]
3000ba8c:	e5930000 	ldr	r0, [r3]
3000ba90:	e3a0100a 	mov	r1, #10	; 0xa
3000ba94:	e51b301c 	ldr	r3, [fp, #-28]
3000ba98:	ebffff39 	bl	3000b784 <out_num>
3000ba9c:	ea000039 	b	3000bb88 <.text+0x3bc8>
3000baa0:	e51b3014 	ldr	r3, [fp, #-20]
3000baa4:	e2833004 	add	r3, r3, #4	; 0x4
3000baa8:	e50b3014 	str	r3, [fp, #-20]
3000baac:	e3e02003 	mvn	r2, #3	; 0x3
3000bab0:	e51b3014 	ldr	r3, [fp, #-20]
3000bab4:	e0823003 	add	r3, r2, r3
3000bab8:	e55b2015 	ldrb	r2, [fp, #-21]
3000babc:	e5930000 	ldr	r0, [r3]
3000bac0:	e3a01008 	mov	r1, #8	; 0x8
3000bac4:	e51b301c 	ldr	r3, [fp, #-28]
3000bac8:	ebffff2d 	bl	3000b784 <out_num>
3000bacc:	ea00002d 	b	3000bb88 <.text+0x3bc8>
3000bad0:	e51b3014 	ldr	r3, [fp, #-20]
3000bad4:	e2833004 	add	r3, r3, #4	; 0x4
3000bad8:	e50b3014 	str	r3, [fp, #-20]
3000badc:	e3e02003 	mvn	r2, #3	; 0x3
3000bae0:	e51b3014 	ldr	r3, [fp, #-20]
3000bae4:	e0823003 	add	r3, r2, r3
3000bae8:	e55b2015 	ldrb	r2, [fp, #-21]
3000baec:	e5930000 	ldr	r0, [r3]
3000baf0:	e3a0100a 	mov	r1, #10	; 0xa
3000baf4:	e51b301c 	ldr	r3, [fp, #-28]
3000baf8:	ebffff21 	bl	3000b784 <out_num>
3000bafc:	ea000021 	b	3000bb88 <.text+0x3bc8>
3000bb00:	e51b3014 	ldr	r3, [fp, #-20]
3000bb04:	e2833004 	add	r3, r3, #4	; 0x4
3000bb08:	e50b3014 	str	r3, [fp, #-20]
3000bb0c:	e3e02003 	mvn	r2, #3	; 0x3
3000bb10:	e51b3014 	ldr	r3, [fp, #-20]
3000bb14:	e0823003 	add	r3, r2, r3
3000bb18:	e55b2015 	ldrb	r2, [fp, #-21]
3000bb1c:	e5930000 	ldr	r0, [r3]
3000bb20:	e3a01010 	mov	r1, #16	; 0x10
3000bb24:	e51b301c 	ldr	r3, [fp, #-28]
3000bb28:	ebffff15 	bl	3000b784 <out_num>
3000bb2c:	ea000015 	b	3000bb88 <.text+0x3bc8>
3000bb30:	e51b3014 	ldr	r3, [fp, #-20]
3000bb34:	e2833004 	add	r3, r3, #4	; 0x4
3000bb38:	e50b3014 	str	r3, [fp, #-20]
3000bb3c:	e3e02003 	mvn	r2, #3	; 0x3
3000bb40:	e51b3014 	ldr	r3, [fp, #-20]
3000bb44:	e0823003 	add	r3, r2, r3
3000bb48:	e5930000 	ldr	r0, [r3]
3000bb4c:	ebfffeeb 	bl	3000b700 <outc>
3000bb50:	ea00000c 	b	3000bb88 <.text+0x3bc8>
3000bb54:	e51b3014 	ldr	r3, [fp, #-20]
3000bb58:	e2833004 	add	r3, r3, #4	; 0x4
3000bb5c:	e50b3014 	str	r3, [fp, #-20]
3000bb60:	e3e02003 	mvn	r2, #3	; 0x3
3000bb64:	e51b3014 	ldr	r3, [fp, #-20]
3000bb68:	e0823003 	add	r3, r2, r3
3000bb6c:	e5930000 	ldr	r0, [r3]
3000bb70:	ebfffeee 	bl	3000b730 <outs>
3000bb74:	ea000003 	b	3000bb88 <.text+0x3bc8>
3000bb78:	e51b3010 	ldr	r3, [fp, #-16]
3000bb7c:	e5d33000 	ldrb	r3, [r3]
3000bb80:	e1a00003 	mov	r0, r3
3000bb84:	ebfffedd 	bl	3000b700 <outc>
3000bb88:	e51b3010 	ldr	r3, [fp, #-16]
3000bb8c:	e2833001 	add	r3, r3, #1	; 0x1
3000bb90:	e50b3010 	str	r3, [fp, #-16]
3000bb94:	eaffff64 	b	3000b92c <my_vprintf+0x28>
3000bb98:	e3a03000 	mov	r3, #0	; 0x0
3000bb9c:	e1a00003 	mov	r0, r3
3000bba0:	e24bd00c 	sub	sp, fp, #12	; 0xc
3000bba4:	e89da800 	ldmia	sp, {fp, sp, pc}

3000bba8 <printf>:
3000bba8:	e1a0c00d 	mov	ip, sp
3000bbac:	e92d000f 	stmdb	sp!, {r0, r1, r2, r3}
3000bbb0:	e92dd800 	stmdb	sp!, {fp, ip, lr, pc}
3000bbb4:	e24cb014 	sub	fp, ip, #20	; 0x14
3000bbb8:	e24dd004 	sub	sp, sp, #4	; 0x4
3000bbbc:	e28b3008 	add	r3, fp, #8	; 0x8
3000bbc0:	e50b3010 	str	r3, [fp, #-16]
3000bbc4:	e59b0004 	ldr	r0, [fp, #4]
3000bbc8:	e51b1010 	ldr	r1, [fp, #-16]
3000bbcc:	ebffff4c 	bl	3000b904 <my_vprintf>
3000bbd0:	e3a03000 	mov	r3, #0	; 0x0
3000bbd4:	e50b3010 	str	r3, [fp, #-16]
3000bbd8:	e3a03000 	mov	r3, #0	; 0x0
3000bbdc:	e1a00003 	mov	r0, r3
3000bbe0:	e24bd00c 	sub	sp, fp, #12	; 0xc
3000bbe4:	e89da800 	ldmia	sp, {fp, sp, pc}

3000bbe8 <enterproc>:
3000bbe8:	e1a0c00d 	mov	ip, sp
3000bbec:	e92dd800 	stmdb	sp!, {fp, ip, lr, pc}
3000bbf0:	e24cb004 	sub	fp, ip, #4	; 0x4
3000bbf4:	e24dd004 	sub	sp, sp, #4	; 0x4
3000bbf8:	e50b0010 	str	r0, [fp, #-16]
3000bbfc:	e89da808 	ldmia	sp, {r3, fp, sp, pc}

3000bc00 <opendebug>:
3000bc00:	e1a0c00d 	mov	ip, sp
3000bc04:	e92dd800 	stmdb	sp!, {fp, ip, lr, pc}
3000bc08:	e24cb004 	sub	fp, ip, #4	; 0x4
3000bc0c:	e24dd004 	sub	sp, sp, #4	; 0x4
3000bc10:	e50b0010 	str	r0, [fp, #-16]
3000bc14:	e3a00001 	mov	r0, #1	; 0x1
3000bc18:	ebfffc94 	bl	3000ae70 <setdebug>
3000bc1c:	e89da808 	ldmia	sp, {r3, fp, sp, pc}

3000bc20 <closedebug>:
3000bc20:	e1a0c00d 	mov	ip, sp
3000bc24:	e92dd800 	stmdb	sp!, {fp, ip, lr, pc}
3000bc28:	e24cb004 	sub	fp, ip, #4	; 0x4
3000bc2c:	e24dd004 	sub	sp, sp, #4	; 0x4
3000bc30:	e50b0010 	str	r0, [fp, #-16]
3000bc34:	e3a00000 	mov	r0, #0	; 0x0
3000bc38:	ebfffc8c 	bl	3000ae70 <setdebug>
3000bc3c:	e89da808 	ldmia	sp, {r3, fp, sp, pc}

3000bc40 <getheapmem>:
3000bc40:	e1a0c00d 	mov	ip, sp
3000bc44:	e92dd800 	stmdb	sp!, {fp, ip, lr, pc}
3000bc48:	e24cb004 	sub	fp, ip, #4	; 0x4
3000bc4c:	e24dd00c 	sub	sp, sp, #12	; 0xc
3000bc50:	e50b0010 	str	r0, [fp, #-16]
3000bc54:	e24b3018 	sub	r3, fp, #24	; 0x18
3000bc58:	e1a00003 	mov	r0, r3
3000bc5c:	ebfffd93 	bl	3000b2b0 <getheapmeminfo>
3000bc60:	e3e0300b 	mvn	r3, #11	; 0xb
3000bc64:	e24b000c 	sub	r0, fp, #12	; 0xc
3000bc68:	e0801003 	add	r1, r0, r3
3000bc6c:	e3e0300b 	mvn	r3, #11	; 0xb
3000bc70:	e24b000c 	sub	r0, fp, #12	; 0xc
3000bc74:	e0802003 	add	r2, r0, r3
3000bc78:	e3e0300b 	mvn	r3, #11	; 0xb
3000bc7c:	e24b000c 	sub	r0, fp, #12	; 0xc
3000bc80:	e0803003 	add	r3, r0, r3
3000bc84:	e5922000 	ldr	r2, [r2]
3000bc88:	e5933004 	ldr	r3, [r3, #4]
3000bc8c:	e0632002 	rsb	r2, r3, r2
3000bc90:	e3e0300b 	mvn	r3, #11	; 0xb
3000bc94:	e24b000c 	sub	r0, fp, #12	; 0xc
3000bc98:	e0803003 	add	r3, r0, r3
3000bc9c:	e59f0010 	ldr	r0, [pc, #16]	; 3000bcb4 <.text+0x3cf4>
3000bca0:	e5911000 	ldr	r1, [r1]
3000bca4:	e5933004 	ldr	r3, [r3, #4]
3000bca8:	ebffffbe 	bl	3000bba8 <printf>
3000bcac:	e24bd00c 	sub	sp, fp, #12	; 0xc
3000bcb0:	e89da800 	ldmia	sp, {fp, sp, pc}
3000bcb4:	3000fad0 	ldrccd	pc, [r0], -r0

3000bcb8 <reboot>:
3000bcb8:	e1a0c00d 	mov	ip, sp
3000bcbc:	e92dd800 	stmdb	sp!, {fp, ip, lr, pc}
3000bcc0:	e24cb004 	sub	fp, ip, #4	; 0x4
3000bcc4:	e24dd004 	sub	sp, sp, #4	; 0x4
3000bcc8:	e50b0010 	str	r0, [fp, #-16]
3000bccc:	e59f0008 	ldr	r0, [pc, #8]	; 3000bcdc <.text+0x3d1c>
3000bcd0:	ebffffb4 	bl	3000bba8 <printf>
3000bcd4:	ebfff11f 	bl	30008158 <_reboot>
3000bcd8:	e89da808 	ldmia	sp, {r3, fp, sp, pc}
3000bcdc:	3000faf0 	strccd	pc, [r0], -r0

3000bce0 <getfileinfo>:
3000bce0:	e1a0c00d 	mov	ip, sp
3000bce4:	e92dd810 	stmdb	sp!, {r4, fp, ip, lr, pc}
3000bce8:	e24cb004 	sub	fp, ip, #4	; 0x4
3000bcec:	e24dd014 	sub	sp, sp, #20	; 0x14
3000bcf0:	e50b0014 	str	r0, [fp, #-20]
3000bcf4:	e50b1018 	str	r1, [fp, #-24]
3000bcf8:	e51b3014 	ldr	r3, [fp, #-20]
3000bcfc:	e50b301c 	str	r3, [fp, #-28]
3000bd00:	e51b0014 	ldr	r0, [fp, #-20]
3000bd04:	e59f10c0 	ldr	r1, [pc, #192]	; 3000bdcc <.text+0x3e0c>
3000bd08:	eb000735 	bl	3000d9e4 <strstr>
3000bd0c:	e1a03000 	mov	r3, r0
3000bd10:	e50b301c 	str	r3, [fp, #-28]
3000bd14:	e51b301c 	ldr	r3, [fp, #-28]
3000bd18:	e283300a 	add	r3, r3, #10	; 0xa
3000bd1c:	e50b3020 	str	r3, [fp, #-32]
3000bd20:	e51b3020 	ldr	r3, [fp, #-32]
3000bd24:	e5d33000 	ldrb	r3, [r3]
3000bd28:	e3530020 	cmp	r3, #32	; 0x20
3000bd2c:	1a000003 	bne	3000bd40 <getfileinfo+0x60>
3000bd30:	e51b3020 	ldr	r3, [fp, #-32]
3000bd34:	e2833001 	add	r3, r3, #1	; 0x1
3000bd38:	e50b3020 	str	r3, [fp, #-32]
3000bd3c:	eafffff7 	b	3000bd20 <getfileinfo+0x40>
3000bd40:	e51b3020 	ldr	r3, [fp, #-32]
3000bd44:	e50b3024 	str	r3, [fp, #-36]
3000bd48:	e51b3024 	ldr	r3, [fp, #-36]
3000bd4c:	e5d33000 	ldrb	r3, [r3]
3000bd50:	e3530020 	cmp	r3, #32	; 0x20
3000bd54:	0a000003 	beq	3000bd68 <getfileinfo+0x88>
3000bd58:	e51b3024 	ldr	r3, [fp, #-36]
3000bd5c:	e2833001 	add	r3, r3, #1	; 0x1
3000bd60:	e50b3024 	str	r3, [fp, #-36]
3000bd64:	eafffff7 	b	3000bd48 <getfileinfo+0x68>
3000bd68:	e51b3018 	ldr	r3, [fp, #-24]
3000bd6c:	e2831004 	add	r1, r3, #4	; 0x4
3000bd70:	e51b2024 	ldr	r2, [fp, #-36]
3000bd74:	e51b3020 	ldr	r3, [fp, #-32]
3000bd78:	e0633002 	rsb	r3, r3, r2
3000bd7c:	e1a00001 	mov	r0, r1
3000bd80:	e51b1020 	ldr	r1, [fp, #-32]
3000bd84:	e1a02003 	mov	r2, r3
3000bd88:	eb0006eb 	bl	3000d93c <strncpy>
3000bd8c:	e51b3024 	ldr	r3, [fp, #-36]
3000bd90:	e5d33000 	ldrb	r3, [r3]
3000bd94:	e3530020 	cmp	r3, #32	; 0x20
3000bd98:	1a000003 	bne	3000bdac <getfileinfo+0xcc>
3000bd9c:	e51b3024 	ldr	r3, [fp, #-36]
3000bda0:	e2833001 	add	r3, r3, #1	; 0x1
3000bda4:	e50b3024 	str	r3, [fp, #-36]
3000bda8:	eafffff7 	b	3000bd8c <getfileinfo+0xac>
3000bdac:	e51b4018 	ldr	r4, [fp, #-24]
3000bdb0:	e51b0024 	ldr	r0, [fp, #-36]
3000bdb4:	eb000154 	bl	3000c30c <_atoi>
3000bdb8:	e5840000 	str	r0, [r4]
3000bdbc:	e3a03000 	mov	r3, #0	; 0x0
3000bdc0:	e1a00003 	mov	r0, r3
3000bdc4:	e24bd010 	sub	sp, fp, #16	; 0x10
3000bdc8:	e89da810 	ldmia	sp, {r4, fp, sp, pc}
3000bdcc:	3000fb08 	andcc	pc, r0, r8, lsl #22

3000bdd0 <getnextcmd>:
3000bdd0:	e1a0c00d 	mov	ip, sp
3000bdd4:	e92dd800 	stmdb	sp!, {fp, ip, lr, pc}
3000bdd8:	e24cb004 	sub	fp, ip, #4	; 0x4
3000bddc:	e24dd008 	sub	sp, sp, #8	; 0x8
3000bde0:	e50b0010 	str	r0, [fp, #-16]
3000bde4:	e51b3010 	ldr	r3, [fp, #-16]
3000bde8:	e50b3014 	str	r3, [fp, #-20]
3000bdec:	e51b0010 	ldr	r0, [fp, #-16]
3000bdf0:	e59f1040 	ldr	r1, [pc, #64]	; 3000be38 <.text+0x3e78>
3000bdf4:	eb0006fa 	bl	3000d9e4 <strstr>
3000bdf8:	e1a03000 	mov	r3, r0
3000bdfc:	e50b3014 	str	r3, [fp, #-20]
3000be00:	e51b3014 	ldr	r3, [fp, #-20]
3000be04:	e3530000 	cmp	r3, #0	; 0x0
3000be08:	0a000006 	beq	3000be28 <getnextcmd+0x58>
3000be0c:	e51b3014 	ldr	r3, [fp, #-20]
3000be10:	e3530000 	cmp	r3, #0	; 0x0
3000be14:	0a000003 	beq	3000be28 <getnextcmd+0x58>
3000be18:	e51b3014 	ldr	r3, [fp, #-20]
3000be1c:	e2833001 	add	r3, r3, #1	; 0x1
3000be20:	e50b3010 	str	r3, [fp, #-16]
3000be24:	eafffff0 	b	3000bdec <getnextcmd+0x1c>
3000be28:	e51b3010 	ldr	r3, [fp, #-16]
3000be2c:	e1a00003 	mov	r0, r3
3000be30:	e24bd00c 	sub	sp, fp, #12	; 0xc
3000be34:	e89da800 	ldmia	sp, {fp, sp, pc}
3000be38:	3000fb14 	andcc	pc, r0, r4, lsl fp

3000be3c <comfileget>:
3000be3c:	e1a0c00d 	mov	ip, sp
3000be40:	e92dd810 	stmdb	sp!, {r4, fp, ip, lr, pc}
3000be44:	e24cb004 	sub	fp, ip, #4	; 0x4
3000be48:	e24dd05c 	sub	sp, sp, #92	; 0x5c
3000be4c:	e50b0014 	str	r0, [fp, #-20]
3000be50:	e3a03000 	mov	r3, #0	; 0x0
3000be54:	e50b3018 	str	r3, [fp, #-24]
3000be58:	e3a03000 	mov	r3, #0	; 0x0
3000be5c:	e50b3064 	str	r3, [fp, #-100]
3000be60:	e24b3060 	sub	r3, fp, #96	; 0x60
3000be64:	e1a00003 	mov	r0, r3
3000be68:	e3a01000 	mov	r1, #0	; 0x0
3000be6c:	e3a02044 	mov	r2, #68	; 0x44
3000be70:	eb000716 	bl	3000dad0 <memset>
3000be74:	e24b3060 	sub	r3, fp, #96	; 0x60
3000be78:	e51b0014 	ldr	r0, [fp, #-20]
3000be7c:	e1a01003 	mov	r1, r3
3000be80:	ebffff96 	bl	3000bce0 <getfileinfo>
3000be84:	e24b3060 	sub	r3, fp, #96	; 0x60
3000be88:	e2833004 	add	r3, r3, #4	; 0x4
3000be8c:	e59f0148 	ldr	r0, [pc, #328]	; 3000bfdc <.text+0x401c>
3000be90:	e1a01003 	mov	r1, r3
3000be94:	e51b2060 	ldr	r2, [fp, #-96]
3000be98:	ebffff42 	bl	3000bba8 <printf>
3000be9c:	e51b3060 	ldr	r3, [fp, #-96]
3000bea0:	e3530000 	cmp	r3, #0	; 0x0
3000bea4:	ca000002 	bgt	3000beb4 <comfileget+0x78>
3000bea8:	e59f0130 	ldr	r0, [pc, #304]	; 3000bfe0 <.text+0x4020>
3000beac:	ebffff3d 	bl	3000bba8 <printf>
3000beb0:	ea000047 	b	3000bfd4 <comfileget+0x198>
3000beb4:	e3a00802 	mov	r0, #131072	; 0x20000
3000beb8:	ebfffc46 	bl	3000afd8 <New>
3000bebc:	e50b0064 	str	r0, [fp, #-100]
3000bec0:	e51b3064 	ldr	r3, [fp, #-100]
3000bec4:	e3530000 	cmp	r3, #0	; 0x0
3000bec8:	1a000002 	bne	3000bed8 <comfileget+0x9c>
3000becc:	e59f010c 	ldr	r0, [pc, #268]	; 3000bfe0 <.text+0x4020>
3000bed0:	ebffff34 	bl	3000bba8 <printf>
3000bed4:	ea00003e 	b	3000bfd4 <comfileget+0x198>
3000bed8:	e24b3060 	sub	r3, fp, #96	; 0x60
3000bedc:	e2833004 	add	r3, r3, #4	; 0x4
3000bee0:	e1a00003 	mov	r0, r3
3000bee4:	e51b1060 	ldr	r1, [fp, #-96]
3000bee8:	eb0005d8 	bl	3000d650 <filesystem_make_file>
3000beec:	e50b0068 	str	r0, [fp, #-104]
3000bef0:	e51b3068 	ldr	r3, [fp, #-104]
3000bef4:	e2833008 	add	r3, r3, #8	; 0x8
3000bef8:	e51b2068 	ldr	r2, [fp, #-104]
3000befc:	e51bc068 	ldr	ip, [fp, #-104]
3000bf00:	e59f00dc 	ldr	r0, [pc, #220]	; 3000bfe4 <.text+0x4024>
3000bf04:	e1a01003 	mov	r1, r3
3000bf08:	e5922004 	ldr	r2, [r2, #4]
3000bf0c:	e59c3000 	ldr	r3, [ip]
3000bf10:	ebffff24 	bl	3000bba8 <printf>
3000bf14:	e59f00cc 	ldr	r0, [pc, #204]	; 3000bfe8 <.text+0x4028>
3000bf18:	ebffff22 	bl	3000bba8 <printf>
3000bf1c:	e3a03000 	mov	r3, #0	; 0x0
3000bf20:	e50b306c 	str	r3, [fp, #-108]
3000bf24:	ebfff5ef 	bl	300096e8 <getchar>
3000bf28:	e24b3060 	sub	r3, fp, #96	; 0x60
3000bf2c:	e5932000 	ldr	r2, [r3]
3000bf30:	e1a01002 	mov	r1, r2
3000bf34:	e2422001 	sub	r2, r2, #1	; 0x1
3000bf38:	e5832000 	str	r2, [r3]
3000bf3c:	e3510000 	cmp	r1, #0	; 0x0
3000bf40:	da000019 	ble	3000bfac <comfileget+0x170>
3000bf44:	e24b0018 	sub	r0, fp, #24	; 0x18
3000bf48:	e5903000 	ldr	r3, [r0]
3000bf4c:	e1a01003 	mov	r1, r3
3000bf50:	e51b2064 	ldr	r2, [fp, #-100]
3000bf54:	e0814002 	add	r4, r1, r2
3000bf58:	e2833001 	add	r3, r3, #1	; 0x1
3000bf5c:	e5803000 	str	r3, [r0]
3000bf60:	ebfff5e0 	bl	300096e8 <getchar>
3000bf64:	e1a03000 	mov	r3, r0
3000bf68:	e5c43000 	strb	r3, [r4]
3000bf6c:	e51b3018 	ldr	r3, [fp, #-24]
3000bf70:	e3530802 	cmp	r3, #131072	; 0x20000
3000bf74:	1affffeb 	bne	3000bf28 <comfileget+0xec>
3000bf78:	e51b306c 	ldr	r3, [fp, #-108]
3000bf7c:	e1a03883 	mov	r3, r3, lsl #17
3000bf80:	e51b0068 	ldr	r0, [fp, #-104]
3000bf84:	e3a01802 	mov	r1, #131072	; 0x20000
3000bf88:	e1a02003 	mov	r2, r3
3000bf8c:	e51b3064 	ldr	r3, [fp, #-100]
3000bf90:	eb0005ec 	bl	3000d748 <filesystem_write_file>
3000bf94:	e51b306c 	ldr	r3, [fp, #-108]
3000bf98:	e2833001 	add	r3, r3, #1	; 0x1
3000bf9c:	e50b306c 	str	r3, [fp, #-108]
3000bfa0:	e3a03000 	mov	r3, #0	; 0x0
3000bfa4:	e50b3018 	str	r3, [fp, #-24]
3000bfa8:	eaffffde 	b	3000bf28 <comfileget+0xec>
3000bfac:	e51b306c 	ldr	r3, [fp, #-108]
3000bfb0:	e1a03883 	mov	r3, r3, lsl #17
3000bfb4:	e51b0068 	ldr	r0, [fp, #-104]
3000bfb8:	e3a01802 	mov	r1, #131072	; 0x20000
3000bfbc:	e1a02003 	mov	r2, r3
3000bfc0:	e51b3064 	ldr	r3, [fp, #-100]
3000bfc4:	eb0005df 	bl	3000d748 <filesystem_write_file>
3000bfc8:	e51b0064 	ldr	r0, [fp, #-100]
3000bfcc:	ebfffc62 	bl	3000b15c <Delete>
3000bfd0:	eb0004b9 	bl	3000d2bc <filesystem_sync>
3000bfd4:	e24bd010 	sub	sp, fp, #16	; 0x10
3000bfd8:	e89da810 	ldmia	sp, {r4, fp, sp, pc}
3000bfdc:	3000fb18 	andcc	pc, r0, r8, lsl fp
3000bfe0:	3000fb54 	andcc	pc, r0, r4, asr fp
3000bfe4:	3000fb7c 	andcc	pc, r0, ip, ror fp
3000bfe8:	3000fbac 	andcc	pc, r0, ip, lsr #23

3000bfec <flashclear>:
3000bfec:	e1a0c00d 	mov	ip, sp
3000bff0:	e92dd800 	stmdb	sp!, {fp, ip, lr, pc}
3000bff4:	e24cb004 	sub	fp, ip, #4	; 0x4
3000bff8:	e24dd004 	sub	sp, sp, #4	; 0x4
3000bffc:	e50b0010 	str	r0, [fp, #-16]
3000c000:	eb0004bc 	bl	3000d2f8 <filesystem_erase>
3000c004:	e59f0004 	ldr	r0, [pc, #4]	; 3000c010 <.text+0x4050>
3000c008:	ebfffee6 	bl	3000bba8 <printf>
3000c00c:	e89da808 	ldmia	sp, {r3, fp, sp, pc}
3000c010:	3000fbd4 	ldrccd	pc, [r0], -r4

3000c014 <tree>:
3000c014:	e1a0c00d 	mov	ip, sp
3000c018:	e92dd800 	stmdb	sp!, {fp, ip, lr, pc}
3000c01c:	e24cb004 	sub	fp, ip, #4	; 0x4
3000c020:	e24dd004 	sub	sp, sp, #4	; 0x4
3000c024:	e50b0010 	str	r0, [fp, #-16]
3000c028:	eb000614 	bl	3000d880 <filesystem_print_tree>
3000c02c:	e89da808 	ldmia	sp, {r3, fp, sp, pc}

3000c030 <mkfile>:
3000c030:	e1a0c00d 	mov	ip, sp
3000c034:	e92dd800 	stmdb	sp!, {fp, ip, lr, pc}
3000c038:	e24cb004 	sub	fp, ip, #4	; 0x4
3000c03c:	e24dd004 	sub	sp, sp, #4	; 0x4
3000c040:	e50b0010 	str	r0, [fp, #-16]
3000c044:	e51b0010 	ldr	r0, [fp, #-16]
3000c048:	ebffff60 	bl	3000bdd0 <getnextcmd>
3000c04c:	e1a03000 	mov	r3, r0
3000c050:	e1a00003 	mov	r0, r3
3000c054:	eb00057d 	bl	3000d650 <filesystem_make_file>
3000c058:	e89da808 	ldmia	sp, {r3, fp, sp, pc}

3000c05c <sync>:
3000c05c:	e1a0c00d 	mov	ip, sp
3000c060:	e92dd800 	stmdb	sp!, {fp, ip, lr, pc}
3000c064:	e24cb004 	sub	fp, ip, #4	; 0x4
3000c068:	e24dd004 	sub	sp, sp, #4	; 0x4
3000c06c:	e50b0010 	str	r0, [fp, #-16]
3000c070:	eb000491 	bl	3000d2bc <filesystem_sync>
3000c074:	e89da808 	ldmia	sp, {r3, fp, sp, pc}

3000c078 <shellproc>:
3000c078:	e1a0c00d 	mov	ip, sp
3000c07c:	e92dd800 	stmdb	sp!, {fp, ip, lr, pc}
3000c080:	e24cb004 	sub	fp, ip, #4	; 0x4
3000c084:	e24dd008 	sub	sp, sp, #8	; 0x8
3000c088:	e50b0010 	str	r0, [fp, #-16]
3000c08c:	e3a03000 	mov	r3, #0	; 0x0
3000c090:	e50b3014 	str	r3, [fp, #-20]
3000c094:	e3a03000 	mov	r3, #0	; 0x0
3000c098:	e50b3014 	str	r3, [fp, #-20]
3000c09c:	e51b3014 	ldr	r3, [fp, #-20]
3000c0a0:	e3530009 	cmp	r3, #9	; 0x9
3000c0a4:	8a000018 	bhi	3000c10c <shellproc+0x94>
3000c0a8:	e59f207c 	ldr	r2, [pc, #124]	; 3000c12c <.text+0x416c>
3000c0ac:	e51b3014 	ldr	r3, [fp, #-20]
3000c0b0:	e51b0010 	ldr	r0, [fp, #-16]
3000c0b4:	e7921183 	ldr	r1, [r2, r3, lsl #3]
3000c0b8:	eb000649 	bl	3000d9e4 <strstr>
3000c0bc:	e1a03000 	mov	r3, r0
3000c0c0:	e1a02003 	mov	r2, r3
3000c0c4:	e51b3010 	ldr	r3, [fp, #-16]
3000c0c8:	e1520003 	cmp	r2, r3
3000c0cc:	1a00000a 	bne	3000c0fc <shellproc+0x84>
3000c0d0:	e59f2054 	ldr	r2, [pc, #84]	; 3000c12c <.text+0x416c>
3000c0d4:	e51b3014 	ldr	r3, [fp, #-20]
3000c0d8:	e3a01004 	mov	r1, #4	; 0x4
3000c0dc:	e1a03183 	mov	r3, r3, lsl #3
3000c0e0:	e0833002 	add	r3, r3, r2
3000c0e4:	e0833001 	add	r3, r3, r1
3000c0e8:	e5933000 	ldr	r3, [r3]
3000c0ec:	e51b0010 	ldr	r0, [fp, #-16]
3000c0f0:	e1a0e00f 	mov	lr, pc
3000c0f4:	e1a0f003 	mov	pc, r3
3000c0f8:	ea000003 	b	3000c10c <shellproc+0x94>
3000c0fc:	e51b3014 	ldr	r3, [fp, #-20]
3000c100:	e2833001 	add	r3, r3, #1	; 0x1
3000c104:	e50b3014 	str	r3, [fp, #-20]
3000c108:	eaffffe3 	b	3000c09c <shellproc+0x24>
3000c10c:	e51b3014 	ldr	r3, [fp, #-20]
3000c110:	e353000a 	cmp	r3, #10	; 0xa
3000c114:	1a000002 	bne	3000c124 <shellproc+0xac>
3000c118:	e59f0010 	ldr	r0, [pc, #16]	; 3000c130 <.text+0x4170>
3000c11c:	e51b1010 	ldr	r1, [fp, #-16]
3000c120:	ebfffea0 	bl	3000bba8 <printf>
3000c124:	e24bd00c 	sub	sp, fp, #12	; 0xc
3000c128:	e89da800 	ldmia	sp, {fp, sp, pc}
3000c12c:	3000ffc8 	andcc	pc, r0, r8, asr #31
3000c130:	3000fc30 	andcc	pc, r0, r0, lsr ip

3000c134 <task_shell>:
3000c134:	e1a0c00d 	mov	ip, sp
3000c138:	e92dd800 	stmdb	sp!, {fp, ip, lr, pc}
3000c13c:	e24cb004 	sub	fp, ip, #4	; 0x4
3000c140:	e24ddf43 	sub	sp, sp, #268	; 0x10c
3000c144:	e50b0010 	str	r0, [fp, #-16]
3000c148:	e3a03000 	mov	r3, #0	; 0x0
3000c14c:	e54b3011 	strb	r3, [fp, #-17]
3000c150:	e24b3f45 	sub	r3, fp, #276	; 0x114
3000c154:	e3a02c01 	mov	r2, #256	; 0x100
3000c158:	e1a00003 	mov	r0, r3
3000c15c:	e3a01000 	mov	r1, #0	; 0x0
3000c160:	eb00065a 	bl	3000dad0 <memset>
3000c164:	e3a03000 	mov	r3, #0	; 0x0
3000c168:	e50b3118 	str	r3, [fp, #-280]
3000c16c:	e24b3f45 	sub	r3, fp, #276	; 0x114
3000c170:	e50b3118 	str	r3, [fp, #-280]
3000c174:	e59f00c0 	ldr	r0, [pc, #192]	; 3000c23c <.text+0x427c>
3000c178:	ebfff548 	bl	300096a0 <puts>
3000c17c:	ebfff559 	bl	300096e8 <getchar>
3000c180:	e1a03000 	mov	r3, r0
3000c184:	e54b3011 	strb	r3, [fp, #-17]
3000c188:	e55b3011 	ldrb	r3, [fp, #-17]
3000c18c:	e353000d 	cmp	r3, #13	; 0xd
3000c190:	0a000003 	beq	3000c1a4 <task_shell+0x70>
3000c194:	e55b3011 	ldrb	r3, [fp, #-17]
3000c198:	e353000a 	cmp	r3, #10	; 0xa
3000c19c:	0a000000 	beq	3000c1a4 <task_shell+0x70>
3000c1a0:	ea000014 	b	3000c1f8 <task_shell+0xc4>
3000c1a4:	e59f0094 	ldr	r0, [pc, #148]	; 3000c240 <.text+0x4280>
3000c1a8:	ebfff53c 	bl	300096a0 <puts>
3000c1ac:	e24b2f45 	sub	r2, fp, #276	; 0x114
3000c1b0:	e51b3118 	ldr	r3, [fp, #-280]
3000c1b4:	e1520003 	cmp	r2, r3
3000c1b8:	1a000006 	bne	3000c1d8 <task_shell+0xa4>
3000c1bc:	e24b0f46 	sub	r0, fp, #280	; 0x118
3000c1c0:	e5902000 	ldr	r2, [r0]
3000c1c4:	e1a01002 	mov	r1, r2
3000c1c8:	e3a0300a 	mov	r3, #10	; 0xa
3000c1cc:	e5c13000 	strb	r3, [r1]
3000c1d0:	e2822001 	add	r2, r2, #1	; 0x1
3000c1d4:	e5802000 	str	r2, [r0]
3000c1d8:	e24b0f46 	sub	r0, fp, #280	; 0x118
3000c1dc:	e5902000 	ldr	r2, [r0]
3000c1e0:	e1a01002 	mov	r1, r2
3000c1e4:	e3a03000 	mov	r3, #0	; 0x0
3000c1e8:	e5c13000 	strb	r3, [r1]
3000c1ec:	e2822001 	add	r2, r2, #1	; 0x1
3000c1f0:	e5802000 	str	r2, [r0]
3000c1f4:	ea00000a 	b	3000c224 <task_shell+0xf0>
3000c1f8:	e55b3011 	ldrb	r3, [fp, #-17]
3000c1fc:	e1a00003 	mov	r0, r3
3000c200:	ebfff50f 	bl	30009644 <putchar>
3000c204:	e24b0f46 	sub	r0, fp, #280	; 0x118
3000c208:	e5903000 	ldr	r3, [r0]
3000c20c:	e1a01003 	mov	r1, r3
3000c210:	e55b2011 	ldrb	r2, [fp, #-17]
3000c214:	e5c12000 	strb	r2, [r1]
3000c218:	e2833001 	add	r3, r3, #1	; 0x1
3000c21c:	e5803000 	str	r3, [r0]
3000c220:	eaffffd5 	b	3000c17c <task_shell+0x48>
3000c224:	ebfff4ba 	bl	30009514 <Enter_Critical>
3000c228:	e24b3f45 	sub	r3, fp, #276	; 0x114
3000c22c:	e1a00003 	mov	r0, r3
3000c230:	ebffff90 	bl	3000c078 <shellproc>
3000c234:	ebfff4a3 	bl	300094c8 <Exit_Critical>
3000c238:	eaffffcb 	b	3000c16c <task_shell+0x38>
3000c23c:	3000fc48 	andcc	pc, r0, r8, asr #24
3000c240:	3000fc4c 	andcc	pc, r0, ip, asr #24

3000c244 <LeadZeros>:
3000c244:	e1a0c00d 	mov	ip, sp
3000c248:	e92dd800 	stmdb	sp!, {fp, ip, lr, pc}
3000c24c:	e24cb004 	sub	fp, ip, #4	; 0x4
3000c250:	e24dd008 	sub	sp, sp, #8	; 0x8
3000c254:	e50b0010 	str	r0, [fp, #-16]
3000c258:	e51b2010 	ldr	r2, [fp, #-16]
3000c25c:	e3a03cff 	mov	r3, #65280	; 0xff00
3000c260:	e28330ff 	add	r3, r3, #255	; 0xff
3000c264:	e1520003 	cmp	r2, r3
3000c268:	9a000011 	bls	3000c2b4 <LeadZeros+0x70>
3000c26c:	e51b2010 	ldr	r2, [fp, #-16]
3000c270:	e3e034ff 	mvn	r3, #-16777216	; 0xff000000
3000c274:	e1520003 	cmp	r2, r3
3000c278:	9a000005 	bls	3000c294 <LeadZeros+0x50>
3000c27c:	e59f2084 	ldr	r2, [pc, #132]	; 3000c308 <.text+0x4348>
3000c280:	e51b3010 	ldr	r3, [fp, #-16]
3000c284:	e1a03c23 	mov	r3, r3, lsr #24
3000c288:	e7d23003 	ldrb	r3, [r2, r3]
3000c28c:	e50b3014 	str	r3, [fp, #-20]
3000c290:	ea000019 	b	3000c2fc <LeadZeros+0xb8>
3000c294:	e59f206c 	ldr	r2, [pc, #108]	; 3000c308 <.text+0x4348>
3000c298:	e51b3010 	ldr	r3, [fp, #-16]
3000c29c:	e1a03823 	mov	r3, r3, lsr #16
3000c2a0:	e7d23003 	ldrb	r3, [r2, r3]
3000c2a4:	e2833008 	add	r3, r3, #8	; 0x8
3000c2a8:	e20330ff 	and	r3, r3, #255	; 0xff
3000c2ac:	e50b3014 	str	r3, [fp, #-20]
3000c2b0:	ea000011 	b	3000c2fc <LeadZeros+0xb8>
3000c2b4:	e51b3010 	ldr	r3, [fp, #-16]
3000c2b8:	e35300ff 	cmp	r3, #255	; 0xff
3000c2bc:	9a000007 	bls	3000c2e0 <LeadZeros+0x9c>
3000c2c0:	e59f2040 	ldr	r2, [pc, #64]	; 3000c308 <.text+0x4348>
3000c2c4:	e51b3010 	ldr	r3, [fp, #-16]
3000c2c8:	e1a03423 	mov	r3, r3, lsr #8
3000c2cc:	e7d23003 	ldrb	r3, [r2, r3]
3000c2d0:	e2833010 	add	r3, r3, #16	; 0x10
3000c2d4:	e20330ff 	and	r3, r3, #255	; 0xff
3000c2d8:	e50b3014 	str	r3, [fp, #-20]
3000c2dc:	ea000006 	b	3000c2fc <LeadZeros+0xb8>
3000c2e0:	e59f2020 	ldr	r2, [pc, #32]	; 3000c308 <.text+0x4348>
3000c2e4:	e51b3010 	ldr	r3, [fp, #-16]
3000c2e8:	e0823003 	add	r3, r2, r3
3000c2ec:	e5d33000 	ldrb	r3, [r3]
3000c2f0:	e2833018 	add	r3, r3, #24	; 0x18
3000c2f4:	e20330ff 	and	r3, r3, #255	; 0xff
3000c2f8:	e50b3014 	str	r3, [fp, #-20]
3000c2fc:	e51b0014 	ldr	r0, [fp, #-20]
3000c300:	e24bd00c 	sub	sp, fp, #12	; 0xc
3000c304:	e89da800 	ldmia	sp, {fp, sp, pc}
3000c308:	3000fc50 	andcc	pc, r0, r0, asr ip

3000c30c <_atoi>:
3000c30c:	e1a0c00d 	mov	ip, sp
3000c310:	e92dd800 	stmdb	sp!, {fp, ip, lr, pc}
3000c314:	e24cb004 	sub	fp, ip, #4	; 0x4
3000c318:	e24dd00c 	sub	sp, sp, #12	; 0xc
3000c31c:	e50b0010 	str	r0, [fp, #-16]
3000c320:	e3a03000 	mov	r3, #0	; 0x0
3000c324:	e50b3014 	str	r3, [fp, #-20]
3000c328:	e51b3010 	ldr	r3, [fp, #-16]
3000c32c:	e3530000 	cmp	r3, #0	; 0x0
3000c330:	1a000002 	bne	3000c340 <_atoi+0x34>
3000c334:	e3a03000 	mov	r3, #0	; 0x0
3000c338:	e50b3018 	str	r3, [fp, #-24]
3000c33c:	ea000015 	b	3000c398 <_atoi+0x8c>
3000c340:	e51b2014 	ldr	r2, [fp, #-20]
3000c344:	e1a03002 	mov	r3, r2
3000c348:	e1a03103 	mov	r3, r3, lsl #2
3000c34c:	e0833002 	add	r3, r3, r2
3000c350:	e1a02083 	mov	r2, r3, lsl #1
3000c354:	e51b3010 	ldr	r3, [fp, #-16]
3000c358:	e5d33000 	ldrb	r3, [r3]
3000c35c:	e0823003 	add	r3, r2, r3
3000c360:	e2433030 	sub	r3, r3, #48	; 0x30
3000c364:	e50b3014 	str	r3, [fp, #-20]
3000c368:	e51b3010 	ldr	r3, [fp, #-16]
3000c36c:	e2833001 	add	r3, r3, #1	; 0x1
3000c370:	e50b3010 	str	r3, [fp, #-16]
3000c374:	e3530000 	cmp	r3, #0	; 0x0
3000c378:	0a000004 	beq	3000c390 <_atoi+0x84>
3000c37c:	e51b3010 	ldr	r3, [fp, #-16]
3000c380:	e5d33000 	ldrb	r3, [r3]
3000c384:	e3530000 	cmp	r3, #0	; 0x0
3000c388:	0a000000 	beq	3000c390 <_atoi+0x84>
3000c38c:	eaffffeb 	b	3000c340 <_atoi+0x34>
3000c390:	e51b3014 	ldr	r3, [fp, #-20]
3000c394:	e50b3018 	str	r3, [fp, #-24]
3000c398:	e51b0018 	ldr	r0, [fp, #-24]
3000c39c:	e24bd00c 	sub	sp, fp, #12	; 0xc
3000c3a0:	e89da800 	ldmia	sp, {fp, sp, pc}

3000c3a4 <Sleepwait>:
3000c3a4:	e1a0c00d 	mov	ip, sp
3000c3a8:	e92dd800 	stmdb	sp!, {fp, ip, lr, pc}
3000c3ac:	e24cb004 	sub	fp, ip, #4	; 0x4
3000c3b0:	e59f301c 	ldr	r3, [pc, #28]	; 3000c3d4 <.text+0x4414>
3000c3b4:	e3a02001 	mov	r2, #1	; 0x1
3000c3b8:	e5c32000 	strb	r2, [r3]
3000c3bc:	e59f3010 	ldr	r3, [pc, #16]	; 3000c3d4 <.text+0x4414>
3000c3c0:	e5d33000 	ldrb	r3, [r3]
3000c3c4:	e3530000 	cmp	r3, #0	; 0x0
3000c3c8:	0a000000 	beq	3000c3d0 <Sleepwait+0x2c>
3000c3cc:	eafffffa 	b	3000c3bc <Sleepwait+0x18>
3000c3d0:	e89da800 	ldmia	sp, {fp, sp, pc}
3000c3d4:	300100dc 	ldrccd	r0, [r1], -ip

3000c3d8 <PrioSet>:
3000c3d8:	e1a0c00d 	mov	ip, sp
3000c3dc:	e92dd800 	stmdb	sp!, {fp, ip, lr, pc}
3000c3e0:	e24cb004 	sub	fp, ip, #4	; 0x4
3000c3e4:	e24dd004 	sub	sp, sp, #4	; 0x4
3000c3e8:	e1a03000 	mov	r3, r0
3000c3ec:	e54b300d 	strb	r3, [fp, #-13]
3000c3f0:	e55b300d 	ldrb	r3, [fp, #-13]
3000c3f4:	e1a032a3 	mov	r3, r3, lsr #5
3000c3f8:	e20330ff 	and	r3, r3, #255	; 0xff
3000c3fc:	e3530007 	cmp	r3, #7	; 0x7
3000c400:	9a000004 	bls	3000c418 <PrioSet+0x40>
3000c404:	e55b300d 	ldrb	r3, [fp, #-13]
3000c408:	e59f0040 	ldr	r0, [pc, #64]	; 3000c450 <.text+0x4490>
3000c40c:	e1a01003 	mov	r1, r3
3000c410:	ebfffde4 	bl	3000bba8 <printf>
3000c414:	ea00000c 	b	3000c44c <PrioSet+0x74>
3000c418:	e59fc034 	ldr	ip, [pc, #52]	; 3000c454 <.text+0x4494>
3000c41c:	e55b300d 	ldrb	r3, [fp, #-13]
3000c420:	e1a032a3 	mov	r3, r3, lsr #5
3000c424:	e20310ff 	and	r1, r3, #255	; 0xff
3000c428:	e59f0024 	ldr	r0, [pc, #36]	; 3000c454 <.text+0x4494>
3000c42c:	e55b300d 	ldrb	r3, [fp, #-13]
3000c430:	e1e03003 	mvn	r3, r3
3000c434:	e203201f 	and	r2, r3, #31	; 0x1f
3000c438:	e3a03001 	mov	r3, #1	; 0x1
3000c43c:	e1a02213 	mov	r2, r3, lsl r2
3000c440:	e7903101 	ldr	r3, [r0, r1, lsl #2]
3000c444:	e1833002 	orr	r3, r3, r2
3000c448:	e78c3101 	str	r3, [ip, r1, lsl #2]
3000c44c:	e89da808 	ldmia	sp, {r3, fp, sp, pc}
3000c450:	3000fd50 	andcc	pc, r0, r0, asr sp
3000c454:	3001a3b0 	strcch	sl, [r1], -r0

3000c458 <RdyList_TailInsert>:
3000c458:	e1a0c00d 	mov	ip, sp
3000c45c:	e92dd800 	stmdb	sp!, {fp, ip, lr, pc}
3000c460:	e24cb004 	sub	fp, ip, #4	; 0x4
3000c464:	e24dd004 	sub	sp, sp, #4	; 0x4
3000c468:	e50b0010 	str	r0, [fp, #-16]
3000c46c:	e51b2010 	ldr	r2, [fp, #-16]
3000c470:	e3a03000 	mov	r3, #0	; 0x0
3000c474:	e5823014 	str	r3, [r2, #20]
3000c478:	e51bc010 	ldr	ip, [fp, #-16]
3000c47c:	e59f1198 	ldr	r1, [pc, #408]	; 3000c61c <.text+0x465c>
3000c480:	e51b3010 	ldr	r3, [fp, #-16]
3000c484:	e5d32018 	ldrb	r2, [r3, #24]
3000c488:	e3a00004 	mov	r0, #4	; 0x4
3000c48c:	e1a03002 	mov	r3, r2
3000c490:	e1a03083 	mov	r3, r3, lsl #1
3000c494:	e0833002 	add	r3, r3, r2
3000c498:	e1a03103 	mov	r3, r3, lsl #2
3000c49c:	e0833001 	add	r3, r3, r1
3000c4a0:	e0833000 	add	r3, r3, r0
3000c4a4:	e5933000 	ldr	r3, [r3]
3000c4a8:	e58c3010 	str	r3, [ip, #16]
3000c4ac:	e59f1168 	ldr	r1, [pc, #360]	; 3000c61c <.text+0x465c>
3000c4b0:	e51b3010 	ldr	r3, [fp, #-16]
3000c4b4:	e5d32018 	ldrb	r2, [r3, #24]
3000c4b8:	e3a00008 	mov	r0, #8	; 0x8
3000c4bc:	e1a03002 	mov	r3, r2
3000c4c0:	e1a03083 	mov	r3, r3, lsl #1
3000c4c4:	e0833002 	add	r3, r3, r2
3000c4c8:	e1a03103 	mov	r3, r3, lsl #2
3000c4cc:	e0833001 	add	r3, r3, r1
3000c4d0:	e0833000 	add	r3, r3, r0
3000c4d4:	e5933000 	ldr	r3, [r3]
3000c4d8:	e3530000 	cmp	r3, #0	; 0x0
3000c4dc:	1a000016 	bne	3000c53c <RdyList_TailInsert+0xe4>
3000c4e0:	e59f1134 	ldr	r1, [pc, #308]	; 3000c61c <.text+0x465c>
3000c4e4:	e51b3010 	ldr	r3, [fp, #-16]
3000c4e8:	e5d32018 	ldrb	r2, [r3, #24]
3000c4ec:	e1a03002 	mov	r3, r2
3000c4f0:	e1a03083 	mov	r3, r3, lsl #1
3000c4f4:	e0833002 	add	r3, r3, r2
3000c4f8:	e1a03103 	mov	r3, r3, lsl #2
3000c4fc:	e0832001 	add	r2, r3, r1
3000c500:	e51b3010 	ldr	r3, [fp, #-16]
3000c504:	e5823000 	str	r3, [r2]
3000c508:	e59f110c 	ldr	r1, [pc, #268]	; 3000c61c <.text+0x465c>
3000c50c:	e51b3010 	ldr	r3, [fp, #-16]
3000c510:	e5d32018 	ldrb	r2, [r3, #24]
3000c514:	e3a00004 	mov	r0, #4	; 0x4
3000c518:	e1a03002 	mov	r3, r2
3000c51c:	e1a03083 	mov	r3, r3, lsl #1
3000c520:	e0833002 	add	r3, r3, r2
3000c524:	e1a03103 	mov	r3, r3, lsl #2
3000c528:	e0833001 	add	r3, r3, r1
3000c52c:	e0832000 	add	r2, r3, r0
3000c530:	e51b3010 	ldr	r3, [fp, #-16]
3000c534:	e5823000 	str	r3, [r2]
3000c538:	ea000018 	b	3000c5a0 <RdyList_TailInsert+0x148>
3000c53c:	e59f10d8 	ldr	r1, [pc, #216]	; 3000c61c <.text+0x465c>
3000c540:	e51b3010 	ldr	r3, [fp, #-16]
3000c544:	e5d32018 	ldrb	r2, [r3, #24]
3000c548:	e3a00004 	mov	r0, #4	; 0x4
3000c54c:	e1a03002 	mov	r3, r2
3000c550:	e1a03083 	mov	r3, r3, lsl #1
3000c554:	e0833002 	add	r3, r3, r2
3000c558:	e1a03103 	mov	r3, r3, lsl #2
3000c55c:	e0833001 	add	r3, r3, r1
3000c560:	e0833000 	add	r3, r3, r0
3000c564:	e5932000 	ldr	r2, [r3]
3000c568:	e51b3010 	ldr	r3, [fp, #-16]
3000c56c:	e5823014 	str	r3, [r2, #20]
3000c570:	e59f10a4 	ldr	r1, [pc, #164]	; 3000c61c <.text+0x465c>
3000c574:	e51b3010 	ldr	r3, [fp, #-16]
3000c578:	e5d32018 	ldrb	r2, [r3, #24]
3000c57c:	e3a00004 	mov	r0, #4	; 0x4
3000c580:	e1a03002 	mov	r3, r2
3000c584:	e1a03083 	mov	r3, r3, lsl #1
3000c588:	e0833002 	add	r3, r3, r2
3000c58c:	e1a03103 	mov	r3, r3, lsl #2
3000c590:	e0833001 	add	r3, r3, r1
3000c594:	e0832000 	add	r2, r3, r0
3000c598:	e51b3010 	ldr	r3, [fp, #-16]
3000c59c:	e5823000 	str	r3, [r2]
3000c5a0:	e51b2010 	ldr	r2, [fp, #-16]
3000c5a4:	e3a03001 	mov	r3, #1	; 0x1
3000c5a8:	e5823008 	str	r3, [r2, #8]
3000c5ac:	e59f1068 	ldr	r1, [pc, #104]	; 3000c61c <.text+0x465c>
3000c5b0:	e51b3010 	ldr	r3, [fp, #-16]
3000c5b4:	e5d32018 	ldrb	r2, [r3, #24]
3000c5b8:	e3a00008 	mov	r0, #8	; 0x8
3000c5bc:	e1a03002 	mov	r3, r2
3000c5c0:	e1a03083 	mov	r3, r3, lsl #1
3000c5c4:	e0833002 	add	r3, r3, r2
3000c5c8:	e1a03103 	mov	r3, r3, lsl #2
3000c5cc:	e0833001 	add	r3, r3, r1
3000c5d0:	e083c000 	add	ip, r3, r0
3000c5d4:	e59f1040 	ldr	r1, [pc, #64]	; 3000c61c <.text+0x465c>
3000c5d8:	e51b3010 	ldr	r3, [fp, #-16]
3000c5dc:	e5d32018 	ldrb	r2, [r3, #24]
3000c5e0:	e3a00008 	mov	r0, #8	; 0x8
3000c5e4:	e1a03002 	mov	r3, r2
3000c5e8:	e1a03083 	mov	r3, r3, lsl #1
3000c5ec:	e0833002 	add	r3, r3, r2
3000c5f0:	e1a03103 	mov	r3, r3, lsl #2
3000c5f4:	e0833001 	add	r3, r3, r1
3000c5f8:	e0833000 	add	r3, r3, r0
3000c5fc:	e5933000 	ldr	r3, [r3]
3000c600:	e2833001 	add	r3, r3, #1	; 0x1
3000c604:	e58c3000 	str	r3, [ip]
3000c608:	e51b3010 	ldr	r3, [fp, #-16]
3000c60c:	e5d33018 	ldrb	r3, [r3, #24]
3000c610:	e1a00003 	mov	r0, r3
3000c614:	ebffff6f 	bl	3000c3d8 <PrioSet>
3000c618:	e89da808 	ldmia	sp, {r3, fp, sp, pc}
3000c61c:	3001a1ac 	andcc	sl, r1, ip, lsr #3

3000c620 <PrioRemove>:
3000c620:	e1a0c00d 	mov	ip, sp
3000c624:	e92dd800 	stmdb	sp!, {fp, ip, lr, pc}
3000c628:	e24cb004 	sub	fp, ip, #4	; 0x4
3000c62c:	e24dd004 	sub	sp, sp, #4	; 0x4
3000c630:	e1a03000 	mov	r3, r0
3000c634:	e54b300d 	strb	r3, [fp, #-13]
3000c638:	e59fc034 	ldr	ip, [pc, #52]	; 3000c674 <.text+0x46b4>
3000c63c:	e55b300d 	ldrb	r3, [fp, #-13]
3000c640:	e1a032a3 	mov	r3, r3, lsr #5
3000c644:	e20310ff 	and	r1, r3, #255	; 0xff
3000c648:	e59f0024 	ldr	r0, [pc, #36]	; 3000c674 <.text+0x46b4>
3000c64c:	e55b300d 	ldrb	r3, [fp, #-13]
3000c650:	e1e03003 	mvn	r3, r3
3000c654:	e203201f 	and	r2, r3, #31	; 0x1f
3000c658:	e3a03001 	mov	r3, #1	; 0x1
3000c65c:	e1a03213 	mov	r3, r3, lsl r2
3000c660:	e1e02003 	mvn	r2, r3
3000c664:	e7903101 	ldr	r3, [r0, r1, lsl #2]
3000c668:	e0033002 	and	r3, r3, r2
3000c66c:	e78c3101 	str	r3, [ip, r1, lsl #2]
3000c670:	e89da808 	ldmia	sp, {r3, fp, sp, pc}
3000c674:	3001a3b0 	strcch	sl, [r1], -r0

3000c678 <RdyListRemove>:
3000c678:	e1a0c00d 	mov	ip, sp
3000c67c:	e92dd800 	stmdb	sp!, {fp, ip, lr, pc}
3000c680:	e24cb004 	sub	fp, ip, #4	; 0x4
3000c684:	e24dd008 	sub	sp, sp, #8	; 0x8
3000c688:	e50b0010 	str	r0, [fp, #-16]
3000c68c:	e51b3010 	ldr	r3, [fp, #-16]
3000c690:	e5d32018 	ldrb	r2, [r3, #24]
3000c694:	e1a03002 	mov	r3, r2
3000c698:	e1a03083 	mov	r3, r3, lsl #1
3000c69c:	e0833002 	add	r3, r3, r2
3000c6a0:	e1a02103 	mov	r2, r3, lsl #2
3000c6a4:	e59f3130 	ldr	r3, [pc, #304]	; 3000c7dc <.text+0x481c>
3000c6a8:	e0823003 	add	r3, r2, r3
3000c6ac:	e50b3014 	str	r3, [fp, #-20]
3000c6b0:	e51b3014 	ldr	r3, [fp, #-20]
3000c6b4:	e5933008 	ldr	r3, [r3, #8]
3000c6b8:	e3530001 	cmp	r3, #1	; 0x1
3000c6bc:	1a00000d 	bne	3000c6f8 <RdyListRemove+0x80>
3000c6c0:	e51b2014 	ldr	r2, [fp, #-20]
3000c6c4:	e3a03000 	mov	r3, #0	; 0x0
3000c6c8:	e5823008 	str	r3, [r2, #8]
3000c6cc:	e51b2014 	ldr	r2, [fp, #-20]
3000c6d0:	e3a03000 	mov	r3, #0	; 0x0
3000c6d4:	e5823000 	str	r3, [r2]
3000c6d8:	e51b2014 	ldr	r2, [fp, #-20]
3000c6dc:	e3a03000 	mov	r3, #0	; 0x0
3000c6e0:	e5823004 	str	r3, [r2, #4]
3000c6e4:	e51b3010 	ldr	r3, [fp, #-16]
3000c6e8:	e5d33018 	ldrb	r3, [r3, #24]
3000c6ec:	e1a00003 	mov	r0, r3
3000c6f0:	ebffffca 	bl	3000c620 <PrioRemove>
3000c6f4:	ea000036 	b	3000c7d4 <RdyListRemove+0x15c>
3000c6f8:	e51b3014 	ldr	r3, [fp, #-20]
3000c6fc:	e5933008 	ldr	r3, [r3, #8]
3000c700:	e3530001 	cmp	r3, #1	; 0x1
3000c704:	9a000032 	bls	3000c7d4 <RdyListRemove+0x15c>
3000c708:	e51b3014 	ldr	r3, [fp, #-20]
3000c70c:	e5932000 	ldr	r2, [r3]
3000c710:	e51b3010 	ldr	r3, [fp, #-16]
3000c714:	e1520003 	cmp	r2, r3
3000c718:	1a000009 	bne	3000c744 <RdyListRemove+0xcc>
3000c71c:	e51b2014 	ldr	r2, [fp, #-20]
3000c720:	e51b3014 	ldr	r3, [fp, #-20]
3000c724:	e5933000 	ldr	r3, [r3]
3000c728:	e5933014 	ldr	r3, [r3, #20]
3000c72c:	e5823000 	str	r3, [r2]
3000c730:	e51b3014 	ldr	r3, [fp, #-20]
3000c734:	e5932000 	ldr	r2, [r3]
3000c738:	e3a03000 	mov	r3, #0	; 0x0
3000c73c:	e5823010 	str	r3, [r2, #16]
3000c740:	ea000018 	b	3000c7a8 <RdyListRemove+0x130>
3000c744:	e51b3014 	ldr	r3, [fp, #-20]
3000c748:	e5932004 	ldr	r2, [r3, #4]
3000c74c:	e51b3010 	ldr	r3, [fp, #-16]
3000c750:	e1520003 	cmp	r2, r3
3000c754:	1a000009 	bne	3000c780 <RdyListRemove+0x108>
3000c758:	e51b2014 	ldr	r2, [fp, #-20]
3000c75c:	e51b3014 	ldr	r3, [fp, #-20]
3000c760:	e5933004 	ldr	r3, [r3, #4]
3000c764:	e5933010 	ldr	r3, [r3, #16]
3000c768:	e5823004 	str	r3, [r2, #4]
3000c76c:	e51b3014 	ldr	r3, [fp, #-20]
3000c770:	e5932004 	ldr	r2, [r3, #4]
3000c774:	e3a03000 	mov	r3, #0	; 0x0
3000c778:	e5823014 	str	r3, [r2, #20]
3000c77c:	ea000009 	b	3000c7a8 <RdyListRemove+0x130>
3000c780:	e51b3010 	ldr	r3, [fp, #-16]
3000c784:	e5932014 	ldr	r2, [r3, #20]
3000c788:	e51b3010 	ldr	r3, [fp, #-16]
3000c78c:	e5933010 	ldr	r3, [r3, #16]
3000c790:	e5823010 	str	r3, [r2, #16]
3000c794:	e51b3010 	ldr	r3, [fp, #-16]
3000c798:	e5932010 	ldr	r2, [r3, #16]
3000c79c:	e51b3010 	ldr	r3, [fp, #-16]
3000c7a0:	e5933014 	ldr	r3, [r3, #20]
3000c7a4:	e5823014 	str	r3, [r2, #20]
3000c7a8:	e51b2014 	ldr	r2, [fp, #-20]
3000c7ac:	e51b3014 	ldr	r3, [fp, #-20]
3000c7b0:	e5933008 	ldr	r3, [r3, #8]
3000c7b4:	e2433001 	sub	r3, r3, #1	; 0x1
3000c7b8:	e5823008 	str	r3, [r2, #8]
3000c7bc:	e51b2010 	ldr	r2, [fp, #-16]
3000c7c0:	e3a03000 	mov	r3, #0	; 0x0
3000c7c4:	e5823014 	str	r3, [r2, #20]
3000c7c8:	e51b2010 	ldr	r2, [fp, #-16]
3000c7cc:	e3a03000 	mov	r3, #0	; 0x0
3000c7d0:	e5823010 	str	r3, [r2, #16]
3000c7d4:	e24bd00c 	sub	sp, fp, #12	; 0xc
3000c7d8:	e89da800 	ldmia	sp, {fp, sp, pc}
3000c7dc:	3001a1ac 	andcc	sl, r1, ip, lsr #3

3000c7e0 <creat_task>:
3000c7e0:	e1a0c00d 	mov	ip, sp
3000c7e4:	e92dd810 	stmdb	sp!, {r4, fp, ip, lr, pc}
3000c7e8:	e24cb004 	sub	fp, ip, #4	; 0x4
3000c7ec:	e24dd01c 	sub	sp, sp, #28	; 0x1c
3000c7f0:	e50b0014 	str	r0, [fp, #-20]
3000c7f4:	e50b1018 	str	r1, [fp, #-24]
3000c7f8:	e50b3020 	str	r3, [fp, #-32]
3000c7fc:	e1a03002 	mov	r3, r2
3000c800:	e54b3019 	strb	r3, [fp, #-25]
3000c804:	e3a03000 	mov	r3, #0	; 0x0
3000c808:	e50b3024 	str	r3, [fp, #-36]
3000c80c:	e3a03000 	mov	r3, #0	; 0x0
3000c810:	e50b3028 	str	r3, [fp, #-40]
3000c814:	e59f0280 	ldr	r0, [pc, #640]	; 3000ca9c <.text+0x4adc>
3000c818:	ebfff3a0 	bl	300096a0 <puts>
3000c81c:	e3a0001c 	mov	r0, #28	; 0x1c
3000c820:	ebfff9ec 	bl	3000afd8 <New>
3000c824:	e50b0024 	str	r0, [fp, #-36]
3000c828:	e51b3024 	ldr	r3, [fp, #-36]
3000c82c:	e3530000 	cmp	r3, #0	; 0x0
3000c830:	1a000004 	bne	3000c848 <creat_task+0x68>
3000c834:	e59f0264 	ldr	r0, [pc, #612]	; 3000caa0 <.text+0x4ae0>
3000c838:	ebfff99f 	bl	3000aebc <debug>
3000c83c:	e3a03000 	mov	r3, #0	; 0x0
3000c840:	e50b302c 	str	r3, [fp, #-44]
3000c844:	ea000091 	b	3000ca90 <creat_task+0x2b0>
3000c848:	e59f0254 	ldr	r0, [pc, #596]	; 3000caa4 <.text+0x4ae4>
3000c84c:	ebfff393 	bl	300096a0 <puts>
3000c850:	e51b0024 	ldr	r0, [fp, #-36]
3000c854:	e3a01000 	mov	r1, #0	; 0x0
3000c858:	e3a0201c 	mov	r2, #28	; 0x1c
3000c85c:	eb00049b 	bl	3000dad0 <memset>
3000c860:	e51b4024 	ldr	r4, [fp, #-36]
3000c864:	e51b0020 	ldr	r0, [fp, #-32]
3000c868:	ebfff9da 	bl	3000afd8 <New>
3000c86c:	e5840004 	str	r0, [r4, #4]
3000c870:	e51b3024 	ldr	r3, [fp, #-36]
3000c874:	e5933004 	ldr	r3, [r3, #4]
3000c878:	e3530000 	cmp	r3, #0	; 0x0
3000c87c:	1a000006 	bne	3000c89c <creat_task+0xbc>
3000c880:	e59f0220 	ldr	r0, [pc, #544]	; 3000caa8 <.text+0x4ae8>
3000c884:	ebfff98c 	bl	3000aebc <debug>
3000c888:	e51b0024 	ldr	r0, [fp, #-36]
3000c88c:	ebfffa32 	bl	3000b15c <Delete>
3000c890:	e3a03000 	mov	r3, #0	; 0x0
3000c894:	e50b302c 	str	r3, [fp, #-44]
3000c898:	ea00007c 	b	3000ca90 <creat_task+0x2b0>
3000c89c:	e59f0208 	ldr	r0, [pc, #520]	; 3000caac <.text+0x4aec>
3000c8a0:	ebfff37e 	bl	300096a0 <puts>
3000c8a4:	e51b1024 	ldr	r1, [fp, #-36]
3000c8a8:	e51b3020 	ldr	r3, [fp, #-32]
3000c8ac:	e1a03123 	mov	r3, r3, lsr #2
3000c8b0:	e1a02103 	mov	r2, r3, lsl #2
3000c8b4:	e5913004 	ldr	r3, [r1, #4]
3000c8b8:	e0833002 	add	r3, r3, r2
3000c8bc:	e50b3028 	str	r3, [fp, #-40]
3000c8c0:	e51b2024 	ldr	r2, [fp, #-36]
3000c8c4:	e55b3019 	ldrb	r3, [fp, #-25]
3000c8c8:	e5c23018 	strb	r3, [r2, #24]
3000c8cc:	e51b3024 	ldr	r3, [fp, #-36]
3000c8d0:	e59f01d8 	ldr	r0, [pc, #472]	; 3000cab0 <.text+0x4af0>
3000c8d4:	e5931004 	ldr	r1, [r3, #4]
3000c8d8:	e51b2028 	ldr	r2, [fp, #-40]
3000c8dc:	ebfffcb1 	bl	3000bba8 <printf>
3000c8e0:	e51b3028 	ldr	r3, [fp, #-40]
3000c8e4:	e2433044 	sub	r3, r3, #68	; 0x44
3000c8e8:	e50b3028 	str	r3, [fp, #-40]
3000c8ec:	e59fc1c0 	ldr	ip, [pc, #448]	; 3000cab4 <.text+0x4af4>
3000c8f0:	e59f01c0 	ldr	r0, [pc, #448]	; 3000cab8 <.text+0x4af8>
3000c8f4:	e5902000 	ldr	r2, [r0]
3000c8f8:	e1a03002 	mov	r3, r2
3000c8fc:	e1a01003 	mov	r1, r3
3000c900:	e51b3028 	ldr	r3, [fp, #-40]
3000c904:	e78c3101 	str	r3, [ip, r1, lsl #2]
3000c908:	e2822001 	add	r2, r2, #1	; 0x1
3000c90c:	e5802000 	str	r2, [r0]
3000c910:	e51b2028 	ldr	r2, [fp, #-40]
3000c914:	e51b3024 	ldr	r3, [fp, #-36]
3000c918:	e5823000 	str	r3, [r2]
3000c91c:	e3a02004 	mov	r2, #4	; 0x4
3000c920:	e51b3028 	ldr	r3, [fp, #-40]
3000c924:	e0822003 	add	r2, r2, r3
3000c928:	e51b3018 	ldr	r3, [fp, #-24]
3000c92c:	e5823000 	str	r3, [r2]
3000c930:	e3a02008 	mov	r2, #8	; 0x8
3000c934:	e51b3028 	ldr	r3, [fp, #-40]
3000c938:	e0822003 	add	r2, r2, r3
3000c93c:	e3a03000 	mov	r3, #0	; 0x0
3000c940:	e5823000 	str	r3, [r2]
3000c944:	e3a0200c 	mov	r2, #12	; 0xc
3000c948:	e51b3028 	ldr	r3, [fp, #-40]
3000c94c:	e0822003 	add	r2, r2, r3
3000c950:	e3a03000 	mov	r3, #0	; 0x0
3000c954:	e5823000 	str	r3, [r2]
3000c958:	e3a02010 	mov	r2, #16	; 0x10
3000c95c:	e51b3028 	ldr	r3, [fp, #-40]
3000c960:	e0822003 	add	r2, r2, r3
3000c964:	e3a03000 	mov	r3, #0	; 0x0
3000c968:	e5823000 	str	r3, [r2]
3000c96c:	e3a02014 	mov	r2, #20	; 0x14
3000c970:	e51b3028 	ldr	r3, [fp, #-40]
3000c974:	e0822003 	add	r2, r2, r3
3000c978:	e3a03000 	mov	r3, #0	; 0x0
3000c97c:	e5823000 	str	r3, [r2]
3000c980:	e3a02018 	mov	r2, #24	; 0x18
3000c984:	e51b3028 	ldr	r3, [fp, #-40]
3000c988:	e0822003 	add	r2, r2, r3
3000c98c:	e3a03000 	mov	r3, #0	; 0x0
3000c990:	e5823000 	str	r3, [r2]
3000c994:	e3a0201c 	mov	r2, #28	; 0x1c
3000c998:	e51b3028 	ldr	r3, [fp, #-40]
3000c99c:	e0822003 	add	r2, r2, r3
3000c9a0:	e3a03000 	mov	r3, #0	; 0x0
3000c9a4:	e5823000 	str	r3, [r2]
3000c9a8:	e3a02020 	mov	r2, #32	; 0x20
3000c9ac:	e51b3028 	ldr	r3, [fp, #-40]
3000c9b0:	e0822003 	add	r2, r2, r3
3000c9b4:	e3a03000 	mov	r3, #0	; 0x0
3000c9b8:	e5823000 	str	r3, [r2]
3000c9bc:	e3a02024 	mov	r2, #36	; 0x24
3000c9c0:	e51b3028 	ldr	r3, [fp, #-40]
3000c9c4:	e0822003 	add	r2, r2, r3
3000c9c8:	e3a03000 	mov	r3, #0	; 0x0
3000c9cc:	e5823000 	str	r3, [r2]
3000c9d0:	e3a02028 	mov	r2, #40	; 0x28
3000c9d4:	e51b3028 	ldr	r3, [fp, #-40]
3000c9d8:	e0822003 	add	r2, r2, r3
3000c9dc:	e3a03000 	mov	r3, #0	; 0x0
3000c9e0:	e5823000 	str	r3, [r2]
3000c9e4:	e3a0202c 	mov	r2, #44	; 0x2c
3000c9e8:	e51b3028 	ldr	r3, [fp, #-40]
3000c9ec:	e0822003 	add	r2, r2, r3
3000c9f0:	e3a03000 	mov	r3, #0	; 0x0
3000c9f4:	e5823000 	str	r3, [r2]
3000c9f8:	e3a02030 	mov	r2, #48	; 0x30
3000c9fc:	e51b3028 	ldr	r3, [fp, #-40]
3000ca00:	e0822003 	add	r2, r2, r3
3000ca04:	e3a03000 	mov	r3, #0	; 0x0
3000ca08:	e5823000 	str	r3, [r2]
3000ca0c:	e3a02034 	mov	r2, #52	; 0x34
3000ca10:	e51b3028 	ldr	r3, [fp, #-40]
3000ca14:	e0822003 	add	r2, r2, r3
3000ca18:	e51b3028 	ldr	r3, [fp, #-40]
3000ca1c:	e2833044 	add	r3, r3, #68	; 0x44
3000ca20:	e5823000 	str	r3, [r2]
3000ca24:	e3a02038 	mov	r2, #56	; 0x38
3000ca28:	e51b3028 	ldr	r3, [fp, #-40]
3000ca2c:	e0822003 	add	r2, r2, r3
3000ca30:	e51b3014 	ldr	r3, [fp, #-20]
3000ca34:	e5823000 	str	r3, [r2]
3000ca38:	e3a0203c 	mov	r2, #60	; 0x3c
3000ca3c:	e51b3028 	ldr	r3, [fp, #-40]
3000ca40:	e0822003 	add	r2, r2, r3
3000ca44:	e51b3014 	ldr	r3, [fp, #-20]
3000ca48:	e5823000 	str	r3, [r2]
3000ca4c:	e3a02040 	mov	r2, #64	; 0x40
3000ca50:	e51b3028 	ldr	r3, [fp, #-40]
3000ca54:	e0822003 	add	r2, r2, r3
3000ca58:	e3a03050 	mov	r3, #80	; 0x50
3000ca5c:	e5823000 	str	r3, [r2]
3000ca60:	e51b2024 	ldr	r2, [fp, #-36]
3000ca64:	e51b3028 	ldr	r3, [fp, #-40]
3000ca68:	e5823000 	str	r3, [r2]
3000ca6c:	e51b3024 	ldr	r3, [fp, #-36]
3000ca70:	e59f0038 	ldr	r0, [pc, #56]	; 3000cab0 <.text+0x4af0>
3000ca74:	e5931004 	ldr	r1, [r3, #4]
3000ca78:	e51b2028 	ldr	r2, [fp, #-40]
3000ca7c:	ebfffc49 	bl	3000bba8 <printf>
3000ca80:	e51b0024 	ldr	r0, [fp, #-36]
3000ca84:	ebfffe73 	bl	3000c458 <RdyList_TailInsert>
3000ca88:	e51b3024 	ldr	r3, [fp, #-36]
3000ca8c:	e50b302c 	str	r3, [fp, #-44]
3000ca90:	e51b002c 	ldr	r0, [fp, #-44]
3000ca94:	e24bd010 	sub	sp, fp, #16	; 0x10
3000ca98:	e89da810 	ldmia	sp, {r4, fp, sp, pc}
3000ca9c:	3000fd6c 	andcc	pc, r0, ip, ror #26
3000caa0:	3000fd80 	andcc	pc, r0, r0, lsl #27
3000caa4:	3000fd98 	mulcc	r0, r8, sp
3000caa8:	3000fdac 	andcc	pc, r0, ip, lsr #27
3000caac:	3000fdc0 	andcc	pc, r0, r0, asr #27
3000cab0:	3000fdd4 	ldrccd	pc, [r0], -r4
3000cab4:	3001a330 	andcc	sl, r1, r0, lsr r3
3000cab8:	3001a32c 	andcc	sl, r1, ip, lsr #6

3000cabc <task_exit>:
3000cabc:	e1a0c00d 	mov	ip, sp
3000cac0:	e92dd800 	stmdb	sp!, {fp, ip, lr, pc}
3000cac4:	e24cb004 	sub	fp, ip, #4	; 0x4
3000cac8:	e24dd004 	sub	sp, sp, #4	; 0x4
3000cacc:	e50b0010 	str	r0, [fp, #-16]
3000cad0:	e59f3044 	ldr	r3, [pc, #68]	; 3000cb1c <.text+0x4b5c>
3000cad4:	e51bc010 	ldr	ip, [fp, #-16]
3000cad8:	e59f0040 	ldr	r0, [pc, #64]	; 3000cb20 <.text+0x4b60>
3000cadc:	e5931000 	ldr	r1, [r3]
3000cae0:	e51b2010 	ldr	r2, [fp, #-16]
3000cae4:	e59c3004 	ldr	r3, [ip, #4]
3000cae8:	ebfff8f3 	bl	3000aebc <debug>
3000caec:	ebfff288 	bl	30009514 <Enter_Critical>
3000caf0:	e51b0010 	ldr	r0, [fp, #-16]
3000caf4:	ebfffedf 	bl	3000c678 <RdyListRemove>
3000caf8:	e51b3010 	ldr	r3, [fp, #-16]
3000cafc:	e5930004 	ldr	r0, [r3, #4]
3000cb00:	ebfff995 	bl	3000b15c <Delete>
3000cb04:	e51b0010 	ldr	r0, [fp, #-16]
3000cb08:	ebfff993 	bl	3000b15c <Delete>
3000cb0c:	ebfff26d 	bl	300094c8 <Exit_Critical>
3000cb10:	e59f000c 	ldr	r0, [pc, #12]	; 3000cb24 <.text+0x4b64>
3000cb14:	ebfff8e8 	bl	3000aebc <debug>
3000cb18:	eafffffe 	b	3000cb18 <task_exit+0x5c>
3000cb1c:	300100b0 	strcch	r0, [r1], -r0
3000cb20:	3000fe08 	andcc	pc, r0, r8, lsl #28
3000cb24:	3000fe34 	andcc	pc, r0, r4, lsr lr

3000cb28 <start_task>:
3000cb28:	e1a0c00d 	mov	ip, sp
3000cb2c:	e92dd800 	stmdb	sp!, {fp, ip, lr, pc}
3000cb30:	e24cb004 	sub	fp, ip, #4	; 0x4
3000cb34:	e3a0000a 	mov	r0, #10	; 0xa
3000cb38:	ebfff213 	bl	3000938c <timer_init>
3000cb3c:	eafffffe 	b	3000cb3c <start_task+0x14>

3000cb40 <RdyListHeadToTail>:
3000cb40:	e1a0c00d 	mov	ip, sp
3000cb44:	e92dd800 	stmdb	sp!, {fp, ip, lr, pc}
3000cb48:	e24cb004 	sub	fp, ip, #4	; 0x4
3000cb4c:	e24dd004 	sub	sp, sp, #4	; 0x4
3000cb50:	e50b0010 	str	r0, [fp, #-16]
3000cb54:	e51b3010 	ldr	r3, [fp, #-16]
3000cb58:	e5933008 	ldr	r3, [r3, #8]
3000cb5c:	e3530001 	cmp	r3, #1	; 0x1
3000cb60:	9a00001b 	bls	3000cbd4 <RdyListHeadToTail+0x94>
3000cb64:	e51b3010 	ldr	r3, [fp, #-16]
3000cb68:	e5932000 	ldr	r2, [r3]
3000cb6c:	e51b3010 	ldr	r3, [fp, #-16]
3000cb70:	e5933004 	ldr	r3, [r3, #4]
3000cb74:	e5823010 	str	r3, [r2, #16]
3000cb78:	e51b3010 	ldr	r3, [fp, #-16]
3000cb7c:	e5932004 	ldr	r2, [r3, #4]
3000cb80:	e51b3010 	ldr	r3, [fp, #-16]
3000cb84:	e5933000 	ldr	r3, [r3]
3000cb88:	e5823014 	str	r3, [r2, #20]
3000cb8c:	e51b2010 	ldr	r2, [fp, #-16]
3000cb90:	e51b3010 	ldr	r3, [fp, #-16]
3000cb94:	e5933000 	ldr	r3, [r3]
3000cb98:	e5823004 	str	r3, [r2, #4]
3000cb9c:	e51b3010 	ldr	r3, [fp, #-16]
3000cba0:	e5933000 	ldr	r3, [r3]
3000cba4:	e5932014 	ldr	r2, [r3, #20]
3000cba8:	e3a03000 	mov	r3, #0	; 0x0
3000cbac:	e5823010 	str	r3, [r2, #16]
3000cbb0:	e51b2010 	ldr	r2, [fp, #-16]
3000cbb4:	e51b3010 	ldr	r3, [fp, #-16]
3000cbb8:	e5933000 	ldr	r3, [r3]
3000cbbc:	e5933014 	ldr	r3, [r3, #20]
3000cbc0:	e5823000 	str	r3, [r2]
3000cbc4:	e51b3010 	ldr	r3, [fp, #-16]
3000cbc8:	e5932004 	ldr	r2, [r3, #4]
3000cbcc:	e3a03000 	mov	r3, #0	; 0x0
3000cbd0:	e5823014 	str	r3, [r2, #20]
3000cbd4:	e89da808 	ldmia	sp, {r3, fp, sp, pc}

3000cbd8 <GetHighPrio>:
3000cbd8:	e1a0c00d 	mov	ip, sp
3000cbdc:	e92dd810 	stmdb	sp!, {r4, fp, ip, lr, pc}
3000cbe0:	e24cb004 	sub	fp, ip, #4	; 0x4
3000cbe4:	e24dd004 	sub	sp, sp, #4	; 0x4
3000cbe8:	e3a03000 	mov	r3, #0	; 0x0
3000cbec:	e54b3011 	strb	r3, [fp, #-17]
3000cbf0:	e55b3011 	ldrb	r3, [fp, #-17]
3000cbf4:	e3530007 	cmp	r3, #7	; 0x7
3000cbf8:	8a000008 	bhi	3000cc20 <GetHighPrio+0x48>
3000cbfc:	e59f304c 	ldr	r3, [pc, #76]	; 3000cc50 <.text+0x4c90>
3000cc00:	e55b2011 	ldrb	r2, [fp, #-17]
3000cc04:	e7933102 	ldr	r3, [r3, r2, lsl #2]
3000cc08:	e3530000 	cmp	r3, #0	; 0x0
3000cc0c:	1a000003 	bne	3000cc20 <GetHighPrio+0x48>
3000cc10:	e55b3011 	ldrb	r3, [fp, #-17]
3000cc14:	e2833001 	add	r3, r3, #1	; 0x1
3000cc18:	e54b3011 	strb	r3, [fp, #-17]
3000cc1c:	eafffff3 	b	3000cbf0 <GetHighPrio+0x18>
3000cc20:	e55b3011 	ldrb	r3, [fp, #-17]
3000cc24:	e1a04103 	mov	r4, r3, lsl #2
3000cc28:	e59f2020 	ldr	r2, [pc, #32]	; 3000cc50 <.text+0x4c90>
3000cc2c:	e55b3011 	ldrb	r3, [fp, #-17]
3000cc30:	e7920103 	ldr	r0, [r2, r3, lsl #2]
3000cc34:	ebfffd82 	bl	3000c244 <LeadZeros>
3000cc38:	e1a02000 	mov	r2, r0
3000cc3c:	e1a03004 	mov	r3, r4
3000cc40:	e0823003 	add	r3, r2, r3
3000cc44:	e20330ff 	and	r3, r3, #255	; 0xff
3000cc48:	e1a00003 	mov	r0, r3
3000cc4c:	e89da818 	ldmia	sp, {r3, r4, fp, sp, pc}
3000cc50:	3001a3b0 	strcch	sl, [r1], -r0

3000cc54 <TickListUpdate>:
3000cc54:	e1a0c00d 	mov	ip, sp
3000cc58:	e92dd800 	stmdb	sp!, {fp, ip, lr, pc}
3000cc5c:	e24cb004 	sub	fp, ip, #4	; 0x4
3000cc60:	e24dd00c 	sub	sp, sp, #12	; 0xc
3000cc64:	e59f2098 	ldr	r2, [pc, #152]	; 3000cd04 <.text+0x4d44>
3000cc68:	e59f3094 	ldr	r3, [pc, #148]	; 3000cd04 <.text+0x4d44>
3000cc6c:	e5933000 	ldr	r3, [r3]
3000cc70:	e2833001 	add	r3, r3, #1	; 0x1
3000cc74:	e5823000 	str	r3, [r2]
3000cc78:	e1a00003 	mov	r0, r3
3000cc7c:	e3a0100a 	mov	r1, #10	; 0xa
3000cc80:	ebfff9ee 	bl	3000b440 <__umodsi3>
3000cc84:	e1a03000 	mov	r3, r0
3000cc88:	e1a02103 	mov	r2, r3, lsl #2
3000cc8c:	e59f3074 	ldr	r3, [pc, #116]	; 3000cd08 <.text+0x4d48>
3000cc90:	e0823003 	add	r3, r2, r3
3000cc94:	e50b3010 	str	r3, [fp, #-16]
3000cc98:	e51b3010 	ldr	r3, [fp, #-16]
3000cc9c:	e5933000 	ldr	r3, [r3]
3000cca0:	e50b3014 	str	r3, [fp, #-20]
3000cca4:	e3a03000 	mov	r3, #0	; 0x0
3000cca8:	e50b3018 	str	r3, [fp, #-24]
3000ccac:	e51b3014 	ldr	r3, [fp, #-20]
3000ccb0:	e3530000 	cmp	r3, #0	; 0x0
3000ccb4:	0a000010 	beq	3000ccfc <TickListUpdate+0xa8>
3000ccb8:	e51b3014 	ldr	r3, [fp, #-20]
3000ccbc:	e59f2040 	ldr	r2, [pc, #64]	; 3000cd04 <.text+0x4d44>
3000ccc0:	e593100c 	ldr	r1, [r3, #12]
3000ccc4:	e5923000 	ldr	r3, [r2]
3000ccc8:	e1510003 	cmp	r1, r3
3000cccc:	8a00000a 	bhi	3000ccfc <TickListUpdate+0xa8>
3000ccd0:	e51b3014 	ldr	r3, [fp, #-20]
3000ccd4:	e5933014 	ldr	r3, [r3, #20]
3000ccd8:	e50b3018 	str	r3, [fp, #-24]
3000ccdc:	e51b0014 	ldr	r0, [fp, #-20]
3000cce0:	ebfffddc 	bl	3000c458 <RdyList_TailInsert>
3000cce4:	e51b3018 	ldr	r3, [fp, #-24]
3000cce8:	e50b3014 	str	r3, [fp, #-20]
3000ccec:	e51b2010 	ldr	r2, [fp, #-16]
3000ccf0:	e51b3014 	ldr	r3, [fp, #-20]
3000ccf4:	e5823000 	str	r3, [r2]
3000ccf8:	eaffffeb 	b	3000ccac <TickListUpdate+0x58>
3000ccfc:	e24bd00c 	sub	sp, fp, #12	; 0xc
3000cd00:	e89da800 	ldmia	sp, {fp, sp, pc}
3000cd04:	300100b0 	strcch	r0, [r1], -r0
3000cd08:	300100b4 	strcch	r0, [r1], -r4

3000cd0c <stack_debug>:
3000cd0c:	e1a0c00d 	mov	ip, sp
3000cd10:	e92dd800 	stmdb	sp!, {fp, ip, lr, pc}
3000cd14:	e24cb004 	sub	fp, ip, #4	; 0x4
3000cd18:	e24dd008 	sub	sp, sp, #8	; 0x8
3000cd1c:	e50b0010 	str	r0, [fp, #-16]
3000cd20:	e3a03000 	mov	r3, #0	; 0x0
3000cd24:	e50b3014 	str	r3, [fp, #-20]
3000cd28:	e3a03000 	mov	r3, #0	; 0x0
3000cd2c:	e50b3014 	str	r3, [fp, #-20]
3000cd30:	e51b3014 	ldr	r3, [fp, #-20]
3000cd34:	e353001f 	cmp	r3, #31	; 0x1f
3000cd38:	ca00000b 	bgt	3000cd6c <stack_debug+0x60>
3000cd3c:	e51b3014 	ldr	r3, [fp, #-20]
3000cd40:	e1a02103 	mov	r2, r3, lsl #2
3000cd44:	e51b3010 	ldr	r3, [fp, #-16]
3000cd48:	e0823003 	add	r3, r2, r3
3000cd4c:	e59f0028 	ldr	r0, [pc, #40]	; 3000cd7c <.text+0x4dbc>
3000cd50:	e51b1014 	ldr	r1, [fp, #-20]
3000cd54:	e5932000 	ldr	r2, [r3]
3000cd58:	ebfffb92 	bl	3000bba8 <printf>
3000cd5c:	e51b3014 	ldr	r3, [fp, #-20]
3000cd60:	e2833001 	add	r3, r3, #1	; 0x1
3000cd64:	e50b3014 	str	r3, [fp, #-20]
3000cd68:	eafffff0 	b	3000cd30 <stack_debug+0x24>
3000cd6c:	e59f000c 	ldr	r0, [pc, #12]	; 3000cd80 <.text+0x4dc0>
3000cd70:	ebfffb8c 	bl	3000bba8 <printf>
3000cd74:	e24bd00c 	sub	sp, fp, #12	; 0xc
3000cd78:	e89da800 	ldmia	sp, {fp, sp, pc}
3000cd7c:	3000fe4c 	andcc	pc, r0, ip, asr #28
3000cd80:	3000fe58 	andcc	pc, r0, r8, asr lr

3000cd84 <saveandupdate_curstack>:
3000cd84:	e1a0c00d 	mov	ip, sp
3000cd88:	e92dd830 	stmdb	sp!, {r4, r5, fp, ip, lr, pc}
3000cd8c:	e24cb004 	sub	fp, ip, #4	; 0x4
3000cd90:	e24dd00c 	sub	sp, sp, #12	; 0xc
3000cd94:	e50b0018 	str	r0, [fp, #-24]
3000cd98:	e3a0344a 	mov	r3, #1241513984	; 0x4a000000
3000cd9c:	e2833014 	add	r3, r3, #20	; 0x14
3000cda0:	e5933000 	ldr	r3, [r3]
3000cda4:	e50b301c 	str	r3, [fp, #-28]
3000cda8:	e51b301c 	ldr	r3, [fp, #-28]
3000cdac:	e353000a 	cmp	r3, #10	; 0xa
3000cdb0:	0a000004 	beq	3000cdc8 <saveandupdate_curstack+0x44>
3000cdb4:	e59f3104 	ldr	r3, [pc, #260]	; 3000cec0 <.text+0x4f00>
3000cdb8:	e5933000 	ldr	r3, [r3]
3000cdbc:	e5933000 	ldr	r3, [r3]
3000cdc0:	e50b3020 	str	r3, [fp, #-32]
3000cdc4:	ea00003a 	b	3000ceb4 <saveandupdate_curstack+0x130>
3000cdc8:	ebffffa1 	bl	3000cc54 <TickListUpdate>
3000cdcc:	e59f30ec 	ldr	r3, [pc, #236]	; 3000cec0 <.text+0x4f00>
3000cdd0:	e5933000 	ldr	r3, [r3]
3000cdd4:	e3530000 	cmp	r3, #0	; 0x0
3000cdd8:	0a000013 	beq	3000ce2c <saveandupdate_curstack+0xa8>
3000cddc:	e59f30dc 	ldr	r3, [pc, #220]	; 3000cec0 <.text+0x4f00>
3000cde0:	e5932000 	ldr	r2, [r3]
3000cde4:	e51b3018 	ldr	r3, [fp, #-24]
3000cde8:	e5823000 	str	r3, [r2]
3000cdec:	e59f30cc 	ldr	r3, [pc, #204]	; 3000cec0 <.text+0x4f00>
3000cdf0:	e5933000 	ldr	r3, [r3]
3000cdf4:	e5933008 	ldr	r3, [r3, #8]
3000cdf8:	e3530001 	cmp	r3, #1	; 0x1
3000cdfc:	1a00000a 	bne	3000ce2c <saveandupdate_curstack+0xa8>
3000ce00:	e59f30b8 	ldr	r3, [pc, #184]	; 3000cec0 <.text+0x4f00>
3000ce04:	e5933000 	ldr	r3, [r3]
3000ce08:	e5d32018 	ldrb	r2, [r3, #24]
3000ce0c:	e1a03002 	mov	r3, r2
3000ce10:	e1a03083 	mov	r3, r3, lsl #1
3000ce14:	e0833002 	add	r3, r3, r2
3000ce18:	e1a02103 	mov	r2, r3, lsl #2
3000ce1c:	e59f30a0 	ldr	r3, [pc, #160]	; 3000cec4 <.text+0x4f04>
3000ce20:	e0823003 	add	r3, r2, r3
3000ce24:	e1a00003 	mov	r0, r3
3000ce28:	ebffff44 	bl	3000cb40 <RdyListHeadToTail>
3000ce2c:	e59f508c 	ldr	r5, [pc, #140]	; 3000cec0 <.text+0x4f00>
3000ce30:	e59f408c 	ldr	r4, [pc, #140]	; 3000cec4 <.text+0x4f04>
3000ce34:	ebffff67 	bl	3000cbd8 <GetHighPrio>
3000ce38:	e1a03000 	mov	r3, r0
3000ce3c:	e20320ff 	and	r2, r3, #255	; 0xff
3000ce40:	e1a03002 	mov	r3, r2
3000ce44:	e1a03083 	mov	r3, r3, lsl #1
3000ce48:	e0833002 	add	r3, r3, r2
3000ce4c:	e1a03103 	mov	r3, r3, lsl #2
3000ce50:	e0833004 	add	r3, r3, r4
3000ce54:	e5933000 	ldr	r3, [r3]
3000ce58:	e5853000 	str	r3, [r5]
3000ce5c:	e59f2064 	ldr	r2, [pc, #100]	; 3000cec8 <.text+0x4f08>
3000ce60:	e3a03000 	mov	r3, #0	; 0x0
3000ce64:	e5c23000 	strb	r3, [r2]
3000ce68:	e3a0144a 	mov	r1, #1241513984	; 0x4a000000
3000ce6c:	e3a0344a 	mov	r3, #1241513984	; 0x4a000000
3000ce70:	e2833014 	add	r3, r3, #20	; 0x14
3000ce74:	e3a02001 	mov	r2, #1	; 0x1
3000ce78:	e5933000 	ldr	r3, [r3]
3000ce7c:	e1a03312 	mov	r3, r2, lsl r3
3000ce80:	e5813000 	str	r3, [r1]
3000ce84:	e3a0244a 	mov	r2, #1241513984	; 0x4a000000
3000ce88:	e2822010 	add	r2, r2, #16	; 0x10
3000ce8c:	e3a0344a 	mov	r3, #1241513984	; 0x4a000000
3000ce90:	e2833014 	add	r3, r3, #20	; 0x14
3000ce94:	e3a01001 	mov	r1, #1	; 0x1
3000ce98:	e5933000 	ldr	r3, [r3]
3000ce9c:	e1a03311 	mov	r3, r1, lsl r3
3000cea0:	e5823000 	str	r3, [r2]
3000cea4:	e59f3014 	ldr	r3, [pc, #20]	; 3000cec0 <.text+0x4f00>
3000cea8:	e5933000 	ldr	r3, [r3]
3000ceac:	e5933000 	ldr	r3, [r3]
3000ceb0:	e50b3020 	str	r3, [fp, #-32]
3000ceb4:	e51b0020 	ldr	r0, [fp, #-32]
3000ceb8:	e24bd014 	sub	sp, fp, #20	; 0x14
3000cebc:	e89da830 	ldmia	sp, {r4, r5, fp, sp, pc}
3000cec0:	300100ac 	andcc	r0, r1, ip, lsr #1
3000cec4:	3001a1ac 	andcc	sl, r1, ip, lsr #3
3000cec8:	300100dc 	ldrccd	r0, [r1], -ip

3000cecc <TickListInsert>:
3000cecc:	e1a0c00d 	mov	ip, sp
3000ced0:	e92dd800 	stmdb	sp!, {fp, ip, lr, pc}
3000ced4:	e24cb004 	sub	fp, ip, #4	; 0x4
3000ced8:	e24dd014 	sub	sp, sp, #20	; 0x14
3000cedc:	e50b0010 	str	r0, [fp, #-16]
3000cee0:	e50b1014 	str	r1, [fp, #-20]
3000cee4:	e51b3014 	ldr	r3, [fp, #-20]
3000cee8:	e3530000 	cmp	r3, #0	; 0x0
3000ceec:	1a000000 	bne	3000cef4 <TickListInsert+0x28>
3000cef0:	ea000044 	b	3000d008 <TickListInsert+0x13c>
3000cef4:	e59f3114 	ldr	r3, [pc, #276]	; 3000d010 <.text+0x5050>
3000cef8:	e51b2014 	ldr	r2, [fp, #-20]
3000cefc:	e5933000 	ldr	r3, [r3]
3000cf00:	e0823003 	add	r3, r2, r3
3000cf04:	e1a00003 	mov	r0, r3
3000cf08:	e3a0100a 	mov	r1, #10	; 0xa
3000cf0c:	ebfff94b 	bl	3000b440 <__umodsi3>
3000cf10:	e1a03000 	mov	r3, r0
3000cf14:	e1a02103 	mov	r2, r3, lsl #2
3000cf18:	e59f30f4 	ldr	r3, [pc, #244]	; 3000d014 <.text+0x5054>
3000cf1c:	e0823003 	add	r3, r2, r3
3000cf20:	e50b3018 	str	r3, [fp, #-24]
3000cf24:	e51b3018 	ldr	r3, [fp, #-24]
3000cf28:	e5933000 	ldr	r3, [r3]
3000cf2c:	e50b301c 	str	r3, [fp, #-28]
3000cf30:	e51b3018 	ldr	r3, [fp, #-24]
3000cf34:	e5933000 	ldr	r3, [r3]
3000cf38:	e50b3020 	str	r3, [fp, #-32]
3000cf3c:	e51b1010 	ldr	r1, [fp, #-16]
3000cf40:	e59f30c8 	ldr	r3, [pc, #200]	; 3000d010 <.text+0x5050>
3000cf44:	e51b2014 	ldr	r2, [fp, #-20]
3000cf48:	e5933000 	ldr	r3, [r3]
3000cf4c:	e0823003 	add	r3, r2, r3
3000cf50:	e581300c 	str	r3, [r1, #12]
3000cf54:	e51b2010 	ldr	r2, [fp, #-16]
3000cf58:	e3a03002 	mov	r3, #2	; 0x2
3000cf5c:	e5823008 	str	r3, [r2, #8]
3000cf60:	e51b3018 	ldr	r3, [fp, #-24]
3000cf64:	e5933000 	ldr	r3, [r3]
3000cf68:	e3530000 	cmp	r3, #0	; 0x0
3000cf6c:	0a000007 	beq	3000cf90 <TickListInsert+0xc4>
3000cf70:	e51b3018 	ldr	r3, [fp, #-24]
3000cf74:	e5933000 	ldr	r3, [r3]
3000cf78:	e51b2010 	ldr	r2, [fp, #-16]
3000cf7c:	e593100c 	ldr	r1, [r3, #12]
3000cf80:	e592300c 	ldr	r3, [r2, #12]
3000cf84:	e1510003 	cmp	r1, r3
3000cf88:	8a000000 	bhi	3000cf90 <TickListInsert+0xc4>
3000cf8c:	ea000007 	b	3000cfb0 <TickListInsert+0xe4>
3000cf90:	e51b2010 	ldr	r2, [fp, #-16]
3000cf94:	e51b3018 	ldr	r3, [fp, #-24]
3000cf98:	e5933000 	ldr	r3, [r3]
3000cf9c:	e5823014 	str	r3, [r2, #20]
3000cfa0:	e51b2018 	ldr	r2, [fp, #-24]
3000cfa4:	e51b3010 	ldr	r3, [fp, #-16]
3000cfa8:	e5823000 	str	r3, [r2]
3000cfac:	ea000015 	b	3000d008 <TickListInsert+0x13c>
3000cfb0:	e51b301c 	ldr	r3, [fp, #-28]
3000cfb4:	e3530000 	cmp	r3, #0	; 0x0
3000cfb8:	0a00000b 	beq	3000cfec <TickListInsert+0x120>
3000cfbc:	e51b301c 	ldr	r3, [fp, #-28]
3000cfc0:	e51b2010 	ldr	r2, [fp, #-16]
3000cfc4:	e593100c 	ldr	r1, [r3, #12]
3000cfc8:	e592300c 	ldr	r3, [r2, #12]
3000cfcc:	e1510003 	cmp	r1, r3
3000cfd0:	2a000005 	bcs	3000cfec <TickListInsert+0x120>
3000cfd4:	e51b301c 	ldr	r3, [fp, #-28]
3000cfd8:	e50b3020 	str	r3, [fp, #-32]
3000cfdc:	e51b301c 	ldr	r3, [fp, #-28]
3000cfe0:	e5933014 	ldr	r3, [r3, #20]
3000cfe4:	e50b301c 	str	r3, [fp, #-28]
3000cfe8:	eafffff0 	b	3000cfb0 <TickListInsert+0xe4>
3000cfec:	e51b2010 	ldr	r2, [fp, #-16]
3000cff0:	e51b3020 	ldr	r3, [fp, #-32]
3000cff4:	e5933014 	ldr	r3, [r3, #20]
3000cff8:	e5823014 	str	r3, [r2, #20]
3000cffc:	e51b2020 	ldr	r2, [fp, #-32]
3000d000:	e51b3010 	ldr	r3, [fp, #-16]
3000d004:	e5823014 	str	r3, [r2, #20]
3000d008:	e24bd00c 	sub	sp, fp, #12	; 0xc
3000d00c:	e89da800 	ldmia	sp, {fp, sp, pc}
3000d010:	300100b0 	strcch	r0, [r1], -r0
3000d014:	300100b4 	strcch	r0, [r1], -r4

3000d018 <msleep>:
3000d018:	e1a0c00d 	mov	ip, sp
3000d01c:	e92dd810 	stmdb	sp!, {r4, fp, ip, lr, pc}
3000d020:	e24cb004 	sub	fp, ip, #4	; 0x4
3000d024:	e24dd004 	sub	sp, sp, #4	; 0x4
3000d028:	e50b0014 	str	r0, [fp, #-20]
3000d02c:	ebfff138 	bl	30009514 <Enter_Critical>
3000d030:	e59f3034 	ldr	r3, [pc, #52]	; 3000d06c <.text+0x50ac>
3000d034:	e5930000 	ldr	r0, [r3]
3000d038:	ebfffd8e 	bl	3000c678 <RdyListRemove>
3000d03c:	e59f4028 	ldr	r4, [pc, #40]	; 3000d06c <.text+0x50ac>
3000d040:	e51b3014 	ldr	r3, [fp, #-20]
3000d044:	e1a00003 	mov	r0, r3
3000d048:	e3a0100a 	mov	r1, #10	; 0xa
3000d04c:	ebfff8bf 	bl	3000b350 <__udivsi3>
3000d050:	e1a03000 	mov	r3, r0
3000d054:	e5940000 	ldr	r0, [r4]
3000d058:	e1a01003 	mov	r1, r3
3000d05c:	ebffff9a 	bl	3000cecc <TickListInsert>
3000d060:	ebfff118 	bl	300094c8 <Exit_Critical>
3000d064:	ebfffcce 	bl	3000c3a4 <Sleepwait>
3000d068:	e89da818 	ldmia	sp, {r3, r4, fp, sp, pc}
3000d06c:	300100ac 	andcc	r0, r1, ip, lsr #1

3000d070 <do_irq_task>:
3000d070:	e8cd2000 	stmia	sp, {sp}^
3000d074:	e59dd000 	ldr	sp, [sp]
3000d078:	e24dd008 	sub	sp, sp, #8	; 0x8
3000d07c:	e96d6000 	stmdb	sp!, {sp, lr}^
3000d080:	e3a0e30d 	mov	lr, #872415232	; 0x34000000
3000d084:	e24ee008 	sub	lr, lr, #8	; 0x8
3000d088:	e24dd004 	sub	sp, sp, #4	; 0x4
3000d08c:	e59e0000 	ldr	r0, [lr]
3000d090:	e58d0000 	str	r0, [sp]
3000d094:	e24ee004 	sub	lr, lr, #4	; 0x4
3000d098:	e24dd004 	sub	sp, sp, #4	; 0x4
3000d09c:	e59e0000 	ldr	r0, [lr]
3000d0a0:	e58d0000 	str	r0, [sp]
3000d0a4:	e24ee004 	sub	lr, lr, #4	; 0x4
3000d0a8:	e24dd004 	sub	sp, sp, #4	; 0x4
3000d0ac:	e59e0000 	ldr	r0, [lr]
3000d0b0:	e58d0000 	str	r0, [sp]
3000d0b4:	e24ee004 	sub	lr, lr, #4	; 0x4
3000d0b8:	e24dd004 	sub	sp, sp, #4	; 0x4
3000d0bc:	e59e0000 	ldr	r0, [lr]
3000d0c0:	e58d0000 	str	r0, [sp]
3000d0c4:	e24ee004 	sub	lr, lr, #4	; 0x4
3000d0c8:	e24dd004 	sub	sp, sp, #4	; 0x4
3000d0cc:	e59e0000 	ldr	r0, [lr]
3000d0d0:	e58d0000 	str	r0, [sp]
3000d0d4:	e24ee004 	sub	lr, lr, #4	; 0x4
3000d0d8:	e24dd004 	sub	sp, sp, #4	; 0x4
3000d0dc:	e59e0000 	ldr	r0, [lr]
3000d0e0:	e58d0000 	str	r0, [sp]
3000d0e4:	e24ee004 	sub	lr, lr, #4	; 0x4
3000d0e8:	e24dd004 	sub	sp, sp, #4	; 0x4
3000d0ec:	e59e0000 	ldr	r0, [lr]
3000d0f0:	e58d0000 	str	r0, [sp]
3000d0f4:	e24ee004 	sub	lr, lr, #4	; 0x4
3000d0f8:	e24dd004 	sub	sp, sp, #4	; 0x4
3000d0fc:	e59e0000 	ldr	r0, [lr]
3000d100:	e58d0000 	str	r0, [sp]
3000d104:	e24ee004 	sub	lr, lr, #4	; 0x4
3000d108:	e24dd004 	sub	sp, sp, #4	; 0x4
3000d10c:	e59e0000 	ldr	r0, [lr]
3000d110:	e58d0000 	str	r0, [sp]
3000d114:	e24ee004 	sub	lr, lr, #4	; 0x4
3000d118:	e24dd004 	sub	sp, sp, #4	; 0x4
3000d11c:	e59e0000 	ldr	r0, [lr]
3000d120:	e58d0000 	str	r0, [sp]
3000d124:	e24ee004 	sub	lr, lr, #4	; 0x4
3000d128:	e24dd004 	sub	sp, sp, #4	; 0x4
3000d12c:	e59e0000 	ldr	r0, [lr]
3000d130:	e58d0000 	str	r0, [sp]
3000d134:	e24ee004 	sub	lr, lr, #4	; 0x4
3000d138:	e24dd004 	sub	sp, sp, #4	; 0x4
3000d13c:	e59e0000 	ldr	r0, [lr]
3000d140:	e58d0000 	str	r0, [sp]
3000d144:	e24ee004 	sub	lr, lr, #4	; 0x4
3000d148:	e24dd004 	sub	sp, sp, #4	; 0x4
3000d14c:	e59e0000 	ldr	r0, [lr]
3000d150:	e58d0000 	str	r0, [sp]
3000d154:	e28dd044 	add	sp, sp, #68	; 0x44
3000d158:	e14f0000 	mrs	r0, SPSR
3000d15c:	e92d0001 	stmdb	sp!, {r0}
3000d160:	e3a0e30d 	mov	lr, #872415232	; 0x34000000
3000d164:	e24ee004 	sub	lr, lr, #4	; 0x4
3000d168:	e24dd004 	sub	sp, sp, #4	; 0x4
3000d16c:	e59e0000 	ldr	r0, [lr]
3000d170:	e58d0000 	str	r0, [sp]
3000d174:	e24dd03c 	sub	sp, sp, #60	; 0x3c
3000d178:	e1a0000d 	mov	r0, sp
3000d17c:	ebffff00 	bl	3000cd84 <saveandupdate_curstack>

3000d180 <start_task>:
3000d180:	e1a0d000 	mov	sp, r0
3000d184:	e8fd7fff 	ldmia	sp!, {r0, r1, r2, r3, r4, r5, r6, r7, r8, r9, sl, fp, ip, sp, lr}^
3000d188:	e28de004 	add	lr, sp, #4	; 0x4
3000d18c:	e59ee000 	ldr	lr, [lr]
3000d190:	e169f00e 	msr	SPSR_fc, lr
3000d194:	e8dd8000 	ldmia	sp, {pc}^

3000d198 <Enter_Critical_S>:
3000d198:	e10f0000 	mrs	r0, CPSR
3000d19c:	e3800080 	orr	r0, r0, #128	; 0x80
3000d1a0:	e129f000 	msr	CPSR_fc, r0

3000d1a4 <Exit_Critical_S>:
3000d1a4:	e10f0000 	mrs	r0, CPSR
3000d1a8:	e3c00080 	bic	r0, r0, #128	; 0x80
3000d1ac:	e129f000 	msr	CPSR_fc, r0

3000d1b0 <filesystem_init>:
3000d1b0:	e1a0c00d 	mov	ip, sp
3000d1b4:	e92dd800 	stmdb	sp!, {fp, ip, lr, pc}
3000d1b8:	e24cb004 	sub	fp, ip, #4	; 0x4
3000d1bc:	e24dd004 	sub	sp, sp, #4	; 0x4
3000d1c0:	e3a03000 	mov	r3, #0	; 0x0
3000d1c4:	e50b3010 	str	r3, [fp, #-16]
3000d1c8:	e3a0060f 	mov	r0, #15728640	; 0xf00000
3000d1cc:	e59f10d8 	ldr	r1, [pc, #216]	; 3000d2ac <.text+0x52ec>
3000d1d0:	e3a02a0a 	mov	r2, #40960	; 0xa000
3000d1d4:	e282204c 	add	r2, r2, #76	; 0x4c
3000d1d8:	ebffeea9 	bl	30008c84 <nand_read>
3000d1dc:	e59f00cc 	ldr	r0, [pc, #204]	; 3000d2b0 <.text+0x52f0>
3000d1e0:	ebfffa70 	bl	3000bba8 <printf>
3000d1e4:	e3a03000 	mov	r3, #0	; 0x0
3000d1e8:	e50b3010 	str	r3, [fp, #-16]
3000d1ec:	e51b2010 	ldr	r2, [fp, #-16]
3000d1f0:	e3a03fff 	mov	r3, #1020	; 0x3fc
3000d1f4:	e2833003 	add	r3, r3, #3	; 0x3
3000d1f8:	e1520003 	cmp	r2, r3
3000d1fc:	ca000029 	bgt	3000d2a8 <filesystem_init+0xf8>
3000d200:	e59f10a4 	ldr	r1, [pc, #164]	; 3000d2ac <.text+0x52ec>
3000d204:	e51b2010 	ldr	r2, [fp, #-16]
3000d208:	e1a03002 	mov	r3, r2
3000d20c:	e1a03103 	mov	r3, r3, lsl #2
3000d210:	e0833002 	add	r3, r3, r2
3000d214:	e1a03183 	mov	r3, r3, lsl #3
3000d218:	e0833001 	add	r3, r3, r1
3000d21c:	e5933000 	ldr	r3, [r3]
3000d220:	e3530000 	cmp	r3, #0	; 0x0
3000d224:	da00001b 	ble	3000d298 <filesystem_init+0xe8>
3000d228:	e51b2010 	ldr	r2, [fp, #-16]
3000d22c:	e1a03002 	mov	r3, r2
3000d230:	e1a03103 	mov	r3, r3, lsl #2
3000d234:	e0833002 	add	r3, r3, r2
3000d238:	e1a02183 	mov	r2, r3, lsl #3
3000d23c:	e59f3070 	ldr	r3, [pc, #112]	; 3000d2b4 <.text+0x52f4>
3000d240:	e082c003 	add	ip, r2, r3
3000d244:	e59f1060 	ldr	r1, [pc, #96]	; 3000d2ac <.text+0x52ec>
3000d248:	e51b2010 	ldr	r2, [fp, #-16]
3000d24c:	e1a03002 	mov	r3, r2
3000d250:	e1a03103 	mov	r3, r3, lsl #2
3000d254:	e0833002 	add	r3, r3, r2
3000d258:	e1a03183 	mov	r3, r3, lsl #3
3000d25c:	e083e001 	add	lr, r3, r1
3000d260:	e59f1044 	ldr	r1, [pc, #68]	; 3000d2ac <.text+0x52ec>
3000d264:	e51b2010 	ldr	r2, [fp, #-16]
3000d268:	e3a00004 	mov	r0, #4	; 0x4
3000d26c:	e1a03002 	mov	r3, r2
3000d270:	e1a03103 	mov	r3, r3, lsl #2
3000d274:	e0833002 	add	r3, r3, r2
3000d278:	e1a03183 	mov	r3, r3, lsl #3
3000d27c:	e0833001 	add	r3, r3, r1
3000d280:	e0833000 	add	r3, r3, r0
3000d284:	e59f002c 	ldr	r0, [pc, #44]	; 3000d2b8 <.text+0x52f8>
3000d288:	e1a0100c 	mov	r1, ip
3000d28c:	e59e2000 	ldr	r2, [lr]
3000d290:	e5933000 	ldr	r3, [r3]
3000d294:	ebfffa43 	bl	3000bba8 <printf>
3000d298:	e51b3010 	ldr	r3, [fp, #-16]
3000d29c:	e2833001 	add	r3, r3, #1	; 0x1
3000d2a0:	e50b3010 	str	r3, [fp, #-16]
3000d2a4:	eaffffd0 	b	3000d1ec <filesystem_init+0x3c>
3000d2a8:	e89da808 	ldmia	sp, {r3, fp, sp, pc}
3000d2ac:	300100e0 	andcc	r0, r1, r0, ror #1
3000d2b0:	3000fe5c 	andcc	pc, r0, ip, asr lr
3000d2b4:	300100e8 	andcc	r0, r1, r8, ror #1
3000d2b8:	3000fe70 	andcc	pc, r0, r0, ror lr

3000d2bc <filesystem_sync>:
3000d2bc:	e1a0c00d 	mov	ip, sp
3000d2c0:	e92dd800 	stmdb	sp!, {fp, ip, lr, pc}
3000d2c4:	e24cb004 	sub	fp, ip, #4	; 0x4
3000d2c8:	ebfff091 	bl	30009514 <Enter_Critical>
3000d2cc:	e3a0060f 	mov	r0, #15728640	; 0xf00000
3000d2d0:	e3a01802 	mov	r1, #131072	; 0x20000
3000d2d4:	ebffeebb 	bl	30008dc8 <nand_erase>
3000d2d8:	e3a0060f 	mov	r0, #15728640	; 0xf00000
3000d2dc:	e59f1010 	ldr	r1, [pc, #16]	; 3000d2f4 <.text+0x5334>
3000d2e0:	e3a02a0a 	mov	r2, #40960	; 0xa000
3000d2e4:	e282204c 	add	r2, r2, #76	; 0x4c
3000d2e8:	ebffeef2 	bl	30008eb8 <nand_write>
3000d2ec:	ebfff075 	bl	300094c8 <Exit_Critical>
3000d2f0:	e89da800 	ldmia	sp, {fp, sp, pc}
3000d2f4:	300100e0 	andcc	r0, r1, r0, ror #1

3000d2f8 <filesystem_erase>:
3000d2f8:	e1a0c00d 	mov	ip, sp
3000d2fc:	e92dd800 	stmdb	sp!, {fp, ip, lr, pc}
3000d300:	e24cb004 	sub	fp, ip, #4	; 0x4
3000d304:	ebfff082 	bl	30009514 <Enter_Critical>
3000d308:	e59f002c 	ldr	r0, [pc, #44]	; 3000d33c <.text+0x537c>
3000d30c:	e3a01000 	mov	r1, #0	; 0x0
3000d310:	e3a02a0a 	mov	r2, #40960	; 0xa000
3000d314:	e282204c 	add	r2, r2, #76	; 0x4c
3000d318:	eb0001ec 	bl	3000dad0 <memset>
3000d31c:	ebffffe6 	bl	3000d2bc <filesystem_sync>
3000d320:	e59f0018 	ldr	r0, [pc, #24]	; 3000d340 <.text+0x5380>
3000d324:	e3a01a0a 	mov	r1, #40960	; 0xa000
3000d328:	e281104c 	add	r1, r1, #76	; 0x4c
3000d32c:	ebfffa1d 	bl	3000bba8 <printf>
3000d330:	ebffff9e 	bl	3000d1b0 <filesystem_init>
3000d334:	ebfff063 	bl	300094c8 <Exit_Critical>
3000d338:	e89da800 	ldmia	sp, {fp, sp, pc}
3000d33c:	300100e0 	andcc	r0, r1, r0, ror #1
3000d340:	3000fe94 	mulcc	r0, r4, lr

3000d344 <filesystem_find_nandmap>:
3000d344:	e1a0c00d 	mov	ip, sp
3000d348:	e92dd800 	stmdb	sp!, {fp, ip, lr, pc}
3000d34c:	e24cb004 	sub	fp, ip, #4	; 0x4
3000d350:	e24dd014 	sub	sp, sp, #20	; 0x14
3000d354:	e50b0010 	str	r0, [fp, #-16]
3000d358:	e3a03000 	mov	r3, #0	; 0x0
3000d35c:	e50b3014 	str	r3, [fp, #-20]
3000d360:	e3a03000 	mov	r3, #0	; 0x0
3000d364:	e50b3018 	str	r3, [fp, #-24]
3000d368:	e59f31d0 	ldr	r3, [pc, #464]	; 3000d540 <.text+0x5580>
3000d36c:	e50b301c 	str	r3, [fp, #-28]
3000d370:	e51b3010 	ldr	r3, [fp, #-16]
3000d374:	e3530802 	cmp	r3, #131072	; 0x20000
3000d378:	ca000002 	bgt	3000d388 <filesystem_find_nandmap+0x44>
3000d37c:	e3a03802 	mov	r3, #131072	; 0x20000
3000d380:	e50b3010 	str	r3, [fp, #-16]
3000d384:	ea000026 	b	3000d424 <filesystem_find_nandmap+0xe0>
3000d388:	e51b3010 	ldr	r3, [fp, #-16]
3000d38c:	e3530702 	cmp	r3, #524288	; 0x80000
3000d390:	ca000002 	bgt	3000d3a0 <filesystem_find_nandmap+0x5c>
3000d394:	e3a03702 	mov	r3, #524288	; 0x80000
3000d398:	e50b3010 	str	r3, [fp, #-16]
3000d39c:	ea000020 	b	3000d424 <filesystem_find_nandmap+0xe0>
3000d3a0:	e51b3010 	ldr	r3, [fp, #-16]
3000d3a4:	e3530601 	cmp	r3, #1048576	; 0x100000
3000d3a8:	ca000002 	bgt	3000d3b8 <filesystem_find_nandmap+0x74>
3000d3ac:	e3a03601 	mov	r3, #1048576	; 0x100000
3000d3b0:	e50b3010 	str	r3, [fp, #-16]
3000d3b4:	ea00001a 	b	3000d424 <filesystem_find_nandmap+0xe0>
3000d3b8:	e51b3010 	ldr	r3, [fp, #-16]
3000d3bc:	e3530501 	cmp	r3, #4194304	; 0x400000
3000d3c0:	ca000002 	bgt	3000d3d0 <filesystem_find_nandmap+0x8c>
3000d3c4:	e3a03501 	mov	r3, #4194304	; 0x400000
3000d3c8:	e50b3010 	str	r3, [fp, #-16]
3000d3cc:	ea000014 	b	3000d424 <filesystem_find_nandmap+0xe0>
3000d3d0:	e51b3010 	ldr	r3, [fp, #-16]
3000d3d4:	e3530502 	cmp	r3, #8388608	; 0x800000
3000d3d8:	ca000002 	bgt	3000d3e8 <filesystem_find_nandmap+0xa4>
3000d3dc:	e3a03502 	mov	r3, #8388608	; 0x800000
3000d3e0:	e50b3010 	str	r3, [fp, #-16]
3000d3e4:	ea00000e 	b	3000d424 <filesystem_find_nandmap+0xe0>
3000d3e8:	e51b3010 	ldr	r3, [fp, #-16]
3000d3ec:	e3530401 	cmp	r3, #16777216	; 0x1000000
3000d3f0:	ca000002 	bgt	3000d400 <filesystem_find_nandmap+0xbc>
3000d3f4:	e3a03401 	mov	r3, #16777216	; 0x1000000
3000d3f8:	e50b3010 	str	r3, [fp, #-16]
3000d3fc:	ea000008 	b	3000d424 <filesystem_find_nandmap+0xe0>
3000d400:	e51b3010 	ldr	r3, [fp, #-16]
3000d404:	e3530402 	cmp	r3, #33554432	; 0x2000000
3000d408:	ca000002 	bgt	3000d418 <filesystem_find_nandmap+0xd4>
3000d40c:	e3a03402 	mov	r3, #33554432	; 0x2000000
3000d410:	e50b3010 	str	r3, [fp, #-16]
3000d414:	ea000002 	b	3000d424 <filesystem_find_nandmap+0xe0>
3000d418:	e3e03000 	mvn	r3, #0	; 0x0
3000d41c:	e50b3020 	str	r3, [fp, #-32]
3000d420:	ea000043 	b	3000d534 <filesystem_find_nandmap+0x1f0>
3000d424:	e51b3010 	ldr	r3, [fp, #-16]
3000d428:	e3530802 	cmp	r3, #131072	; 0x20000
3000d42c:	0a000000 	beq	3000d434 <filesystem_find_nandmap+0xf0>
3000d430:	ea00003d 	b	3000d52c <filesystem_find_nandmap+0x1e8>
3000d434:	e3a03000 	mov	r3, #0	; 0x0
3000d438:	e50b3014 	str	r3, [fp, #-20]
3000d43c:	e51b2014 	ldr	r2, [fp, #-20]
3000d440:	e3a03f5f 	mov	r3, #380	; 0x17c
3000d444:	e2833003 	add	r3, r3, #3	; 0x3
3000d448:	e1520003 	cmp	r2, r3
3000d44c:	ca000036 	bgt	3000d52c <filesystem_find_nandmap+0x1e8>
3000d450:	e51b101c 	ldr	r1, [fp, #-28]
3000d454:	e51b3014 	ldr	r3, [fp, #-20]
3000d458:	e1a03123 	mov	r3, r3, lsr #2
3000d45c:	e3a0201c 	mov	r2, #28	; 0x1c
3000d460:	e1a03103 	mov	r3, r3, lsl #2
3000d464:	e0833001 	add	r3, r3, r1
3000d468:	e0831002 	add	r1, r3, r2
3000d46c:	e51b2014 	ldr	r2, [fp, #-20]
3000d470:	e1a03fc2 	mov	r3, r2, asr #31
3000d474:	e1a03da3 	mov	r3, r3, lsr #27
3000d478:	e0823003 	add	r3, r2, r3
3000d47c:	e1a032c3 	mov	r3, r3, asr #5
3000d480:	e1a03283 	mov	r3, r3, lsl #5
3000d484:	e0632002 	rsb	r2, r3, r2
3000d488:	e5913000 	ldr	r3, [r1]
3000d48c:	e1a03253 	mov	r3, r3, asr r2
3000d490:	e2233001 	eor	r3, r3, #1	; 0x1
3000d494:	e2033001 	and	r3, r3, #1	; 0x1
3000d498:	e3530000 	cmp	r3, #0	; 0x0
3000d49c:	0a00001e 	beq	3000d51c <filesystem_find_nandmap+0x1d8>
3000d4a0:	e51b101c 	ldr	r1, [fp, #-28]
3000d4a4:	e51b3014 	ldr	r3, [fp, #-20]
3000d4a8:	e1a00123 	mov	r0, r3, lsr #2
3000d4ac:	e3a0201c 	mov	r2, #28	; 0x1c
3000d4b0:	e1a03000 	mov	r3, r0
3000d4b4:	e1a03103 	mov	r3, r3, lsl #2
3000d4b8:	e0833001 	add	r3, r3, r1
3000d4bc:	e083c002 	add	ip, r3, r2
3000d4c0:	e51b201c 	ldr	r2, [fp, #-28]
3000d4c4:	e3a0101c 	mov	r1, #28	; 0x1c
3000d4c8:	e1a03000 	mov	r3, r0
3000d4cc:	e1a03103 	mov	r3, r3, lsl #2
3000d4d0:	e0833002 	add	r3, r3, r2
3000d4d4:	e0831001 	add	r1, r3, r1
3000d4d8:	e51b2014 	ldr	r2, [fp, #-20]
3000d4dc:	e1a03fc2 	mov	r3, r2, asr #31
3000d4e0:	e1a03da3 	mov	r3, r3, lsr #27
3000d4e4:	e0823003 	add	r3, r2, r3
3000d4e8:	e1a032c3 	mov	r3, r3, asr #5
3000d4ec:	e1a03283 	mov	r3, r3, lsl #5
3000d4f0:	e0632002 	rsb	r2, r3, r2
3000d4f4:	e3a03001 	mov	r3, #1	; 0x1
3000d4f8:	e1a02213 	mov	r2, r3, lsl r2
3000d4fc:	e5913000 	ldr	r3, [r1]
3000d500:	e1833002 	orr	r3, r3, r2
3000d504:	e58c3000 	str	r3, [ip]
3000d508:	e51b3014 	ldr	r3, [fp, #-20]
3000d50c:	e1a03883 	mov	r3, r3, lsl #17
3000d510:	e2833401 	add	r3, r3, #16777216	; 0x1000000
3000d514:	e50b3020 	str	r3, [fp, #-32]
3000d518:	ea000005 	b	3000d534 <filesystem_find_nandmap+0x1f0>
3000d51c:	e51b3014 	ldr	r3, [fp, #-20]
3000d520:	e2833001 	add	r3, r3, #1	; 0x1
3000d524:	e50b3014 	str	r3, [fp, #-20]
3000d528:	eaffffc3 	b	3000d43c <filesystem_find_nandmap+0xf8>
3000d52c:	e3e03000 	mvn	r3, #0	; 0x0
3000d530:	e50b3020 	str	r3, [fp, #-32]
3000d534:	e51b0020 	ldr	r0, [fp, #-32]
3000d538:	e24bd00c 	sub	sp, fp, #12	; 0xc
3000d53c:	e89da800 	ldmia	sp, {fp, sp, pc}
3000d540:	3001a0e0 	andcc	sl, r1, r0, ror #1

3000d544 <filesystem_find_systree>:
3000d544:	e1a0c00d 	mov	ip, sp
3000d548:	e92dd800 	stmdb	sp!, {fp, ip, lr, pc}
3000d54c:	e24cb004 	sub	fp, ip, #4	; 0x4
3000d550:	e24dd008 	sub	sp, sp, #8	; 0x8
3000d554:	e59f3050 	ldr	r3, [pc, #80]	; 3000d5ac <.text+0x55ec>
3000d558:	e50b3010 	str	r3, [fp, #-16]
3000d55c:	e51b2010 	ldr	r2, [fp, #-16]
3000d560:	e59f3048 	ldr	r3, [pc, #72]	; 3000d5b0 <.text+0x55f0>
3000d564:	e1520003 	cmp	r2, r3
3000d568:	8a00000a 	bhi	3000d598 <filesystem_find_systree+0x54>
3000d56c:	e51b3010 	ldr	r3, [fp, #-16]
3000d570:	e5933000 	ldr	r3, [r3]
3000d574:	e3530000 	cmp	r3, #0	; 0x0
3000d578:	1a000002 	bne	3000d588 <filesystem_find_systree+0x44>
3000d57c:	e51b3010 	ldr	r3, [fp, #-16]
3000d580:	e50b3014 	str	r3, [fp, #-20]
3000d584:	ea000005 	b	3000d5a0 <filesystem_find_systree+0x5c>
3000d588:	e51b3010 	ldr	r3, [fp, #-16]
3000d58c:	e2833028 	add	r3, r3, #40	; 0x28
3000d590:	e50b3010 	str	r3, [fp, #-16]
3000d594:	eafffff0 	b	3000d55c <filesystem_find_systree+0x18>
3000d598:	e3a03000 	mov	r3, #0	; 0x0
3000d59c:	e50b3014 	str	r3, [fp, #-20]
3000d5a0:	e51b0014 	ldr	r0, [fp, #-20]
3000d5a4:	e24bd00c 	sub	sp, fp, #12	; 0xc
3000d5a8:	e89da800 	ldmia	sp, {fp, sp, pc}
3000d5ac:	300100e0 	andcc	r0, r1, r0, ror #1
3000d5b0:	3001a0b8 	strcch	sl, [r1], -r8

3000d5b4 <filesystem_open_file>:
3000d5b4:	e1a0c00d 	mov	ip, sp
3000d5b8:	e92dd800 	stmdb	sp!, {fp, ip, lr, pc}
3000d5bc:	e24cb004 	sub	fp, ip, #4	; 0x4
3000d5c0:	e24dd00c 	sub	sp, sp, #12	; 0xc
3000d5c4:	e50b0010 	str	r0, [fp, #-16]
3000d5c8:	e59f3078 	ldr	r3, [pc, #120]	; 3000d648 <.text+0x5688>
3000d5cc:	e50b3014 	str	r3, [fp, #-20]
3000d5d0:	e51b3010 	ldr	r3, [fp, #-16]
3000d5d4:	e3530000 	cmp	r3, #0	; 0x0
3000d5d8:	1a000002 	bne	3000d5e8 <filesystem_open_file+0x34>
3000d5dc:	e3a03000 	mov	r3, #0	; 0x0
3000d5e0:	e50b3018 	str	r3, [fp, #-24]
3000d5e4:	ea000014 	b	3000d63c <filesystem_open_file+0x88>
3000d5e8:	e51b2014 	ldr	r2, [fp, #-20]
3000d5ec:	e59f3058 	ldr	r3, [pc, #88]	; 3000d64c <.text+0x568c>
3000d5f0:	e1520003 	cmp	r2, r3
3000d5f4:	8a00000e 	bhi	3000d634 <filesystem_open_file+0x80>
3000d5f8:	e51b3014 	ldr	r3, [fp, #-20]
3000d5fc:	e2833008 	add	r3, r3, #8	; 0x8
3000d600:	e1a00003 	mov	r0, r3
3000d604:	e51b1010 	ldr	r1, [fp, #-16]
3000d608:	eb0000b9 	bl	3000d8f4 <strcmp>
3000d60c:	e1a03000 	mov	r3, r0
3000d610:	e3530000 	cmp	r3, #0	; 0x0
3000d614:	1a000002 	bne	3000d624 <filesystem_open_file+0x70>
3000d618:	e51b3014 	ldr	r3, [fp, #-20]
3000d61c:	e50b3018 	str	r3, [fp, #-24]
3000d620:	ea000005 	b	3000d63c <filesystem_open_file+0x88>
3000d624:	e51b3014 	ldr	r3, [fp, #-20]
3000d628:	e2833028 	add	r3, r3, #40	; 0x28
3000d62c:	e50b3014 	str	r3, [fp, #-20]
3000d630:	eaffffec 	b	3000d5e8 <filesystem_open_file+0x34>
3000d634:	e3a03000 	mov	r3, #0	; 0x0
3000d638:	e50b3018 	str	r3, [fp, #-24]
3000d63c:	e51b0018 	ldr	r0, [fp, #-24]
3000d640:	e24bd00c 	sub	sp, fp, #12	; 0xc
3000d644:	e89da800 	ldmia	sp, {fp, sp, pc}
3000d648:	300100e0 	andcc	r0, r1, r0, ror #1
3000d64c:	3001a0b8 	strcch	sl, [r1], -r8

3000d650 <filesystem_make_file>:
3000d650:	e1a0c00d 	mov	ip, sp
3000d654:	e92dd800 	stmdb	sp!, {fp, ip, lr, pc}
3000d658:	e24cb004 	sub	fp, ip, #4	; 0x4
3000d65c:	e24dd014 	sub	sp, sp, #20	; 0x14
3000d660:	e50b0010 	str	r0, [fp, #-16]
3000d664:	e50b1014 	str	r1, [fp, #-20]
3000d668:	e3a03000 	mov	r3, #0	; 0x0
3000d66c:	e50b3018 	str	r3, [fp, #-24]
3000d670:	e3e03000 	mvn	r3, #0	; 0x0
3000d674:	e50b301c 	str	r3, [fp, #-28]
3000d678:	e51b0010 	ldr	r0, [fp, #-16]
3000d67c:	ebffffcc 	bl	3000d5b4 <filesystem_open_file>
3000d680:	e1a03000 	mov	r3, r0
3000d684:	e50b3018 	str	r3, [fp, #-24]
3000d688:	e51b3018 	ldr	r3, [fp, #-24]
3000d68c:	e3530000 	cmp	r3, #0	; 0x0
3000d690:	0a000003 	beq	3000d6a4 <filesystem_make_file+0x54>
3000d694:	e51b0018 	ldr	r0, [fp, #-24]
3000d698:	e3a01000 	mov	r1, #0	; 0x0
3000d69c:	e3a02028 	mov	r2, #40	; 0x28
3000d6a0:	eb00010a 	bl	3000dad0 <memset>
3000d6a4:	ebffffa6 	bl	3000d544 <filesystem_find_systree>
3000d6a8:	e1a03000 	mov	r3, r0
3000d6ac:	e50b3018 	str	r3, [fp, #-24]
3000d6b0:	e51b3018 	ldr	r3, [fp, #-24]
3000d6b4:	e3530000 	cmp	r3, #0	; 0x0
3000d6b8:	1a000004 	bne	3000d6d0 <filesystem_make_file+0x80>
3000d6bc:	e59f007c 	ldr	r0, [pc, #124]	; 3000d740 <.text+0x5780>
3000d6c0:	ebfff938 	bl	3000bba8 <printf>
3000d6c4:	e3a03000 	mov	r3, #0	; 0x0
3000d6c8:	e50b3020 	str	r3, [fp, #-32]
3000d6cc:	ea000018 	b	3000d734 <filesystem_make_file+0xe4>
3000d6d0:	e51b0014 	ldr	r0, [fp, #-20]
3000d6d4:	ebffff1a 	bl	3000d344 <filesystem_find_nandmap>
3000d6d8:	e1a03000 	mov	r3, r0
3000d6dc:	e50b301c 	str	r3, [fp, #-28]
3000d6e0:	e51b301c 	ldr	r3, [fp, #-28]
3000d6e4:	e3730001 	cmn	r3, #1	; 0x1
3000d6e8:	1a000004 	bne	3000d700 <filesystem_make_file+0xb0>
3000d6ec:	e59f0050 	ldr	r0, [pc, #80]	; 3000d744 <.text+0x5784>
3000d6f0:	ebfff92c 	bl	3000bba8 <printf>
3000d6f4:	e3a03000 	mov	r3, #0	; 0x0
3000d6f8:	e50b3020 	str	r3, [fp, #-32]
3000d6fc:	ea00000c 	b	3000d734 <filesystem_make_file+0xe4>
3000d700:	e51b3018 	ldr	r3, [fp, #-24]
3000d704:	e2833008 	add	r3, r3, #8	; 0x8
3000d708:	e1a00003 	mov	r0, r3
3000d70c:	e51b1010 	ldr	r1, [fp, #-16]
3000d710:	eb000082 	bl	3000d920 <strcpy>
3000d714:	e51b2018 	ldr	r2, [fp, #-24]
3000d718:	e51b301c 	ldr	r3, [fp, #-28]
3000d71c:	e5823004 	str	r3, [r2, #4]
3000d720:	e51b2018 	ldr	r2, [fp, #-24]
3000d724:	e51b3014 	ldr	r3, [fp, #-20]
3000d728:	e5823000 	str	r3, [r2]
3000d72c:	e51b3018 	ldr	r3, [fp, #-24]
3000d730:	e50b3020 	str	r3, [fp, #-32]
3000d734:	e51b0020 	ldr	r0, [fp, #-32]
3000d738:	e24bd00c 	sub	sp, fp, #12	; 0xc
3000d73c:	e89da800 	ldmia	sp, {fp, sp, pc}
3000d740:	3000febc 	strcch	pc, [r0], -ip
3000d744:	3000fedc 	ldrccd	pc, [r0], -ip

3000d748 <filesystem_write_file>:
3000d748:	e1a0c00d 	mov	ip, sp
3000d74c:	e92dd800 	stmdb	sp!, {fp, ip, lr, pc}
3000d750:	e24cb004 	sub	fp, ip, #4	; 0x4
3000d754:	e24dd010 	sub	sp, sp, #16	; 0x10
3000d758:	e50b0010 	str	r0, [fp, #-16]
3000d75c:	e50b1014 	str	r1, [fp, #-20]
3000d760:	e50b2018 	str	r2, [fp, #-24]
3000d764:	e50b301c 	str	r3, [fp, #-28]
3000d768:	e51b3010 	ldr	r3, [fp, #-16]
3000d76c:	e59f0070 	ldr	r0, [pc, #112]	; 3000d7e4 <.text+0x5824>
3000d770:	e5931004 	ldr	r1, [r3, #4]
3000d774:	e51b2014 	ldr	r2, [fp, #-20]
3000d778:	e51b3018 	ldr	r3, [fp, #-24]
3000d77c:	ebfff909 	bl	3000bba8 <printf>
3000d780:	e51b3010 	ldr	r3, [fp, #-16]
3000d784:	e5932004 	ldr	r2, [r3, #4]
3000d788:	e51b3018 	ldr	r3, [fp, #-24]
3000d78c:	e0822003 	add	r2, r2, r3
3000d790:	e51b3014 	ldr	r3, [fp, #-20]
3000d794:	e2833401 	add	r3, r3, #16777216	; 0x1000000
3000d798:	e24338fe 	sub	r3, r3, #16646144	; 0xfe0000
3000d79c:	e2433001 	sub	r3, r3, #1	; 0x1
3000d7a0:	e1a038a3 	mov	r3, r3, lsr #17
3000d7a4:	e1a03883 	mov	r3, r3, lsl #17
3000d7a8:	e1a00002 	mov	r0, r2
3000d7ac:	e1a01003 	mov	r1, r3
3000d7b0:	ebffed84 	bl	30008dc8 <nand_erase>
3000d7b4:	e51b3010 	ldr	r3, [fp, #-16]
3000d7b8:	e5932004 	ldr	r2, [r3, #4]
3000d7bc:	e51b3018 	ldr	r3, [fp, #-24]
3000d7c0:	e0823003 	add	r3, r2, r3
3000d7c4:	e1a00003 	mov	r0, r3
3000d7c8:	e51b101c 	ldr	r1, [fp, #-28]
3000d7cc:	e51b2014 	ldr	r2, [fp, #-20]
3000d7d0:	ebffedb8 	bl	30008eb8 <nand_write>
3000d7d4:	e3a03000 	mov	r3, #0	; 0x0
3000d7d8:	e1a00003 	mov	r0, r3
3000d7dc:	e24bd00c 	sub	sp, fp, #12	; 0xc
3000d7e0:	e89da800 	ldmia	sp, {fp, sp, pc}
3000d7e4:	3000fefc 	strccd	pc, [r0], -ip

3000d7e8 <filesystem_read_file>:
3000d7e8:	e1a0c00d 	mov	ip, sp
3000d7ec:	e92dd800 	stmdb	sp!, {fp, ip, lr, pc}
3000d7f0:	e24cb004 	sub	fp, ip, #4	; 0x4
3000d7f4:	e24dd010 	sub	sp, sp, #16	; 0x10
3000d7f8:	e50b0010 	str	r0, [fp, #-16]
3000d7fc:	e50b1014 	str	r1, [fp, #-20]
3000d800:	e50b2018 	str	r2, [fp, #-24]
3000d804:	e51b3010 	ldr	r3, [fp, #-16]
3000d808:	e3530000 	cmp	r3, #0	; 0x0
3000d80c:	1a000002 	bne	3000d81c <filesystem_read_file+0x34>
3000d810:	e3e03000 	mvn	r3, #0	; 0x0
3000d814:	e50b301c 	str	r3, [fp, #-28]
3000d818:	ea000015 	b	3000d874 <filesystem_read_file+0x8c>
3000d81c:	e51b3010 	ldr	r3, [fp, #-16]
3000d820:	e5932000 	ldr	r2, [r3]
3000d824:	e51b3018 	ldr	r3, [fp, #-24]
3000d828:	e1520003 	cmp	r2, r3
3000d82c:	ca000009 	bgt	3000d858 <filesystem_read_file+0x70>
3000d830:	e51b3010 	ldr	r3, [fp, #-16]
3000d834:	e51b2010 	ldr	r2, [fp, #-16]
3000d838:	e5930004 	ldr	r0, [r3, #4]
3000d83c:	e51b1014 	ldr	r1, [fp, #-20]
3000d840:	e5922000 	ldr	r2, [r2]
3000d844:	ebffed0e 	bl	30008c84 <nand_read>
3000d848:	e51b3010 	ldr	r3, [fp, #-16]
3000d84c:	e5933000 	ldr	r3, [r3]
3000d850:	e50b301c 	str	r3, [fp, #-28]
3000d854:	ea000006 	b	3000d874 <filesystem_read_file+0x8c>
3000d858:	e51b3010 	ldr	r3, [fp, #-16]
3000d85c:	e5930004 	ldr	r0, [r3, #4]
3000d860:	e51b1014 	ldr	r1, [fp, #-20]
3000d864:	e51b2018 	ldr	r2, [fp, #-24]
3000d868:	ebffed05 	bl	30008c84 <nand_read>
3000d86c:	e51b3018 	ldr	r3, [fp, #-24]
3000d870:	e50b301c 	str	r3, [fp, #-28]
3000d874:	e51b001c 	ldr	r0, [fp, #-28]
3000d878:	e24bd00c 	sub	sp, fp, #12	; 0xc
3000d87c:	e89da800 	ldmia	sp, {fp, sp, pc}

3000d880 <filesystem_print_tree>:
3000d880:	e1a0c00d 	mov	ip, sp
3000d884:	e92dd800 	stmdb	sp!, {fp, ip, lr, pc}
3000d888:	e24cb004 	sub	fp, ip, #4	; 0x4
3000d88c:	e24dd004 	sub	sp, sp, #4	; 0x4
3000d890:	e59f3050 	ldr	r3, [pc, #80]	; 3000d8e8 <.text+0x5928>
3000d894:	e50b3010 	str	r3, [fp, #-16]
3000d898:	e51b2010 	ldr	r2, [fp, #-16]
3000d89c:	e59f3048 	ldr	r3, [pc, #72]	; 3000d8ec <.text+0x592c>
3000d8a0:	e1520003 	cmp	r2, r3
3000d8a4:	8a00000e 	bhi	3000d8e4 <filesystem_print_tree+0x64>
3000d8a8:	e51b3010 	ldr	r3, [fp, #-16]
3000d8ac:	e5933000 	ldr	r3, [r3]
3000d8b0:	e3530000 	cmp	r3, #0	; 0x0
3000d8b4:	da000006 	ble	3000d8d4 <filesystem_print_tree+0x54>
3000d8b8:	e51b3010 	ldr	r3, [fp, #-16]
3000d8bc:	e2833008 	add	r3, r3, #8	; 0x8
3000d8c0:	e51b2010 	ldr	r2, [fp, #-16]
3000d8c4:	e59f0024 	ldr	r0, [pc, #36]	; 3000d8f0 <.text+0x5930>
3000d8c8:	e1a01003 	mov	r1, r3
3000d8cc:	e5922000 	ldr	r2, [r2]
3000d8d0:	ebfff8b4 	bl	3000bba8 <printf>
3000d8d4:	e51b3010 	ldr	r3, [fp, #-16]
3000d8d8:	e2833028 	add	r3, r3, #40	; 0x28
3000d8dc:	e50b3010 	str	r3, [fp, #-16]
3000d8e0:	eaffffec 	b	3000d898 <filesystem_print_tree+0x18>
3000d8e4:	e89da808 	ldmia	sp, {r3, fp, sp, pc}
3000d8e8:	300100e0 	andcc	r0, r1, r0, ror #1
3000d8ec:	3001a0b8 	strcch	sl, [r1], -r8
3000d8f0:	3000ff44 	andcc	pc, r0, r4, asr #30

3000d8f4 <strcmp>:
3000d8f4:	e1a02000 	mov	r2, r0
3000d8f8:	e4d20001 	ldrb	r0, [r2], #1
3000d8fc:	e4d13001 	ldrb	r3, [r1], #1
3000d900:	e3500000 	cmp	r0, #0	; 0x0
3000d904:	1a000001 	bne	3000d910 <strcmp+0x1c>
3000d908:	e2630000 	rsb	r0, r3, #0	; 0x0
3000d90c:	e1a0f00e 	mov	pc, lr
3000d910:	e1500003 	cmp	r0, r3
3000d914:	0afffff7 	beq	3000d8f8 <strcmp+0x4>
3000d918:	e0630000 	rsb	r0, r3, r0
3000d91c:	e1a0f00e 	mov	pc, lr

3000d920 <strcpy>:
3000d920:	e0612000 	rsb	r2, r1, r0
3000d924:	e2422001 	sub	r2, r2, #1	; 0x1
3000d928:	e4d13001 	ldrb	r3, [r1], #1
3000d92c:	e7c13002 	strb	r3, [r1, r2]
3000d930:	e3530000 	cmp	r3, #0	; 0x0
3000d934:	1afffffb 	bne	3000d928 <strcpy+0x8>
3000d938:	e1a0f00e 	mov	pc, lr

3000d93c <strncpy>:
3000d93c:	e52de004 	str	lr, [sp, #-4]!
3000d940:	e240c001 	sub	ip, r0, #1	; 0x1
3000d944:	e3520003 	cmp	r2, #3	; 0x3
3000d948:	9a000018 	bls	3000d9b0 <strncpy+0x74>
3000d94c:	e1a0e122 	mov	lr, r2, lsr #2
3000d950:	e4d13001 	ldrb	r3, [r1], #1
3000d954:	e5ec3001 	strb	r3, [ip, #1]!
3000d958:	e3530000 	cmp	r3, #0	; 0x0
3000d95c:	0a00000e 	beq	3000d99c <strncpy+0x60>
3000d960:	e4d13001 	ldrb	r3, [r1], #1
3000d964:	e5ec3001 	strb	r3, [ip, #1]!
3000d968:	e3530000 	cmp	r3, #0	; 0x0
3000d96c:	0a00000a 	beq	3000d99c <strncpy+0x60>
3000d970:	e4d13001 	ldrb	r3, [r1], #1
3000d974:	e5ec3001 	strb	r3, [ip, #1]!
3000d978:	e3530000 	cmp	r3, #0	; 0x0
3000d97c:	0a000006 	beq	3000d99c <strncpy+0x60>
3000d980:	e4d13001 	ldrb	r3, [r1], #1
3000d984:	e5ec3001 	strb	r3, [ip, #1]!
3000d988:	e3530000 	cmp	r3, #0	; 0x0
3000d98c:	0a000002 	beq	3000d99c <strncpy+0x60>
3000d990:	e25ee001 	subs	lr, lr, #1	; 0x1
3000d994:	0a000005 	beq	3000d9b0 <strncpy+0x74>
3000d998:	eaffffec 	b	3000d950 <strncpy+0x14>
3000d99c:	e060300c 	rsb	r3, r0, ip
3000d9a0:	e0632002 	rsb	r2, r3, r2
3000d9a4:	e2522001 	subs	r2, r2, #1	; 0x1
3000d9a8:	049df004 	ldreq	pc, [sp], #4
3000d9ac:	ea000007 	b	3000d9d0 <strncpy+0x94>
3000d9b0:	e2122003 	ands	r2, r2, #3	; 0x3
3000d9b4:	049df004 	ldreq	pc, [sp], #4
3000d9b8:	e4d13001 	ldrb	r3, [r1], #1
3000d9bc:	e5ec3001 	strb	r3, [ip, #1]!
3000d9c0:	e2522001 	subs	r2, r2, #1	; 0x1
3000d9c4:	049df004 	ldreq	pc, [sp], #4
3000d9c8:	e3530000 	cmp	r3, #0	; 0x0
3000d9cc:	1afffff9 	bne	3000d9b8 <strncpy+0x7c>
3000d9d0:	e3a03000 	mov	r3, #0	; 0x0
3000d9d4:	e5ec3001 	strb	r3, [ip, #1]!
3000d9d8:	e2522001 	subs	r2, r2, #1	; 0x1
3000d9dc:	1afffffc 	bne	3000d9d4 <strncpy+0x98>
3000d9e0:	e49df004 	ldr	pc, [sp], #4

3000d9e4 <strstr>:
3000d9e4:	e92d4030 	stmdb	sp!, {r4, r5, lr}
3000d9e8:	e5d12000 	ldrb	r2, [r1]
3000d9ec:	e3520000 	cmp	r2, #0	; 0x0
3000d9f0:	08bd8030 	ldmeqia	sp!, {r4, r5, pc}
3000d9f4:	e2400001 	sub	r0, r0, #1	; 0x1
3000d9f8:	e5f03001 	ldrb	r3, [r0, #1]!
3000d9fc:	e3530000 	cmp	r3, #0	; 0x0
3000da00:	0a000030 	beq	3000dac8 <strstr+0xe4>
3000da04:	e1530002 	cmp	r3, r2
3000da08:	1afffffa 	bne	3000d9f8 <strstr+0x14>
3000da0c:	e5f1e001 	ldrb	lr, [r1, #1]!
3000da10:	e35e0000 	cmp	lr, #0	; 0x0
3000da14:	08bd8030 	ldmeqia	sp!, {r4, r5, pc}
3000da18:	e2811001 	add	r1, r1, #1	; 0x1
3000da1c:	e5f03001 	ldrb	r3, [r0, #1]!
3000da20:	e153000e 	cmp	r3, lr
3000da24:	0a000010 	beq	3000da6c <strstr+0x88>
3000da28:	ea000000 	b	3000da30 <strstr+0x4c>
3000da2c:	e5f03001 	ldrb	r3, [r0, #1]!
3000da30:	e1530002 	cmp	r3, r2
3000da34:	0a000009 	beq	3000da60 <strstr+0x7c>
3000da38:	e3530000 	cmp	r3, #0	; 0x0
3000da3c:	0a000021 	beq	3000dac8 <strstr+0xe4>
3000da40:	e5f03001 	ldrb	r3, [r0, #1]!
3000da44:	e1530002 	cmp	r3, r2
3000da48:	0a000004 	beq	3000da60 <strstr+0x7c>
3000da4c:	e3530000 	cmp	r3, #0	; 0x0
3000da50:	0a00001c 	beq	3000dac8 <strstr+0xe4>
3000da54:	e5f03001 	ldrb	r3, [r0, #1]!
3000da58:	e1530002 	cmp	r3, r2
3000da5c:	1afffff5 	bne	3000da38 <strstr+0x54>
3000da60:	e5f03001 	ldrb	r3, [r0, #1]!
3000da64:	e153000e 	cmp	r3, lr
3000da68:	1afffff0 	bne	3000da30 <strstr+0x4c>
3000da6c:	e2804001 	add	r4, r0, #1	; 0x1
3000da70:	e5d03001 	ldrb	r3, [r0, #1]
3000da74:	e1a05001 	mov	r5, r1
3000da78:	e5d1c000 	ldrb	ip, [r1]
3000da7c:	e2400001 	sub	r0, r0, #1	; 0x1
3000da80:	e153000c 	cmp	r3, ip
3000da84:	1a00000b 	bne	3000dab8 <strstr+0xd4>
3000da88:	e35c0000 	cmp	ip, #0	; 0x0
3000da8c:	08bd8030 	ldmeqia	sp!, {r4, r5, pc}
3000da90:	e5f43001 	ldrb	r3, [r4, #1]!
3000da94:	e5f1c001 	ldrb	ip, [r1, #1]!
3000da98:	e153000c 	cmp	r3, ip
3000da9c:	1a000005 	bne	3000dab8 <strstr+0xd4>
3000daa0:	e35c0000 	cmp	ip, #0	; 0x0
3000daa4:	08bd8030 	ldmeqia	sp!, {r4, r5, pc}
3000daa8:	e5f43001 	ldrb	r3, [r4, #1]!
3000daac:	e5f1c001 	ldrb	ip, [r1, #1]!
3000dab0:	e153000c 	cmp	r3, ip
3000dab4:	0afffff3 	beq	3000da88 <strstr+0xa4>
3000dab8:	e1a01005 	mov	r1, r5
3000dabc:	e35c0000 	cmp	ip, #0	; 0x0
3000dac0:	08bd8030 	ldmeqia	sp!, {r4, r5, pc}
3000dac4:	eaffffd8 	b	3000da2c <strstr+0x48>
3000dac8:	e3a00000 	mov	r0, #0	; 0x0
3000dacc:	e8bd8030 	ldmia	sp!, {r4, r5, pc}

3000dad0 <memset>:
3000dad0:	e1a03000 	mov	r3, r0
3000dad4:	e3520008 	cmp	r2, #8	; 0x8
3000dad8:	3a000013 	bcc	3000db2c <memset+0x5c>
3000dadc:	e3130003 	tst	r3, #3	; 0x3
3000dae0:	14c31001 	strneb	r1, [r3], #1
3000dae4:	12422001 	subne	r2, r2, #1	; 0x1
3000dae8:	1afffffb 	bne	3000dadc <memset+0xc>
3000daec:	e1811401 	orr	r1, r1, r1, lsl #8
3000daf0:	e1811801 	orr	r1, r1, r1, lsl #16
3000daf4:	e2522008 	subs	r2, r2, #8	; 0x8
3000daf8:	24831004 	strcs	r1, [r3], #4
3000dafc:	24831004 	strcs	r1, [r3], #4
3000db00:	22522008 	subcss	r2, r2, #8	; 0x8
3000db04:	24831004 	strcs	r1, [r3], #4
3000db08:	24831004 	strcs	r1, [r3], #4
3000db0c:	22522008 	subcss	r2, r2, #8	; 0x8
3000db10:	24831004 	strcs	r1, [r3], #4
3000db14:	24831004 	strcs	r1, [r3], #4
3000db18:	22522008 	subcss	r2, r2, #8	; 0x8
3000db1c:	24831004 	strcs	r1, [r3], #4
3000db20:	24831004 	strcs	r1, [r3], #4
3000db24:	2afffff2 	bcs	3000daf4 <memset+0x24>
3000db28:	e2022007 	and	r2, r2, #7	; 0x7
3000db2c:	e2522001 	subs	r2, r2, #1	; 0x1
3000db30:	24c31001 	strcsb	r1, [r3], #1
3000db34:	22522001 	subcss	r2, r2, #1	; 0x1
3000db38:	24c31001 	strcsb	r1, [r3], #1
3000db3c:	22522001 	subcss	r2, r2, #1	; 0x1
3000db40:	24c31001 	strcsb	r1, [r3], #1
3000db44:	22522001 	subcss	r2, r2, #1	; 0x1
3000db48:	24c31001 	strcsb	r1, [r3], #1
3000db4c:	2afffff6 	bcs	3000db2c <memset+0x5c>
3000db50:	e1a0f00e 	mov	pc, lr
3000db54:	e1a00000 	nop			(mov r0,r0)
3000db58:	e1a00000 	nop			(mov r0,r0)
3000db5c:	e1a00000 	nop			(mov r0,r0)

3000db60 <__subdf3>:
3000db60:	e2222102 	eor	r2, r2, #-2147483648	; 0x80000000

3000db64 <__adddf3>:
3000db64:	e1310003 	teq	r1, r3
3000db68:	0020c002 	eoreq	ip, r0, r2
3000db6c:	033c0102 	teqeq	ip, #-2147483648	; 0x80000000
3000db70:	0a00009e 	beq	3000ddf0 <__adddf3+0x28c>
3000db74:	e191c080 	orrs	ip, r1, r0, lsl #1
3000db78:	01a01003 	moveq	r1, r3
3000db7c:	01a00002 	moveq	r0, r2
3000db80:	1193c082 	orrnes	ip, r3, r2, lsl #1
3000db84:	01a0f00e 	moveq	pc, lr
3000db88:	e92d4030 	stmdb	sp!, {r4, r5, lr}
3000db8c:	e3a0c47f 	mov	ip, #2130706432	; 0x7f000000
3000db90:	e38cc60f 	orr	ip, ip, #15728640	; 0xf00000
3000db94:	e000400c 	and	r4, r0, ip
3000db98:	e002500c 	and	r5, r2, ip
3000db9c:	e134000c 	teq	r4, ip
3000dba0:	1135000c 	teqne	r5, ip
3000dba4:	0a00009c 	beq	3000de1c <__adddf3+0x2b8>
3000dba8:	e0555004 	subs	r5, r5, r4
3000dbac:	b2655000 	rsblt	r5, r5, #0	; 0x0
3000dbb0:	da000006 	ble	3000dbd0 <__adddf3+0x6c>
3000dbb4:	e0844005 	add	r4, r4, r5
3000dbb8:	e0213003 	eor	r3, r1, r3
3000dbbc:	e0202002 	eor	r2, r0, r2
3000dbc0:	e0231001 	eor	r1, r3, r1
3000dbc4:	e0220000 	eor	r0, r2, r0
3000dbc8:	e0213003 	eor	r3, r1, r3
3000dbcc:	e0202002 	eor	r2, r0, r2
3000dbd0:	e3550636 	cmp	r5, #56623104	; 0x3600000
3000dbd4:	88bd8030 	ldmhiia	sp!, {r4, r5, pc}
3000dbd8:	e3100102 	tst	r0, #-2147483648	; 0x80000000
3000dbdc:	e1c0008c 	bic	r0, r0, ip, lsl #1
3000dbe0:	e3800601 	orr	r0, r0, #1048576	; 0x100000
3000dbe4:	0a000001 	beq	3000dbf0 <__adddf3+0x8c>
3000dbe8:	e2711000 	rsbs	r1, r1, #0	; 0x0
3000dbec:	e2e00000 	rsc	r0, r0, #0	; 0x0
3000dbf0:	e3120102 	tst	r2, #-2147483648	; 0x80000000
3000dbf4:	e1c2208c 	bic	r2, r2, ip, lsl #1
3000dbf8:	e3822601 	orr	r2, r2, #1048576	; 0x100000
3000dbfc:	0a000001 	beq	3000dc08 <__adddf3+0xa4>
3000dc00:	e2733000 	rsbs	r3, r3, #0	; 0x0
3000dc04:	e2e22000 	rsc	r2, r2, #0	; 0x0
3000dc08:	e1340005 	teq	r4, r5
3000dc0c:	0a000071 	beq	3000ddd8 <__adddf3+0x274>
3000dc10:	e3a0c000 	mov	ip, #0	; 0x0
3000dc14:	e1b05a25 	movs	r5, r5, lsr #20
3000dc18:	0a000013 	beq	3000dc6c <__adddf3+0x108>
3000dc1c:	e3340601 	teq	r4, #1048576	; 0x100000
3000dc20:	0a000004 	beq	3000dc38 <__adddf3+0xd4>
3000dc24:	e1b01081 	movs	r1, r1, lsl #1
3000dc28:	e0ac0080 	adc	r0, ip, r0, lsl #1
3000dc2c:	e2444601 	sub	r4, r4, #1048576	; 0x100000
3000dc30:	e2555001 	subs	r5, r5, #1	; 0x1
3000dc34:	0a00000c 	beq	3000dc6c <__adddf3+0x108>
3000dc38:	e275e020 	rsbs	lr, r5, #32	; 0x20
3000dc3c:	ba000004 	blt	3000dc54 <__adddf3+0xf0>
3000dc40:	e1a0ce13 	mov	ip, r3, lsl lr
3000dc44:	e1a03533 	mov	r3, r3, lsr r5
3000dc48:	e1833e12 	orr	r3, r3, r2, lsl lr
3000dc4c:	e1a02552 	mov	r2, r2, asr r5
3000dc50:	ea000005 	b	3000dc6c <__adddf3+0x108>
3000dc54:	e2455020 	sub	r5, r5, #32	; 0x20
3000dc58:	e28ee020 	add	lr, lr, #32	; 0x20
3000dc5c:	e3530001 	cmp	r3, #1	; 0x1
3000dc60:	e0acce12 	adc	ip, ip, r2, lsl lr
3000dc64:	e1a03552 	mov	r3, r2, asr r5
3000dc68:	e1a02042 	mov	r2, r2, asr #32
3000dc6c:	e0911003 	adds	r1, r1, r3
3000dc70:	e0a00002 	adc	r0, r0, r2
3000dc74:	e2105102 	ands	r5, r0, #-2147483648	; 0x80000000
3000dc78:	5a000002 	bpl	3000dc88 <__adddf3+0x124>
3000dc7c:	e27cc000 	rsbs	ip, ip, #0	; 0x0
3000dc80:	e2f11000 	rscs	r1, r1, #0	; 0x0
3000dc84:	e2e00000 	rsc	r0, r0, #0	; 0x0
3000dc88:	e3500601 	cmp	r0, #1048576	; 0x100000
3000dc8c:	3a000019 	bcc	3000dcf8 <__adddf3+0x194>
3000dc90:	e3500602 	cmp	r0, #2097152	; 0x200000
3000dc94:	3a00000b 	bcc	3000dcc8 <__adddf3+0x164>
3000dc98:	e3500501 	cmp	r0, #4194304	; 0x400000
3000dc9c:	3a000004 	bcc	3000dcb4 <__adddf3+0x150>
3000dca0:	e1b000a0 	movs	r0, r0, lsr #1
3000dca4:	e1b01061 	movs	r1, r1, rrx
3000dca8:	e1b0c06c 	movs	ip, ip, rrx
3000dcac:	238cc001 	orrcs	ip, ip, #1	; 0x1
3000dcb0:	e2844601 	add	r4, r4, #1048576	; 0x100000
3000dcb4:	e1b000a0 	movs	r0, r0, lsr #1
3000dcb8:	e1b01061 	movs	r1, r1, rrx
3000dcbc:	e1b0c06c 	movs	ip, ip, rrx
3000dcc0:	238cc001 	orrcs	ip, ip, #1	; 0x1
3000dcc4:	e2844601 	add	r4, r4, #1048576	; 0x100000
3000dcc8:	e0911fac 	adds	r1, r1, ip, lsr #31
3000dccc:	e2a00000 	adc	r0, r0, #0	; 0x0
3000dcd0:	e33c0102 	teq	ip, #-2147483648	; 0x80000000
3000dcd4:	03c11001 	biceq	r1, r1, #1	; 0x1
3000dcd8:	e3100602 	tst	r0, #2097152	; 0x200000
3000dcdc:	12844601 	addne	r4, r4, #1048576	; 0x100000
3000dce0:	e294c601 	adds	ip, r4, #1048576	; 0x100000
3000dce4:	4a000048 	bmi	3000de0c <__adddf3+0x2a8>
3000dce8:	e3c00603 	bic	r0, r0, #3145728	; 0x300000
3000dcec:	e1800004 	orr	r0, r0, r4
3000dcf0:	e1800005 	orr	r0, r0, r5
3000dcf4:	e8bd8030 	ldmia	sp!, {r4, r5, pc}
3000dcf8:	e3300000 	teq	r0, #0	; 0x0
3000dcfc:	13e0300a 	mvnne	r3, #10	; 0xa
3000dd00:	03a03015 	moveq	r3, #21	; 0x15
3000dd04:	01a00001 	moveq	r0, r1
3000dd08:	03a01000 	moveq	r1, #0	; 0x0
3000dd0c:	e1a02000 	mov	r2, r0
3000dd10:	e1b0c820 	movs	ip, r0, lsr #16
3000dd14:	01a02802 	moveq	r2, r2, lsl #16
3000dd18:	02833010 	addeq	r3, r3, #16	; 0x10
3000dd1c:	e31204ff 	tst	r2, #-16777216	; 0xff000000
3000dd20:	01a02402 	moveq	r2, r2, lsl #8
3000dd24:	02833008 	addeq	r3, r3, #8	; 0x8
3000dd28:	e312020f 	tst	r2, #-268435456	; 0xf0000000
3000dd2c:	01a02202 	moveq	r2, r2, lsl #4
3000dd30:	02833004 	addeq	r3, r3, #4	; 0x4
3000dd34:	e3120103 	tst	r2, #-1073741824	; 0xc0000000
3000dd38:	01a02102 	moveq	r2, r2, lsl #2
3000dd3c:	02833002 	addeq	r3, r3, #2	; 0x2
3000dd40:	e3120102 	tst	r2, #-2147483648	; 0x80000000
3000dd44:	02833001 	addeq	r3, r3, #1	; 0x1
3000dd48:	e2532020 	subs	r2, r3, #32	; 0x20
3000dd4c:	aa000007 	bge	3000dd70 <__adddf3+0x20c>
3000dd50:	e292200c 	adds	r2, r2, #12	; 0xc
3000dd54:	da000004 	ble	3000dd6c <__adddf3+0x208>
3000dd58:	e282c014 	add	ip, r2, #20	; 0x14
3000dd5c:	e262200c 	rsb	r2, r2, #12	; 0xc
3000dd60:	e1a01c10 	mov	r1, r0, lsl ip
3000dd64:	e1a00230 	mov	r0, r0, lsr r2
3000dd68:	ea000004 	b	3000dd80 <__adddf3+0x21c>
3000dd6c:	e2822014 	add	r2, r2, #20	; 0x14
3000dd70:	d262c020 	rsble	ip, r2, #32	; 0x20
3000dd74:	e1a00210 	mov	r0, r0, lsl r2
3000dd78:	d1800c31 	orrle	r0, r0, r1, lsr ip
3000dd7c:	d1a01211 	movle	r1, r1, lsl r2
3000dd80:	e0544a03 	subs	r4, r4, r3, lsl #20
3000dd84:	caffffd7 	bgt	3000dce8 <__adddf3+0x184>
3000dd88:	e1e04a44 	mvn	r4, r4, asr #20
3000dd8c:	e254401e 	subs	r4, r4, #30	; 0x1e
3000dd90:	aa00000d 	bge	3000ddcc <__adddf3+0x268>
3000dd94:	e294400c 	adds	r4, r4, #12	; 0xc
3000dd98:	ca000005 	bgt	3000ddb4 <__adddf3+0x250>
3000dd9c:	e2844014 	add	r4, r4, #20	; 0x14
3000dda0:	e2642020 	rsb	r2, r4, #32	; 0x20
3000dda4:	e1a01431 	mov	r1, r1, lsr r4
3000dda8:	e1811210 	orr	r1, r1, r0, lsl r2
3000ddac:	e1850430 	orr	r0, r5, r0, lsr r4
3000ddb0:	e8bd8030 	ldmia	sp!, {r4, r5, pc}
3000ddb4:	e264400c 	rsb	r4, r4, #12	; 0xc
3000ddb8:	e2642020 	rsb	r2, r4, #32	; 0x20
3000ddbc:	e1a01231 	mov	r1, r1, lsr r2
3000ddc0:	e1811410 	orr	r1, r1, r0, lsl r4
3000ddc4:	e1a00005 	mov	r0, r5
3000ddc8:	e8bd8030 	ldmia	sp!, {r4, r5, pc}
3000ddcc:	e1a01430 	mov	r1, r0, lsr r4
3000ddd0:	e1a00005 	mov	r0, r5
3000ddd4:	e8bd8030 	ldmia	sp!, {r4, r5, pc}
3000ddd8:	e3340000 	teq	r4, #0	; 0x0
3000dddc:	02200601 	eoreq	r0, r0, #1048576	; 0x100000
3000dde0:	02844601 	addeq	r4, r4, #1048576	; 0x100000
3000dde4:	e2222601 	eor	r2, r2, #1048576	; 0x100000
3000dde8:	12455601 	subne	r5, r5, #1048576	; 0x100000
3000ddec:	eaffff87 	b	3000dc10 <__adddf3+0xac>
3000ddf0:	e24cc601 	sub	ip, ip, #1048576	; 0x100000
3000ddf4:	e000200c 	and	r2, r0, ip
3000ddf8:	e132000c 	teq	r2, ip
3000ddfc:	038c0702 	orreq	r0, ip, #524288	; 0x80000
3000de00:	13a00000 	movne	r0, #0	; 0x0
3000de04:	e3a01000 	mov	r1, #0	; 0x0
3000de08:	e1a0f00e 	mov	pc, lr
3000de0c:	e385047f 	orr	r0, r5, #2130706432	; 0x7f000000
3000de10:	e380060f 	orr	r0, r0, #15728640	; 0xf00000
3000de14:	e3a01000 	mov	r1, #0	; 0x0
3000de18:	e8bd8030 	ldmia	sp!, {r4, r5, pc}
3000de1c:	e134000c 	teq	r4, ip
3000de20:	11a00002 	movne	r0, r2
3000de24:	11a01003 	movne	r1, r3
3000de28:	0135000c 	teqeq	r5, ip
3000de2c:	18bd8030 	ldmneia	sp!, {r4, r5, pc}
3000de30:	e1914600 	orrs	r4, r1, r0, lsl #12
3000de34:	01934602 	orreqs	r4, r3, r2, lsl #12
3000de38:	01300002 	teqeq	r0, r2
3000de3c:	13850702 	orrne	r0, r5, #524288	; 0x80000
3000de40:	13a01000 	movne	r1, #0	; 0x0
3000de44:	e8bd8030 	ldmia	sp!, {r4, r5, pc}

3000de48 <__floatunsidf>:
3000de48:	e3300000 	teq	r0, #0	; 0x0
3000de4c:	03a01000 	moveq	r1, #0	; 0x0
3000de50:	01a0f00e 	moveq	pc, lr
3000de54:	e92d4030 	stmdb	sp!, {r4, r5, lr}
3000de58:	e3a04101 	mov	r4, #1073741824	; 0x40000000
3000de5c:	e2844633 	add	r4, r4, #53477376	; 0x3300000
3000de60:	e3a05000 	mov	r5, #0	; 0x0
3000de64:	e1a01000 	mov	r1, r0
3000de68:	e3a00000 	mov	r0, #0	; 0x0
3000de6c:	eaffffa1 	b	3000dcf8 <__adddf3+0x194>

3000de70 <__floatsidf>:
3000de70:	e3300000 	teq	r0, #0	; 0x0
3000de74:	03a01000 	moveq	r1, #0	; 0x0
3000de78:	01a0f00e 	moveq	pc, lr
3000de7c:	e92d4030 	stmdb	sp!, {r4, r5, lr}
3000de80:	e3a04101 	mov	r4, #1073741824	; 0x40000000
3000de84:	e2844633 	add	r4, r4, #53477376	; 0x3300000
3000de88:	e2105102 	ands	r5, r0, #-2147483648	; 0x80000000
3000de8c:	42600000 	rsbmi	r0, r0, #0	; 0x0
3000de90:	e1a01000 	mov	r1, r0
3000de94:	e3a00000 	mov	r0, #0	; 0x0
3000de98:	eaffff96 	b	3000dcf8 <__adddf3+0x194>

3000de9c <__extendsfdf2>:
3000de9c:	e1b02080 	movs	r2, r0, lsl #1
3000dea0:	0a000007 	beq	3000dec4 <__extendsfdf2+0x28>
3000dea4:	e1a001c2 	mov	r0, r2, asr #3
3000dea8:	e1a00060 	mov	r0, r0, rrx
3000deac:	e1a01e02 	mov	r1, r2, lsl #28
3000deb0:	e21224ff 	ands	r2, r2, #-16777216	; 0xff000000
3000deb4:	0a000005 	beq	3000ded0 <__extendsfdf2+0x34>
3000deb8:	e33204ff 	teq	r2, #-16777216	; 0xff000000
3000debc:	1220030e 	eorne	r0, r0, #939524096	; 0x38000000
3000dec0:	e1a0f00e 	mov	pc, lr
3000dec4:	e1a00000 	nop			(mov r0,r0)
3000dec8:	e3a01000 	mov	r1, #0	; 0x0
3000decc:	e1a0f00e 	mov	pc, lr
3000ded0:	e92d4030 	stmdb	sp!, {r4, r5, lr}
3000ded4:	e3a0430e 	mov	r4, #939524096	; 0x38000000
3000ded8:	e2844601 	add	r4, r4, #1048576	; 0x100000
3000dedc:	e2005102 	and	r5, r0, #-2147483648	; 0x80000000
3000dee0:	e3c00102 	bic	r0, r0, #-2147483648	; 0x80000000
3000dee4:	eaffff83 	b	3000dcf8 <__adddf3+0x194>

3000dee8 <__fixdfsi>:
3000dee8:	e191c080 	orrs	ip, r1, r0, lsl #1
3000deec:	0a000014 	beq	3000df44 <__fixdfsi+0x5c>
3000def0:	e1a03063 	mov	r3, r3, rrx
3000def4:	e3a0c47f 	mov	ip, #2130706432	; 0x7f000000
3000def8:	e38cc60f 	orr	ip, ip, #15728640	; 0xf00000
3000defc:	e000200c 	and	r2, r0, ip
3000df00:	e132000c 	teq	r2, ip
3000df04:	0a000010 	beq	3000df4c <__fixdfsi+0x64>
3000df08:	e3ccc101 	bic	ip, ip, #1073741824	; 0x40000000
3000df0c:	e152000c 	cmp	r2, ip
3000df10:	3a00000b 	bcc	3000df44 <__fixdfsi+0x5c>
3000df14:	e28cc61f 	add	ip, ip, #32505856	; 0x1f00000
3000df18:	e152000c 	cmp	r2, ip
3000df1c:	2a00000c 	bcs	3000df54 <__fixdfsi+0x6c>
3000df20:	e062200c 	rsb	r2, r2, ip
3000df24:	e1a0c580 	mov	ip, r0, lsl #11
3000df28:	e38cc102 	orr	ip, ip, #-2147483648	; 0x80000000
3000df2c:	e18ccaa1 	orr	ip, ip, r1, lsr #21
3000df30:	e1a02a22 	mov	r2, r2, lsr #20
3000df34:	e3130102 	tst	r3, #-2147483648	; 0x80000000
3000df38:	e1a0023c 	mov	r0, ip, lsr r2
3000df3c:	12600000 	rsbne	r0, r0, #0	; 0x0
3000df40:	e1a0f00e 	mov	pc, lr
3000df44:	e3a00000 	mov	r0, #0	; 0x0
3000df48:	e1a0f00e 	mov	pc, lr
3000df4c:	e1911600 	orrs	r1, r1, r0, lsl #12
3000df50:	1a000002 	bne	3000df60 <__fixdfsi+0x78>
3000df54:	e2130102 	ands	r0, r3, #-2147483648	; 0x80000000
3000df58:	03e00102 	mvneq	r0, #-2147483648	; 0x80000000
3000df5c:	e1a0f00e 	mov	pc, lr
3000df60:	e3a00000 	mov	r0, #0	; 0x0
3000df64:	e1a0f00e 	mov	pc, lr

3000df68 <__subsf3>:
3000df68:	e2211102 	eor	r1, r1, #-2147483648	; 0x80000000

3000df6c <__addsf3>:
3000df6c:	e0202001 	eor	r2, r0, r1
3000df70:	e3320102 	teq	r2, #-2147483648	; 0x80000000
3000df74:	0a00005a 	beq	3000e0e4 <__addsf3+0x178>
3000df78:	e3d02102 	bics	r2, r0, #-2147483648	; 0x80000000
3000df7c:	01a00001 	moveq	r0, r1
3000df80:	13d12102 	bicnes	r2, r1, #-2147483648	; 0x80000000
3000df84:	01a0f00e 	moveq	pc, lr
3000df88:	e3a0c4ff 	mov	ip, #-16777216	; 0xff000000
3000df8c:	e00020ac 	and	r2, r0, ip, lsr #1
3000df90:	e00130ac 	and	r3, r1, ip, lsr #1
3000df94:	e13200ac 	teq	r2, ip, lsr #1
3000df98:	113300ac 	teqne	r3, ip, lsr #1
3000df9c:	0a000059 	beq	3000e108 <__addsf3+0x19c>
3000dfa0:	e0533002 	subs	r3, r3, r2
3000dfa4:	c0822003 	addgt	r2, r2, r3
3000dfa8:	c0201001 	eorgt	r1, r0, r1
3000dfac:	c0210000 	eorgt	r0, r1, r0
3000dfb0:	c0201001 	eorgt	r1, r0, r1
3000dfb4:	b2633000 	rsblt	r3, r3, #0	; 0x0
3000dfb8:	e3530532 	cmp	r3, #209715200	; 0xc800000
3000dfbc:	81a0f00e 	movhi	pc, lr
3000dfc0:	e3100102 	tst	r0, #-2147483648	; 0x80000000
3000dfc4:	e3800502 	orr	r0, r0, #8388608	; 0x800000
3000dfc8:	e3c004ff 	bic	r0, r0, #-16777216	; 0xff000000
3000dfcc:	12600000 	rsbne	r0, r0, #0	; 0x0
3000dfd0:	e3110102 	tst	r1, #-2147483648	; 0x80000000
3000dfd4:	e3811502 	orr	r1, r1, #8388608	; 0x800000
3000dfd8:	e3c114ff 	bic	r1, r1, #-16777216	; 0xff000000
3000dfdc:	12611000 	rsbne	r1, r1, #0	; 0x0
3000dfe0:	e1320003 	teq	r2, r3
3000dfe4:	0a000038 	beq	3000e0cc <__addsf3+0x160>
3000dfe8:	e1b03ba3 	movs	r3, r3, lsr #23
3000dfec:	13320502 	teqne	r2, #8388608	; 0x800000
3000dff0:	11a00080 	movne	r0, r0, lsl #1
3000dff4:	12422502 	subne	r2, r2, #8388608	; 0x800000
3000dff8:	12433001 	subne	r3, r3, #1	; 0x1
3000dffc:	e1a0c351 	mov	ip, r1, asr r3
3000e000:	e2633020 	rsb	r3, r3, #32	; 0x20
3000e004:	e1a01311 	mov	r1, r1, lsl r3
3000e008:	e080000c 	add	r0, r0, ip
3000e00c:	e2103102 	ands	r3, r0, #-2147483648	; 0x80000000
3000e010:	5a000001 	bpl	3000e01c <__addsf3+0xb0>
3000e014:	e2711000 	rsbs	r1, r1, #0	; 0x0
3000e018:	e2e00000 	rsc	r0, r0, #0	; 0x0
3000e01c:	e3500502 	cmp	r0, #8388608	; 0x800000
3000e020:	3a000014 	bcc	3000e078 <__addsf3+0x10c>
3000e024:	e3500401 	cmp	r0, #16777216	; 0x1000000
3000e028:	3a000007 	bcc	3000e04c <__addsf3+0xe0>
3000e02c:	e3500402 	cmp	r0, #33554432	; 0x2000000
3000e030:	3a000002 	bcc	3000e040 <__addsf3+0xd4>
3000e034:	e1b000a0 	movs	r0, r0, lsr #1
3000e038:	e1a01061 	mov	r1, r1, rrx
3000e03c:	e2822502 	add	r2, r2, #8388608	; 0x800000
3000e040:	e1b000a0 	movs	r0, r0, lsr #1
3000e044:	e1a01061 	mov	r1, r1, rrx
3000e048:	e2822502 	add	r2, r2, #8388608	; 0x800000
3000e04c:	e0800fa1 	add	r0, r0, r1, lsr #31
3000e050:	e3310102 	teq	r1, #-2147483648	; 0x80000000
3000e054:	03c00001 	biceq	r0, r0, #1	; 0x1
3000e058:	e3100401 	tst	r0, #16777216	; 0x1000000
3000e05c:	12822502 	addne	r2, r2, #8388608	; 0x800000
3000e060:	e352047f 	cmp	r2, #2130706432	; 0x7f000000
3000e064:	8a000024 	bhi	3000e0fc <__addsf3+0x190>
3000e068:	e3c00506 	bic	r0, r0, #25165824	; 0x1800000
3000e06c:	e1800002 	orr	r0, r0, r2
3000e070:	e1800003 	orr	r0, r0, r3
3000e074:	e1a0f00e 	mov	pc, lr
3000e078:	e1b0c620 	movs	ip, r0, lsr #12
3000e07c:	01a00600 	moveq	r0, r0, lsl #12
3000e080:	02422406 	subeq	r2, r2, #100663296	; 0x6000000
3000e084:	e31008ff 	tst	r0, #16711680	; 0xff0000
3000e088:	01a00400 	moveq	r0, r0, lsl #8
3000e08c:	02422301 	subeq	r2, r2, #67108864	; 0x4000000
3000e090:	e310060f 	tst	r0, #15728640	; 0xf00000
3000e094:	01a00200 	moveq	r0, r0, lsl #4
3000e098:	02422402 	subeq	r2, r2, #33554432	; 0x2000000
3000e09c:	e3100503 	tst	r0, #12582912	; 0xc00000
3000e0a0:	01a00100 	moveq	r0, r0, lsl #2
3000e0a4:	02422401 	subeq	r2, r2, #16777216	; 0x1000000
3000e0a8:	e3100502 	tst	r0, #8388608	; 0x800000
3000e0ac:	01a00080 	moveq	r0, r0, lsl #1
3000e0b0:	02422502 	subeq	r2, r2, #8388608	; 0x800000
3000e0b4:	e3520000 	cmp	r2, #0	; 0x0
3000e0b8:	caffffea 	bgt	3000e068 <__addsf3+0xfc>
3000e0bc:	e1e02bc2 	mvn	r2, r2, asr #23
3000e0c0:	e2822002 	add	r2, r2, #2	; 0x2
3000e0c4:	e1830230 	orr	r0, r3, r0, lsr r2
3000e0c8:	e1a0f00e 	mov	pc, lr
3000e0cc:	e3320000 	teq	r2, #0	; 0x0
3000e0d0:	02200502 	eoreq	r0, r0, #8388608	; 0x800000
3000e0d4:	02822502 	addeq	r2, r2, #8388608	; 0x800000
3000e0d8:	e2211502 	eor	r1, r1, #8388608	; 0x800000
3000e0dc:	12433502 	subne	r3, r3, #8388608	; 0x800000
3000e0e0:	eaffffc0 	b	3000dfe8 <__addsf3+0x7c>
3000e0e4:	e3a0c4ff 	mov	ip, #-16777216	; 0xff000000
3000e0e8:	e00020ac 	and	r2, r0, ip, lsr #1
3000e0ec:	e13200ac 	teq	r2, ip, lsr #1
3000e0f0:	01a0014c 	moveq	r0, ip, asr #2
3000e0f4:	13a00000 	movne	r0, #0	; 0x0
3000e0f8:	e1a0f00e 	mov	pc, lr
3000e0fc:	e383047f 	orr	r0, r3, #2130706432	; 0x7f000000
3000e100:	e3800502 	orr	r0, r0, #8388608	; 0x800000
3000e104:	e1a0f00e 	mov	pc, lr
3000e108:	e13200ac 	teq	r2, ip, lsr #1
3000e10c:	11a00001 	movne	r0, r1
3000e110:	013300ac 	teqeq	r3, ip, lsr #1
3000e114:	11a0f00e 	movne	pc, lr
3000e118:	e1b02480 	movs	r2, r0, lsl #9
3000e11c:	01b02481 	moveqs	r2, r1, lsl #9
3000e120:	01300001 	teqeq	r0, r1
3000e124:	13830501 	orrne	r0, r3, #4194304	; 0x400000
3000e128:	e1a0f00e 	mov	pc, lr

3000e12c <__floatunsisf>:
3000e12c:	e3a03000 	mov	r3, #0	; 0x0
3000e130:	ea000001 	b	3000e13c <__floatsisf+0x8>

3000e134 <__floatsisf>:
3000e134:	e2103102 	ands	r3, r0, #-2147483648	; 0x80000000
3000e138:	42600000 	rsbmi	r0, r0, #0	; 0x0
3000e13c:	e3300000 	teq	r0, #0	; 0x0
3000e140:	01a0f00e 	moveq	pc, lr
3000e144:	e3a01000 	mov	r1, #0	; 0x0
3000e148:	e3a0244b 	mov	r2, #1258291200	; 0x4b000000
3000e14c:	e310033f 	tst	r0, #-67108864	; 0xfc000000
3000e150:	0affffb1 	beq	3000e01c <__addsf3+0xb0>
3000e154:	e310020f 	tst	r0, #-268435456	; 0xf0000000
3000e158:	11a01e00 	movne	r1, r0, lsl #28
3000e15c:	11a00220 	movne	r0, r0, lsr #4
3000e160:	12822402 	addne	r2, r2, #33554432	; 0x2000000
3000e164:	e3100303 	tst	r0, #201326592	; 0xc000000
3000e168:	0affffab 	beq	3000e01c <__addsf3+0xb0>
3000e16c:	e1a01121 	mov	r1, r1, lsr #2
3000e170:	e1811f00 	orr	r1, r1, r0, lsl #30
3000e174:	e1a00120 	mov	r0, r0, lsr #2
3000e178:	e2822401 	add	r2, r2, #16777216	; 0x1000000
3000e17c:	eaffffa6 	b	3000e01c <__addsf3+0xb0>

3000e180 <__mulsf3>:
3000e180:	e3a0c4ff 	mov	ip, #-16777216	; 0xff000000
3000e184:	e00020ac 	and	r2, r0, ip, lsr #1
3000e188:	e00130ac 	and	r3, r1, ip, lsr #1
3000e18c:	e13200ac 	teq	r2, ip, lsr #1
3000e190:	113300ac 	teqne	r3, ip, lsr #1
3000e194:	0a000053 	beq	3000e2e8 <__mulsf3+0x168>
3000e198:	e3d0c102 	bics	ip, r0, #-2147483648	; 0x80000000
3000e19c:	13d1c102 	bicnes	ip, r1, #-2147483648	; 0x80000000
3000e1a0:	0a000029 	beq	3000e24c <__mulsf3+0xcc>
3000e1a4:	e1b020a2 	movs	r2, r2, lsr #1
3000e1a8:	13330000 	teqne	r3, #0	; 0x0
3000e1ac:	0a00003e 	beq	3000e2ac <__mulsf3+0x12c>
3000e1b0:	e08220c3 	add	r2, r2, r3, asr #1
3000e1b4:	e1300001 	teq	r0, r1
3000e1b8:	43822902 	orrmi	r2, r2, #32768	; 0x8000
3000e1bc:	e3c004ff 	bic	r0, r0, #-16777216	; 0xff000000
3000e1c0:	e3c114ff 	bic	r1, r1, #-16777216	; 0xff000000
3000e1c4:	e3800502 	orr	r0, r0, #8388608	; 0x800000
3000e1c8:	e3811502 	orr	r1, r1, #8388608	; 0x800000
3000e1cc:	e92d0030 	stmdb	sp!, {r4, r5}
3000e1d0:	e1a04820 	mov	r4, r0, lsr #16
3000e1d4:	e1a05821 	mov	r5, r1, lsr #16
3000e1d8:	e3c008ff 	bic	r0, r0, #16711680	; 0xff0000
3000e1dc:	e3c118ff 	bic	r1, r1, #16711680	; 0xff0000
3000e1e0:	e00c0594 	mul	ip, r4, r5
3000e1e4:	e0030190 	mul	r3, r0, r1
3000e1e8:	e0000095 	mul	r0, r5, r0
3000e1ec:	e0200194 	mla	r0, r4, r1, r0
3000e1f0:	e0933800 	adds	r3, r3, r0, lsl #16
3000e1f4:	e0acc820 	adc	ip, ip, r0, lsr #16
3000e1f8:	e8bd0030 	ldmia	sp!, {r4, r5}
3000e1fc:	e1a00802 	mov	r0, r2, lsl #16
3000e200:	e3c22902 	bic	r2, r2, #32768	; 0x8000
3000e204:	e31c0902 	tst	ip, #32768	; 0x8000
3000e208:	12822501 	addne	r2, r2, #4194304	; 0x400000
3000e20c:	11b0c0ac 	movnes	ip, ip, lsr #1
3000e210:	11a03063 	movne	r3, r3, rrx
3000e214:	e252257f 	subs	r2, r2, #532676608	; 0x1fc00000
3000e218:	da00000e 	ble	3000e258 <__mulsf3+0xd8>
3000e21c:	e1900ba3 	orrs	r0, r0, r3, lsr #23
3000e220:	e0a0048c 	adc	r0, r0, ip, lsl #9
3000e224:	e1a03483 	mov	r3, r3, lsl #9
3000e228:	e3330102 	teq	r3, #-2147483648	; 0x80000000
3000e22c:	03c00001 	biceq	r0, r0, #1	; 0x1
3000e230:	e3100401 	tst	r0, #16777216	; 0x1000000
3000e234:	12822501 	addne	r2, r2, #4194304	; 0x400000
3000e238:	e35205ff 	cmp	r2, #1069547520	; 0x3fc00000
3000e23c:	aa000037 	bge	3000e320 <__mulsf3+0x1a0>
3000e240:	e3c00506 	bic	r0, r0, #25165824	; 0x1800000
3000e244:	e1800082 	orr	r0, r0, r2, lsl #1
3000e248:	e1a0f00e 	mov	pc, lr
3000e24c:	e0200001 	eor	r0, r0, r1
3000e250:	e2000102 	and	r0, r0, #-2147483648	; 0x80000000
3000e254:	e1a0f00e 	mov	pc, lr
3000e258:	e3720406 	cmn	r2, #100663296	; 0x6000000
3000e25c:	d1a0f00e 	movle	pc, lr
3000e260:	e1e01b42 	mvn	r1, r2, asr #22
3000e264:	e2511007 	subs	r1, r1, #7	; 0x7
3000e268:	ca000007 	bgt	3000e28c <__mulsf3+0x10c>
3000e26c:	e2811020 	add	r1, r1, #32	; 0x20
3000e270:	e1900133 	orrs	r0, r0, r3, lsr r1
3000e274:	e2611020 	rsb	r1, r1, #32	; 0x20
3000e278:	e0a0011c 	adc	r0, r0, ip, lsl r1
3000e27c:	e1a0c113 	mov	ip, r3, lsl r1
3000e280:	e33c0102 	teq	ip, #-2147483648	; 0x80000000
3000e284:	03c00001 	biceq	r0, r0, #1	; 0x1
3000e288:	e1a0f00e 	mov	pc, lr
3000e28c:	e190013c 	orrs	r0, r0, ip, lsr r1
3000e290:	e2a00000 	adc	r0, r0, #0	; 0x0
3000e294:	e2611020 	rsb	r1, r1, #32	; 0x20
3000e298:	e1a0c11c 	mov	ip, ip, lsl r1
3000e29c:	e3330000 	teq	r3, #0	; 0x0
3000e2a0:	033c0102 	teqeq	ip, #-2147483648	; 0x80000000
3000e2a4:	03c00001 	biceq	r0, r0, #1	; 0x1
3000e2a8:	e1a0f00e 	mov	pc, lr
3000e2ac:	e3320000 	teq	r2, #0	; 0x0
3000e2b0:	e200c102 	and	ip, r0, #-2147483648	; 0x80000000
3000e2b4:	01a00080 	moveq	r0, r0, lsl #1
3000e2b8:	03100502 	tsteq	r0, #8388608	; 0x800000
3000e2bc:	02422501 	subeq	r2, r2, #4194304	; 0x400000
3000e2c0:	0afffffb 	beq	3000e2b4 <__mulsf3+0x134>
3000e2c4:	e180000c 	orr	r0, r0, ip
3000e2c8:	e3330000 	teq	r3, #0	; 0x0
3000e2cc:	e201c102 	and	ip, r1, #-2147483648	; 0x80000000
3000e2d0:	01a01081 	moveq	r1, r1, lsl #1
3000e2d4:	03110502 	tsteq	r1, #8388608	; 0x800000
3000e2d8:	02433502 	subeq	r3, r3, #8388608	; 0x800000
3000e2dc:	0afffffb 	beq	3000e2d0 <__mulsf3+0x150>
3000e2e0:	e181100c 	orr	r1, r1, ip
3000e2e4:	eaffffb1 	b	3000e1b0 <__mulsf3+0x30>
3000e2e8:	e3300000 	teq	r0, #0	; 0x0
3000e2ec:	13310000 	teqne	r1, #0	; 0x0
3000e2f0:	13300102 	teqne	r0, #-2147483648	; 0x80000000
3000e2f4:	13310102 	teqne	r1, #-2147483648	; 0x80000000
3000e2f8:	0a00000c 	beq	3000e330 <__mulsf3+0x1b0>
3000e2fc:	e13200ac 	teq	r2, ip, lsr #1
3000e300:	1a000001 	bne	3000e30c <__mulsf3+0x18c>
3000e304:	e1b02480 	movs	r2, r0, lsl #9
3000e308:	1a000008 	bne	3000e330 <__mulsf3+0x1b0>
3000e30c:	e13300ac 	teq	r3, ip, lsr #1
3000e310:	1a000001 	bne	3000e31c <__mulsf3+0x19c>
3000e314:	e1b03481 	movs	r3, r1, lsl #9
3000e318:	1a000004 	bne	3000e330 <__mulsf3+0x1b0>
3000e31c:	e0200001 	eor	r0, r0, r1
3000e320:	e2000102 	and	r0, r0, #-2147483648	; 0x80000000
3000e324:	e380047f 	orr	r0, r0, #2130706432	; 0x7f000000
3000e328:	e3800502 	orr	r0, r0, #8388608	; 0x800000
3000e32c:	e1a0f00e 	mov	pc, lr
3000e330:	e3a0047f 	mov	r0, #2130706432	; 0x7f000000
3000e334:	e3800503 	orr	r0, r0, #12582912	; 0xc00000
3000e338:	e1a0f00e 	mov	pc, lr

3000e33c <__divsf3>:
3000e33c:	e3a0c4ff 	mov	ip, #-16777216	; 0xff000000
3000e340:	e00020ac 	and	r2, r0, ip, lsr #1
3000e344:	e00130ac 	and	r3, r1, ip, lsr #1
3000e348:	e13200ac 	teq	r2, ip, lsr #1
3000e34c:	113300ac 	teqne	r3, ip, lsr #1
3000e350:	13d0c102 	bicnes	ip, r0, #-2147483648	; 0x80000000
3000e354:	13d1c102 	bicnes	ip, r1, #-2147483648	; 0x80000000
3000e358:	0a00004c 	beq	3000e490 <__divsf3+0x154>
3000e35c:	e1b020a2 	movs	r2, r2, lsr #1
3000e360:	13330000 	teqne	r3, #0	; 0x0
3000e364:	0a00003a 	beq	3000e454 <__divsf3+0x118>
3000e368:	e04220c3 	sub	r2, r2, r3, asr #1
3000e36c:	e020c001 	eor	ip, r0, r1
3000e370:	e3a03201 	mov	r3, #268435456	; 0x10000000
3000e374:	e1b01481 	movs	r1, r1, lsl #9
3000e378:	e1a00480 	mov	r0, r0, lsl #9
3000e37c:	0a000022 	beq	3000e40c <__divsf3+0xd0>
3000e380:	e1831221 	orr	r1, r3, r1, lsr #4
3000e384:	e1833220 	orr	r3, r3, r0, lsr #4
3000e388:	e20c0102 	and	r0, ip, #-2147483648	; 0x80000000
3000e38c:	e1530001 	cmp	r3, r1
3000e390:	32422501 	subcc	r2, r2, #4194304	; 0x400000
3000e394:	31a03083 	movcc	r3, r3, lsl #1
3000e398:	e282257f 	add	r2, r2, #532676608	; 0x1fc00000
3000e39c:	e3720406 	cmn	r2, #100663296	; 0x6000000
3000e3a0:	d1a0f00e 	movle	pc, lr
3000e3a4:	e35205ff 	cmp	r2, #1069547520	; 0x3fc00000
3000e3a8:	aaffffdc 	bge	3000e320 <__mulsf3+0x1a0>
3000e3ac:	e3a0c502 	mov	ip, #8388608	; 0x800000
3000e3b0:	e1530001 	cmp	r3, r1
3000e3b4:	20433001 	subcs	r3, r3, r1
3000e3b8:	2180000c 	orrcs	r0, r0, ip
3000e3bc:	e15300a1 	cmp	r3, r1, lsr #1
3000e3c0:	204330a1 	subcs	r3, r3, r1, lsr #1
3000e3c4:	218000ac 	orrcs	r0, r0, ip, lsr #1
3000e3c8:	e1530121 	cmp	r3, r1, lsr #2
3000e3cc:	20433121 	subcs	r3, r3, r1, lsr #2
3000e3d0:	2180012c 	orrcs	r0, r0, ip, lsr #2
3000e3d4:	e15301a1 	cmp	r3, r1, lsr #3
3000e3d8:	204331a1 	subcs	r3, r3, r1, lsr #3
3000e3dc:	218001ac 	orrcs	r0, r0, ip, lsr #3
3000e3e0:	e1b03203 	movs	r3, r3, lsl #4
3000e3e4:	11b0c22c 	movnes	ip, ip, lsr #4
3000e3e8:	1afffff0 	bne	3000e3b0 <__divsf3+0x74>
3000e3ec:	e3520000 	cmp	r2, #0	; 0x0
3000e3f0:	da000012 	ble	3000e440 <__divsf3+0x104>
3000e3f4:	e1530001 	cmp	r3, r1
3000e3f8:	22800001 	addcs	r0, r0, #1	; 0x1
3000e3fc:	03c00001 	biceq	r0, r0, #1	; 0x1
3000e400:	e3c00502 	bic	r0, r0, #8388608	; 0x800000
3000e404:	e1800082 	orr	r0, r0, r2, lsl #1
3000e408:	e1a0f00e 	mov	pc, lr
3000e40c:	e20cc102 	and	ip, ip, #-2147483648	; 0x80000000
3000e410:	e18c04a0 	orr	r0, ip, r0, lsr #9
3000e414:	e282257f 	add	r2, r2, #532676608	; 0x1fc00000
3000e418:	e35205ff 	cmp	r2, #1069547520	; 0x3fc00000
3000e41c:	aaffffbf 	bge	3000e320 <__mulsf3+0x1a0>
3000e420:	e3520000 	cmp	r2, #0	; 0x0
3000e424:	c1800082 	orrgt	r0, r0, r2, lsl #1
3000e428:	c1a0f00e 	movgt	pc, lr
3000e42c:	e3720406 	cmn	r2, #100663296	; 0x6000000
3000e430:	d1a0000c 	movle	r0, ip
3000e434:	d1a0f00e 	movle	pc, lr
3000e438:	e3800502 	orr	r0, r0, #8388608	; 0x800000
3000e43c:	e3a03000 	mov	r3, #0	; 0x0
3000e440:	e3c0c102 	bic	ip, r0, #-2147483648	; 0x80000000
3000e444:	e2000102 	and	r0, r0, #-2147483648	; 0x80000000
3000e448:	e1e01b42 	mvn	r1, r2, asr #22
3000e44c:	e2811002 	add	r1, r1, #2	; 0x2
3000e450:	eaffff8d 	b	3000e28c <__mulsf3+0x10c>
3000e454:	e3320000 	teq	r2, #0	; 0x0
3000e458:	e200c102 	and	ip, r0, #-2147483648	; 0x80000000
3000e45c:	01a00080 	moveq	r0, r0, lsl #1
3000e460:	03100502 	tsteq	r0, #8388608	; 0x800000
3000e464:	02422501 	subeq	r2, r2, #4194304	; 0x400000
3000e468:	0afffffb 	beq	3000e45c <__divsf3+0x120>
3000e46c:	e180000c 	orr	r0, r0, ip
3000e470:	e3330000 	teq	r3, #0	; 0x0
3000e474:	e201c102 	and	ip, r1, #-2147483648	; 0x80000000
3000e478:	01a01081 	moveq	r1, r1, lsl #1
3000e47c:	03110502 	tsteq	r1, #8388608	; 0x800000
3000e480:	02433502 	subeq	r3, r3, #8388608	; 0x800000
3000e484:	0afffffb 	beq	3000e478 <__divsf3+0x13c>
3000e488:	e181100c 	orr	r1, r1, ip
3000e48c:	eaffffb5 	b	3000e368 <__divsf3+0x2c>
3000e490:	e3a0c4ff 	mov	ip, #-16777216	; 0xff000000
3000e494:	e13200ac 	teq	r2, ip, lsr #1
3000e498:	013300ac 	teqeq	r3, ip, lsr #1
3000e49c:	0affffa3 	beq	3000e330 <__mulsf3+0x1b0>
3000e4a0:	e13200ac 	teq	r2, ip, lsr #1
3000e4a4:	1a000002 	bne	3000e4b4 <__divsf3+0x178>
3000e4a8:	e1b02480 	movs	r2, r0, lsl #9
3000e4ac:	1affff9f 	bne	3000e330 <__mulsf3+0x1b0>
3000e4b0:	eaffff99 	b	3000e31c <__mulsf3+0x19c>
3000e4b4:	e13300ac 	teq	r3, ip, lsr #1
3000e4b8:	1a000002 	bne	3000e4c8 <__divsf3+0x18c>
3000e4bc:	e1b03481 	movs	r3, r1, lsl #9
3000e4c0:	1affff9a 	bne	3000e330 <__mulsf3+0x1b0>
3000e4c4:	eaffff60 	b	3000e24c <__mulsf3+0xcc>
3000e4c8:	e3d02102 	bics	r2, r0, #-2147483648	; 0x80000000
3000e4cc:	1affff92 	bne	3000e31c <__mulsf3+0x19c>
3000e4d0:	e3d13102 	bics	r3, r1, #-2147483648	; 0x80000000
3000e4d4:	1affff5c 	bne	3000e24c <__mulsf3+0xcc>
3000e4d8:	eaffff94 	b	3000e330 <__mulsf3+0x1b0>
Disassembly of section .rodata:

3000e4dc <fontdata_8x16-0x5b8>:
3000e4dc:	6a617568 	bvs	3186ba84 <_end+0x18516b4>
3000e4e0:	6d622e69 	stcvsl	14, cr2, [r2, #-420]!
3000e4e4:	00000070 	andeq	r0, r0, r0, ror r0
3000e4e8:	726d6f63 	rsbvc	r6, sp, #396	; 0x18c
3000e4ec:	20766365 	rsbcss	r6, r6, r5, ror #6
3000e4f0:	656d616e 	strvsb	r6, [sp, #-366]!
3000e4f4:	5d73255b 	cfldr64pl	mvdx2, [r3, #-364]!
3000e4f8:	7a697320 	bvc	31a6b180 <_end+0x1a50db0>
3000e4fc:	64255b65 	strvst	r5, [r5], #-2917
3000e500:	616e205d 	qdsubvs	r2, sp, lr
3000e504:	6461646e 	strvsbt	r6, [r1], #-1134
3000e508:	255b7264 	ldrcsb	r7, [fp, #-612]
3000e50c:	0d205d64 	stceq	13, cr5, [r0, #-400]!
3000e510:	0000000a 	andeq	r0, r0, sl
3000e514:	20746572 	rsbcss	r6, r4, r2, ror r5
3000e518:	6425203d 	strvst	r2, [r5], #-61
3000e51c:	3e2d7020 	cdpcc	0, 2, cr7, cr13, cr0, {1}
3000e520:	657a6973 	ldrvsb	r6, [sl, #-2419]!
3000e524:	5d64255b 	cfstr64pl	mvdx2, [r4, #-364]!
3000e528:	00000a0d 	andeq	r0, r0, sp, lsl #20
3000e52c:	2e626772 	mcrcs	7, 3, r6, cr2, cr2, {3}
3000e530:	00706d62 	rsbeqs	r6, r0, r2, ror #26
3000e534:	37323130 	undefined
3000e538:	706d622e 	rsbvc	r6, sp, lr, lsr #4
3000e53c:	6d616e20 	stcvsl	14, cr6, [r1, #-128]!
3000e540:	73255b65 	teqvc	r5, #103424	; 0x19400
3000e544:	6973205d 	ldmvsdb	r3!, {r0, r2, r3, r4, r6, sp}^
3000e548:	255b657a 	ldrcsb	r6, [fp, #-1402]
3000e54c:	6e205d64 	cdpvs	13, 2, cr5, cr0, cr4, {3}
3000e550:	61646e61 	cmnvs	r4, r1, ror #28
3000e554:	5b726464 	blpl	31ca76ec <_end+0x1c8d31c>
3000e558:	205d6425 	subcss	r6, sp, r5, lsr #8
3000e55c:	00000a0d 	andeq	r0, r0, sp, lsl #20
3000e560:	6b6b6b6b 	blvs	31ae9314 <_end+0x1acef44>
3000e564:	00000a0d 	andeq	r0, r0, sp, lsl #20
3000e568:	6b736174 	blvs	31ce6b40 <_end+0x1ccc770>
3000e56c:	2e20645f 	mcrcs	4, 1, r6, cr0, cr15, {2}
3000e570:	74202e2e 	strvct	r2, [r0], #-3630
3000e574:	5f6b7361 	swipl	0x006b7361
3000e578:	6c727463 	cfldrdvs	mvd7, [r2], #-396
3000e57c:	25203d20 	strcs	r3, [r0, #-3360]!
3000e580:	000a0d64 	andeq	r0, sl, r4, ror #26
3000e584:	61743131 	cmnvs	r4, r1, lsr r1
3000e588:	645f6b73 	ldrvsb	r6, [pc], #2931	; 3000e590 <__divsf3+0x254>
3000e58c:	2e2e2e20 	cdpcs	14, 2, cr2, cr14, cr0, {1}
3000e590:	20323232 	eorcss	r3, r2, r2, lsr r2
3000e594:	6b736174 	blvs	31ce6b6c <_end+0x1ccc79c>
3000e598:	7274635f 	rsbvcs	r6, r4, #2080374785	; 0x7c000001
3000e59c:	203d206c 	eorcss	r2, sp, ip, rrx
3000e5a0:	0a0d6425 	beq	3036763c <_end+0x34d26c>
3000e5a4:	00000000 	andeq	r0, r0, r0
3000e5a8:	20746962 	rsbcss	r6, r4, r2, ror #18
3000e5ac:	0000203d 	andeq	r2, r0, sp, lsr r0
3000e5b0:	20726c20 	rsbcss	r6, r2, r0, lsr #24
3000e5b4:	0000203d 	andeq	r2, r0, sp, lsr r0
3000e5b8:	3d206820 	stccc	8, cr6, [r0, #-128]!
3000e5bc:	00000020 	andeq	r0, r0, r0, lsr #32
3000e5c0:	00000a0d 	andeq	r0, r0, sp, lsl #20
3000e5c4:	5f79656b 	swipl	0x0079656b
3000e5c8:	746e6965 	strvcbt	r6, [lr], #-2405
3000e5cc:	696e695f 	stmvsdb	lr!, {r0, r1, r2, r3, r4, r6, r8, fp, sp, lr}^
3000e5d0:	2e2e2074 	mcrcs	0, 1, r2, cr14, cr4, {3}
3000e5d4:	0a0d202e 	beq	30356694 <_end+0x33c2c4>
3000e5d8:	00000000 	andeq	r0, r0, r0
3000e5dc:	65637845 	strvsb	r7, [r3, #-2117]!
3000e5e0:	6f697470 	swivs	0x00697470
3000e5e4:	6320216e 	teqvs	r0, #-2147483621	; 0x8000001b
3000e5e8:	20727370 	rsbcss	r7, r2, r0, ror r3
3000e5ec:	0000203d 	andeq	r2, r0, sp, lsr r0
3000e5f0:	00000020 	andeq	r0, r0, r0, lsr #32
3000e5f4:	00000d0a 	andeq	r0, r0, sl, lsl #26
3000e5f8:	20495753 	subcs	r5, r9, r3, asr r7
3000e5fc:	206c6176 	rsbcs	r6, ip, r6, ror r1
3000e600:	0000203d 	andeq	r2, r0, sp, lsr r0
3000e604:	6f6f6275 	swivs	0x006f6275
3000e608:	61685f74 	cmnvs	r8, r4, ror pc
3000e60c:	656c646e 	strvsb	r6, [ip, #-1134]!
3000e610:	7365745f 	cmnvc	r5, #1593835520	; 0x5f000000
3000e614:	3d3d2074 	ldccc	0, cr2, [sp, #-464]!
3000e618:	3d3d3d3d 	ldccc	13, cr3, [sp, #-244]!
3000e61c:	5b307220 	blpl	30c2aea4 <_end+0xc10ad4>
3000e620:	0d5d6425 	cfldrdeq	mvd6, [sp, #-148]
3000e624:	0000000a 	andeq	r0, r0, sl
3000e628:	656b616d 	strvsb	r6, [fp, #-365]!
3000e62c:	64692072 	strvsbt	r2, [r9], #-114
3000e630:	00203d20 	eoreq	r3, r0, r0, lsr #26
3000e634:	69766564 	ldmvsdb	r6!, {r2, r5, r6, r8, sl, sp, lr}^
3000e638:	69206563 	stmvsdb	r0!, {r0, r1, r5, r6, r8, sl, sp, lr}
3000e63c:	203d2064 	eorcss	r2, sp, r4, rrx
3000e640:	00000000 	andeq	r0, r0, r0
3000e644:	79622033 	stmvcdb	r2!, {r0, r1, r4, r5, sp}^
3000e648:	3d206574 	cfstr32cc	mvfx6, [r0, #-464]!
3000e64c:	00000020 	andeq	r0, r0, r0, lsr #32
3000e650:	79622034 	stmvcdb	r2!, {r2, r4, r5, sp}^
3000e654:	69206574 	stmvsdb	r0!, {r2, r4, r5, r6, r8, sl, sp, lr}
3000e658:	203d2064 	eorcss	r2, sp, r4, rrx
3000e65c:	00000000 	andeq	r0, r0, r0
3000e660:	65676170 	strvsb	r6, [r7, #-368]!
3000e664:	7a697320 	bvc	31a6b2ec <_end+0x1a50f1c>
3000e668:	203d2065 	eorcss	r2, sp, r5, rrx
3000e66c:	00000000 	andeq	r0, r0, r0
3000e670:	636f6c62 	cmnvs	pc, #25088	; 0x6200
3000e674:	6973206b 	ldmvsdb	r3!, {r0, r1, r3, r5, r6, sp}^
3000e678:	3d20657a 	cfstr32cc	mvfx6, [r0, #-488]!
3000e67c:	00000020 	andeq	r0, r0, r0, lsr #32
3000e680:	79622035 	stmvcdb	r2!, {r0, r2, r4, r5, sp}^
3000e684:	69206574 	stmvsdb	r0!, {r2, r4, r5, r6, r8, sl, sp, lr}
3000e688:	203d2064 	eorcss	r2, sp, r4, rrx
3000e68c:	00000000 	andeq	r0, r0, r0
3000e690:	72646461 	rsbvc	r6, r4, #1627389952	; 0x61000000
3000e694:	20726f20 	rsbcss	r6, r2, r0, lsr #30
3000e698:	206e656c 	rsbcs	r6, lr, ip, ror #10
3000e69c:	6e207369 	cdpvs	3, 2, cr7, cr0, cr9, {3}
3000e6a0:	6220746f 	eorvs	r7, r0, #1862270976	; 0x6f000000
3000e6a4:	6b636f6c 	blvs	318ea45c <_end+0x18d008c>
3000e6a8:	696c6120 	stmvsdb	ip!, {r5, r8, sp, lr}^
3000e6ac:	0a0d6e67 	beq	3036a050 <_end+0x34fc80>
3000e6b0:	00000000 	andeq	r0, r0, r0
3000e6b4:	646e616e 	strvsbt	r6, [lr], #-366
3000e6b8:	7365745f 	cmnvc	r5, #1593835520	; 0x5f000000
3000e6bc:	2e2e2074 	mcrcs	0, 1, r2, cr14, cr4, {3}
3000e6c0:	3434342e 	ldrcct	r3, [r4], #-1070
3000e6c4:	000a0d20 	andeq	r0, sl, r0, lsr #26
3000e6c8:	64616572 	strvsbt	r6, [r1], #-1394
3000e6cc:	72647320 	rsbvc	r7, r4, #-2147483648	; 0x80000000
3000e6d0:	66206d61 	strvst	r6, [r0], -r1, ror #26
3000e6d4:	206c6961 	rsbcs	r6, ip, r1, ror #18
3000e6d8:	00000a0d 	andeq	r0, r0, sp, lsl #20
3000e6dc:	64616572 	strvsbt	r6, [r1], #-1394
3000e6e0:	72647320 	rsbvc	r7, r4, #-2147483648	; 0x80000000
3000e6e4:	73206d61 	teqvc	r0, #6208	; 0x1840
3000e6e8:	65636375 	strvsb	r6, [r3, #-885]!
3000e6ec:	0d207373 	stceq	3, cr7, [r0, #-460]!
3000e6f0:	0000000a 	andeq	r0, r0, sl
3000e6f4:	74726155 	ldrvcbt	r6, [r2], #-341
3000e6f8:	696e495f 	stmvsdb	lr!, {r0, r1, r2, r3, r4, r6, r8, fp, lr}^
3000e6fc:	0a0d2074 	beq	303568d4 <_end+0x33c504>
3000e700:	00000000 	andeq	r0, r0, r0
3000e704:	79706f63 	ldmvcdb	r0!, {r0, r1, r5, r6, r8, r9, sl, fp, sp, lr}^
3000e708:	72647332 	rsbvc	r7, r4, #-939524096	; 0xc8000000
3000e70c:	0d206d61 	stceq	13, cr6, [r0, #-388]!
3000e710:	0000000a 	andeq	r0, r0, sl
3000e714:	61656c63 	cmnvs	r5, r3, ror #24
3000e718:	73625f6e 	cmnvc	r2, #440	; 0x1b8
3000e71c:	65622073 	strvsb	r2, [r2, #-115]!
3000e720:	206e6967 	rsbcs	r6, lr, r7, ror #18
3000e724:	69676562 	stmvsdb	r7!, {r1, r5, r6, r8, sl, sp, lr}^
3000e728:	64255b6e 	strvst	r5, [r5], #-2926
3000e72c:	6e65205d 	mcrvs	0, 3, r2, cr5, cr13, {2}
3000e730:	64255b64 	strvst	r5, [r5], #-2916
3000e734:	2e2e2e5d 	mcrcs	14, 1, r2, cr14, cr13, {2}
3000e738:	000a0d20 	andeq	r0, sl, r0, lsr #26
3000e73c:	695f6f64 	ldmvsdb	pc, {r2, r5, r6, r8, r9, sl, fp, sp, lr}^
3000e740:	325f7172 	subccs	r7, pc, #-2147483620	; 0x8000001c
3000e744:	0d303434 	cfldrseq	mvf3, [r0, #-208]!
3000e748:	0000000a 	andeq	r0, r0, sl
3000e74c:	656c6c69 	strvsb	r6, [ip, #-3177]!
3000e750:	206c6167 	rsbcs	r6, ip, r7, ror #2
3000e754:	006b6c63 	rsbeq	r6, fp, r3, ror #24
3000e758:	74726155 	ldrvcbt	r6, [r2], #-341
3000e75c:	696e495f 	stmvsdb	lr!, {r0, r1, r2, r3, r4, r6, r8, fp, lr}^
3000e760:	2e2e2074 	mcrcs	0, 1, r2, cr14, cr4, {3}
3000e764:	0a0d202e 	beq	30356824 <_end+0x33c454>
3000e768:	00000000 	andeq	r0, r0, r0
3000e76c:	00000a0d 	andeq	r0, r0, sp, lsl #20
3000e770:	5f64636c 	swipl	0x0064636c
3000e774:	5f335f34 	swipl	0x00335f34
3000e778:	20646461 	rsbcs	r6, r4, r1, ror #8
3000e77c:	000a0d20 	andeq	r0, sl, r0, lsr #26
3000e780:	5f64636c 	swipl	0x0064636c
3000e784:	746e6f63 	strvcbt	r6, [lr], #-3939
3000e788:	656c6c6f 	strvsb	r6, [ip, #-3183]!
3000e78c:	64615f72 	strvsbt	r5, [r1], #-3954
3000e790:	0d202064 	stceq	0, cr2, [r0, #-400]!
3000e794:	0000000a 	andeq	r0, r0, sl
3000e798:	5f64636c 	swipl	0x0064636c
3000e79c:	0d202034 	stceq	0, cr2, [r0, #-208]!
3000e7a0:	0000000a 	andeq	r0, r0, sl
3000e7a4:	5f64636c 	swipl	0x0064636c
3000e7a8:	00332e34 	eoreqs	r2, r3, r4, lsr lr
3000e7ac:	656c6573 	strvsb	r6, [ip, #-1395]!
3000e7b0:	6c5f7463 	cfldrdvs	mvd7, [pc], {99}
3000e7b4:	635f6463 	cmpvs	pc, #1660944384	; 0x63000000
3000e7b8:	72746e6f 	rsbvcs	r6, r4, #1776	; 0x6f0
3000e7bc:	656c6c6f 	strvsb	r6, [ip, #-3183]!
3000e7c0:	0d202072 	stceq	0, cr2, [r0, #-456]!
3000e7c4:	0000000a 	andeq	r0, r0, sl
3000e7c8:	32633373 	rsbcc	r3, r3, #-872415231	; 0xcc000001
3000e7cc:	00303434 	eoreqs	r3, r0, r4, lsr r4
3000e7d0:	5f64636c 	swipl	0x0064636c
3000e7d4:	746e6f63 	strvcbt	r6, [lr], #-3939
3000e7d8:	6c6c6f72 	stcvsl	15, cr6, [ip], #-456
3000e7dc:	695f7265 	ldmvsdb	pc, {r0, r2, r5, r6, r9, ip, sp, lr}^
3000e7e0:	2074696e 	rsbcss	r6, r4, lr, ror #18
3000e7e4:	000a0d20 	andeq	r0, sl, r0, lsr #26
3000e7e8:	5f64636c 	swipl	0x0064636c
3000e7ec:	746e6f63 	strvcbt	r6, [lr], #-3939
3000e7f0:	6c6c6f72 	stcvsl	15, cr6, [ip], #-456
3000e7f4:	695f7265 	ldmvsdb	pc, {r0, r2, r5, r6, r9, ip, sp, lr}^
3000e7f8:	2074696e 	rsbcss	r6, r4, lr, ror #18
3000e7fc:	20323232 	eorcss	r3, r2, r2, lsr r2
3000e800:	00000a0d 	andeq	r0, r0, sp, lsl #20
3000e804:	5f64636c 	swipl	0x0064636c
3000e808:	00332e34 	eoreqs	r2, r3, r4, lsr lr
3000e80c:	5f64636c 	swipl	0x0064636c
3000e810:	746e6f63 	strvcbt	r6, [lr], #-3939
3000e814:	6c6c6f72 	stcvsl	15, cr6, [ip], #-456
3000e818:	695f7265 	ldmvsdb	pc, {r0, r2, r5, r6, r9, ip, sp, lr}^
3000e81c:	2074696e 	rsbcss	r6, r4, lr, ror #18
3000e820:	203e3e3e 	eorcss	r3, lr, lr, lsr lr
3000e824:	00000a0d 	andeq	r0, r0, sp, lsl #20
3000e828:	5f64636c 	swipl	0x0064636c
3000e82c:	746e6f63 	strvcbt	r6, [lr], #-3939
3000e830:	6c6c6f72 	stcvsl	15, cr6, [ip], #-456
3000e834:	695f7265 	ldmvsdb	pc, {r0, r2, r5, r6, r9, ip, sp, lr}^
3000e838:	2074696e 	rsbcss	r6, r4, lr, ror #18
3000e83c:	313e3e3e 	teqcc	lr, lr, lsr lr
3000e840:	0d203131 	stfeqs	f3, [r0, #-196]!
3000e844:	0000000a 	andeq	r0, r0, sl
3000e848:	5f64636c 	swipl	0x0064636c
3000e84c:	746e6f63 	strvcbt	r6, [lr], #-3939
3000e850:	6c6c6f72 	stcvsl	15, cr6, [ip], #-456
3000e854:	695f7265 	ldmvsdb	pc, {r0, r2, r5, r6, r9, ip, sp, lr}^
3000e858:	2074696e 	rsbcss	r6, r4, lr, ror #18
3000e85c:	313e3e3e 	teqcc	lr, lr, lsr lr
3000e860:	31323232 	teqcc	r2, r2, lsr r2
3000e864:	000a0d20 	andeq	r0, sl, r0, lsr #26
3000e868:	5f64636c 	swipl	0x0064636c
3000e86c:	746e6f63 	strvcbt	r6, [lr], #-3939
3000e870:	6c6c6f72 	stcvsl	15, cr6, [ip], #-456
3000e874:	695f7265 	ldmvsdb	pc, {r0, r2, r5, r6, r9, ip, sp, lr}^
3000e878:	2074696e 	rsbcss	r6, r4, lr, ror #18
3000e87c:	333e3e3e 	teqcc	lr, #992	; 0x3e0
3000e880:	0d203333 	stceq	3, cr3, [r0, #-204]!
3000e884:	0000000a 	andeq	r0, r0, sl
3000e888:	5f64636c 	swipl	0x0064636c
3000e88c:	746e6f63 	strvcbt	r6, [lr], #-3939
3000e890:	6c6c6f72 	stcvsl	15, cr6, [ip], #-456
3000e894:	695f7265 	ldmvsdb	pc, {r0, r2, r5, r6, r9, ip, sp, lr}^
3000e898:	2074696e 	rsbcss	r6, r4, lr, ror #18
3000e89c:	343e3e3e 	ldrcct	r3, [lr], #-3646
3000e8a0:	0d203434 	cfstrseq	mvf3, [r0, #-208]!
3000e8a4:	0000000a 	andeq	r0, r0, sl
3000e8a8:	5f64636c 	swipl	0x0064636c
3000e8ac:	74696e69 	strvcbt	r6, [r9], #-3689
3000e8b0:	0a0d2020 	beq	30356938 <_end+0x33c568>
3000e8b4:	00000000 	andeq	r0, r0, r0
3000e8b8:	5f64636c 	swipl	0x0064636c
3000e8bc:	62616e65 	rsbvs	r6, r1, #1616	; 0x650
3000e8c0:	2020656c 	eorcs	r6, r0, ip, ror #10
3000e8c4:	00000a0d 	andeq	r0, r0, sp, lsl #20
3000e8c8:	5f746567 	swipl	0x00746567
3000e8cc:	5f64636c 	swipl	0x0064636c
3000e8d0:	61726170 	cmnvs	r2, r0, ror r1
3000e8d4:	2020736d 	eorcs	r7, r0, sp, ror #6
3000e8d8:	00000a0d 	andeq	r0, r0, sp, lsl #20
3000e8dc:	20707062 	rsbcss	r7, r0, r2, rrx
3000e8e0:	000a0d20 	andeq	r0, sl, r0, lsr #26
3000e8e4:	20707062 	rsbcss	r7, r0, r2, rrx
3000e8e8:	31313131 	teqcc	r1, r1, lsr r1
3000e8ec:	3c3c3c3c 	ldccc	12, cr3, [ip], #-240
3000e8f0:	0d203c3c 	stceq	12, cr3, [r0, #-240]!
3000e8f4:	0000000a 	andeq	r0, r0, sl
3000e8f8:	34327a6a 	ldrcct	r7, [r2], #-2666
3000e8fc:	6c5f3034 	mrrcvs	0, 3, r3, pc, cr4
3000e900:	705f6463 	subvcs	r6, pc, r3, ror #8
3000e904:	695f6e69 	ldmvsdb	pc, {r0, r3, r5, r6, r9, sl, fp, sp, lr}^
3000e908:	2074696e 	rsbcss	r6, r4, lr, ror #18
3000e90c:	31313131 	teqcc	r1, r1, lsr r1
3000e910:	000a0d20 	andeq	r0, sl, r0, lsr #26
3000e914:	34327a6a 	ldrcct	r7, [r2], #-2666
3000e918:	6c5f3034 	mrrcvs	0, 3, r3, pc, cr4
3000e91c:	705f6463 	subvcs	r6, pc, r3, ror #8
3000e920:	695f6e69 	ldmvsdb	pc, {r0, r3, r5, r6, r9, sl, fp, sp, lr}^
3000e924:	2074696e 	rsbcss	r6, r4, lr, ror #18
3000e928:	20323232 	eorcss	r3, r2, r2, lsr r2
3000e92c:	00000a0d 	andeq	r0, r0, sp, lsl #20
3000e930:	34327a6a 	ldrcct	r7, [r2], #-2666
3000e934:	6c5f3034 	mrrcvs	0, 3, r3, pc, cr4
3000e938:	705f6463 	subvcs	r6, pc, r3, ror #8
3000e93c:	695f6e69 	ldmvsdb	pc, {r0, r3, r5, r6, r9, sl, fp, sp, lr}^
3000e940:	2074696e 	rsbcss	r6, r4, lr, ror #18
3000e944:	20333333 	eorcss	r3, r3, r3, lsr r3
3000e948:	00000a0d 	andeq	r0, r0, sp, lsl #20
3000e94c:	34327a6a 	ldrcct	r7, [r2], #-2666
3000e950:	6c5f3034 	mrrcvs	0, 3, r3, pc, cr4
3000e954:	705f6463 	subvcs	r6, pc, r3, ror #8
3000e958:	695f6e69 	ldmvsdb	pc, {r0, r3, r5, r6, r9, sl, fp, sp, lr}^
3000e95c:	2074696e 	rsbcss	r6, r4, lr, ror #18
3000e960:	20343434 	eorcss	r3, r4, r4, lsr r4
3000e964:	00000a0d 	andeq	r0, r0, sp, lsl #20
3000e968:	34327a6a 	ldrcct	r7, [r2], #-2666
3000e96c:	6c5f3034 	mrrcvs	0, 3, r3, pc, cr4
3000e970:	705f6463 	subvcs	r6, pc, r3, ror #8
3000e974:	695f6e69 	ldmvsdb	pc, {r0, r3, r5, r6, r9, sl, fp, sp, lr}^
3000e978:	2074696e 	rsbcss	r6, r4, lr, ror #18
3000e97c:	20353535 	eorcss	r3, r5, r5, lsr r5
3000e980:	00000a0d 	andeq	r0, r0, sp, lsl #20
3000e984:	34327a6a 	ldrcct	r7, [r2], #-2666
3000e988:	6c5f3034 	mrrcvs	0, 3, r3, pc, cr4
3000e98c:	705f6463 	subvcs	r6, pc, r3, ror #8
3000e990:	695f6e69 	ldmvsdb	pc, {r0, r3, r5, r6, r9, sl, fp, sp, lr}^
3000e994:	2074696e 	rsbcss	r6, r4, lr, ror #18
3000e998:	20363636 	eorcss	r3, r6, r6, lsr r6
3000e99c:	00000a0d 	andeq	r0, r0, sp, lsl #20
3000e9a0:	34327a6a 	ldrcct	r7, [r2], #-2666
3000e9a4:	6c5f3034 	mrrcvs	0, 3, r3, pc, cr4
3000e9a8:	705f6463 	subvcs	r6, pc, r3, ror #8
3000e9ac:	695f6e69 	ldmvsdb	pc, {r0, r3, r5, r6, r9, sl, fp, sp, lr}^
3000e9b0:	2074696e 	rsbcss	r6, r4, lr, ror #18
3000e9b4:	00000a0d 	andeq	r0, r0, sp, lsl #20
3000e9b8:	34327a6a 	ldrcct	r7, [r2], #-2666
3000e9bc:	6c5f3034 	mrrcvs	0, 3, r3, pc, cr4
3000e9c0:	705f6463 	subvcs	r6, pc, r3, ror #8
3000e9c4:	695f6e69 	ldmvsdb	pc, {r0, r3, r5, r6, r9, sl, fp, sp, lr}^
3000e9c8:	2074696e 	rsbcss	r6, r4, lr, ror #18
3000e9cc:	3c3c3c3c 	ldccc	12, cr3, [ip], #-240
3000e9d0:	00000a0d 	andeq	r0, r0, sp, lsl #20
3000e9d4:	616f6c66 	cmnvs	pc, r6, ror #24
3000e9d8:	31312074 	teqcc	r1, r4, ror r0
3000e9dc:	000a0d31 	andeq	r0, sl, r1, lsr sp
3000e9e0:	4344434c 	cmpmi	r4, #805306369	; 0x30000001
3000e9e4:	20314e4f 	eorcss	r4, r1, pc, asr #28
3000e9e8:	0d313131 	ldfeqs	f3, [r1, #-196]!
3000e9ec:	0000000a 	andeq	r0, r0, sl
3000e9f0:	32633373 	rsbcc	r3, r3, #-872415231	; 0xcc000001
3000e9f4:	5f303434 	swipl	0x00303434
3000e9f8:	5f64636c 	swipl	0x0064636c
3000e9fc:	746e6f63 	strvcbt	r6, [lr], #-3939
3000ea00:	6c6c6f72 	stcvsl	15, cr6, [ip], #-456
3000ea04:	695f7265 	ldmvsdb	pc, {r0, r2, r5, r6, r9, ip, sp, lr}^
3000ea08:	2074696e 	rsbcss	r6, r4, lr, ror #18
3000ea0c:	31313131 	teqcc	r1, r1, lsr r1
3000ea10:	0a0d2020 	beq	30356a98 <_end+0x33c6c8>
3000ea14:	00000000 	andeq	r0, r0, r0
3000ea18:	32633373 	rsbcc	r3, r3, #-872415231	; 0xcc000001
3000ea1c:	5f303434 	swipl	0x00303434
3000ea20:	5f64636c 	swipl	0x0064636c
3000ea24:	746e6f63 	strvcbt	r6, [lr], #-3939
3000ea28:	6c6c6f72 	stcvsl	15, cr6, [ip], #-456
3000ea2c:	695f7265 	ldmvsdb	pc, {r0, r2, r5, r6, r9, ip, sp, lr}^
3000ea30:	2074696e 	rsbcss	r6, r4, lr, ror #18
3000ea34:	32323232 	eorccs	r3, r2, #536870915	; 0x20000003
3000ea38:	20323232 	eorcss	r3, r2, r2, lsr r2
3000ea3c:	000a0d20 	andeq	r0, sl, r0, lsr #26
3000ea40:	32633373 	rsbcc	r3, r3, #-872415231	; 0xcc000001
3000ea44:	5f303434 	swipl	0x00303434
3000ea48:	5f64636c 	swipl	0x0064636c
3000ea4c:	746e6f63 	strvcbt	r6, [lr], #-3939
3000ea50:	6c6c6f72 	stcvsl	15, cr6, [ip], #-456
3000ea54:	695f7265 	ldmvsdb	pc, {r0, r2, r5, r6, r9, ip, sp, lr}^
3000ea58:	2074696e 	rsbcss	r6, r4, lr, ror #18
3000ea5c:	33333333 	teqcc	r3, #-872415232	; 0xcc000000
3000ea60:	20333333 	eorcss	r3, r3, r3, lsr r3
3000ea64:	000a0d20 	andeq	r0, sl, r0, lsr #26
3000ea68:	32633373 	rsbcc	r3, r3, #-872415231	; 0xcc000001
3000ea6c:	5f303434 	swipl	0x00303434
3000ea70:	5f64636c 	swipl	0x0064636c
3000ea74:	746e6f63 	strvcbt	r6, [lr], #-3939
3000ea78:	6c6c6f72 	stcvsl	15, cr6, [ip], #-456
3000ea7c:	695f7265 	ldmvsdb	pc, {r0, r2, r5, r6, r9, ip, sp, lr}^
3000ea80:	2074696e 	rsbcss	r6, r4, lr, ror #18
3000ea84:	0d202034 	stceq	0, cr2, [r0, #-208]!
3000ea88:	0000000a 	andeq	r0, r0, sl
3000ea8c:	32633373 	rsbcc	r3, r3, #-872415231	; 0xcc000001
3000ea90:	00303434 	eoreqs	r3, r0, r4, lsr r4

3000ea94 <fontdata_8x16>:
	...
3000eaa4:	817e0000 	cmnhi	lr, r0
3000eaa8:	bd8181a5 	stfltd	f0, [r1, #660]
3000eaac:	7e818199 	mcrvc	1, 4, r8, cr1, cr9, {4}
3000eab0:	00000000 	andeq	r0, r0, r0
3000eab4:	ff7e0000 	swinv	0x007e0000
3000eab8:	c3ffffdb 	mvngts	pc, #876	; 0x36c
3000eabc:	7effffe7 	cdpvc	15, 15, cr15, cr15, cr7, {7}
	...
3000eac8:	fefefe6c 	cdp2	14, 15, cr15, cr14, cr12, {3}
3000eacc:	10387cfe 	ldrnesh	r7, [r8], -lr
	...
3000ead8:	fe7c3810 	mrc2	8, 3, r3, cr12, cr0, {0}
3000eadc:	0010387c 	andeqs	r3, r0, ip, ror r8
3000eae0:	00000000 	andeq	r0, r0, r0
3000eae4:	18000000 	stmneda	r0, {}
3000eae8:	e7e73c3c 	undefined
3000eaec:	3c1818e7 	ldccc	8, cr1, [r8], {231}
3000eaf0:	00000000 	andeq	r0, r0, r0
3000eaf4:	18000000 	stmneda	r0, {}
3000eaf8:	ffff7e3c 	swinv	0x00ff7e3c
3000eafc:	3c18187e 	ldccc	8, cr1, [r8], {126}
	...
3000eb08:	3c180000 	ldccc	0, cr0, [r8], {0}
3000eb0c:	0000183c 	andeq	r1, r0, ip, lsr r8
3000eb10:	00000000 	andeq	r0, r0, r0
3000eb14:	ffffffff 	swinv	0x00ffffff
3000eb18:	c3e7ffff 	mvngt	pc, #1020	; 0x3fc
3000eb1c:	ffffe7c3 	swinv	0x00ffe7c3
3000eb20:	ffffffff 	swinv	0x00ffffff
3000eb24:	00000000 	andeq	r0, r0, r0
3000eb28:	42663c00 	rsbmi	r3, r6, #0	; 0x0
3000eb2c:	003c6642 	eoreqs	r6, ip, r2, asr #12
3000eb30:	00000000 	andeq	r0, r0, r0
3000eb34:	ffffffff 	swinv	0x00ffffff
3000eb38:	bd99c3ff 	ldclt	3, cr12, [r9, #1020]
3000eb3c:	ffc399bd 	swinv	0x00c399bd
3000eb40:	ffffffff 	swinv	0x00ffffff
3000eb44:	0e1e0000 	wxoreq	wr0, wr14, wr0
3000eb48:	cc78321a 	lfmgt	f3, 2, [r8], #-104
3000eb4c:	78cccccc 	stmvcia	ip, {r2, r3, r6, r7, sl, fp, lr, pc}^
3000eb50:	00000000 	andeq	r0, r0, r0
3000eb54:	663c0000 	ldrvst	r0, [ip], -r0
3000eb58:	3c666666 	stcccl	6, cr6, [r6], #-408
3000eb5c:	18187e18 	ldmneda	r8, {r3, r4, r9, sl, fp, ip, sp, lr}
3000eb60:	00000000 	andeq	r0, r0, r0
3000eb64:	333f0000 	teqcc	pc, #0	; 0x0
3000eb68:	3030303f 	eorccs	r3, r0, pc, lsr r0
3000eb6c:	e0f07030 	rscs	r7, r0, r0, lsr r0
3000eb70:	00000000 	andeq	r0, r0, r0
3000eb74:	637f0000 	cmnvs	pc, #0	; 0x0
3000eb78:	6363637f 	cmnvs	r3, #-67108863	; 0xfc000001
3000eb7c:	e6e76763 	strbt	r6, [r7], r3, ror #14
3000eb80:	000000c0 	andeq	r0, r0, r0, asr #1
3000eb84:	18000000 	stmneda	r0, {}
3000eb88:	e73cdb18 	undefined
3000eb8c:	1818db3c 	ldmneda	r8, {r2, r3, r4, r5, r8, r9, fp, ip, lr, pc}
3000eb90:	00000000 	andeq	r0, r0, r0
3000eb94:	e0c08000 	sbc	r8, r0, r0
3000eb98:	f8fef8f0 	ldmnvia	lr!, {r4, r5, r6, r7, fp, ip, sp, lr, pc}^
3000eb9c:	80c0e0f0 	strhid	lr, [r0]
3000eba0:	00000000 	andeq	r0, r0, r0
3000eba4:	0e060200 	cdpeq	2, 0, cr0, cr6, cr0, {0}
3000eba8:	3efe3e1e 	mrccc	14, 7, r3, cr14, cr14, {0}
3000ebac:	02060e1e 	andeq	r0, r6, #480	; 0x1e0
3000ebb0:	00000000 	andeq	r0, r0, r0
3000ebb4:	3c180000 	ldccc	0, cr0, [r8], {0}
3000ebb8:	1818187e 	ldmneda	r8, {r1, r2, r3, r4, r5, r6, fp, ip}
3000ebbc:	00183c7e 	andeqs	r3, r8, lr, ror ip
3000ebc0:	00000000 	andeq	r0, r0, r0
3000ebc4:	66660000 	strvsbt	r0, [r6], -r0
3000ebc8:	66666666 	strvsbt	r6, [r6], -r6, ror #12
3000ebcc:	66660066 	strvsbt	r0, [r6], -r6, rrx
3000ebd0:	00000000 	andeq	r0, r0, r0
3000ebd4:	db7f0000 	blle	31fcebdc <_end+0x1fb480c>
3000ebd8:	1b7bdbdb 	blne	31f05b4c <_end+0x1eeb77c>
3000ebdc:	1b1b1b1b 	blne	306d5850 <_end+0x6bb480>
3000ebe0:	00000000 	andeq	r0, r0, r0
3000ebe4:	60c67c00 	sbcvs	r7, r6, r0, lsl #24
3000ebe8:	c6c66c38 	undefined
3000ebec:	c60c386c 	strgt	r3, [ip], -ip, ror #16
3000ebf0:	0000007c 	andeq	r0, r0, ip, ror r0
	...
3000ebfc:	fefefefe 	mrc2	14, 7, pc, cr14, cr14, {7}
3000ec00:	00000000 	andeq	r0, r0, r0
3000ec04:	3c180000 	ldccc	0, cr0, [r8], {0}
3000ec08:	1818187e 	ldmneda	r8, {r1, r2, r3, r4, r5, r6, fp, ip}
3000ec0c:	7e183c7e 	mrcvc	12, 0, r3, cr8, cr14, {3}
3000ec10:	00000000 	andeq	r0, r0, r0
3000ec14:	3c180000 	ldccc	0, cr0, [r8], {0}
3000ec18:	1818187e 	ldmneda	r8, {r1, r2, r3, r4, r5, r6, fp, ip}
3000ec1c:	18181818 	ldmneda	r8, {r3, r4, fp, ip}
3000ec20:	00000000 	andeq	r0, r0, r0
3000ec24:	18180000 	ldmneda	r8, {}
3000ec28:	18181818 	ldmneda	r8, {r3, r4, fp, ip}
3000ec2c:	183c7e18 	ldmneda	ip!, {r3, r4, r9, sl, fp, ip, sp, lr}
	...
3000ec38:	fe0c1800 	cdp2	8, 0, cr1, cr12, cr0, {0}
3000ec3c:	0000180c 	andeq	r1, r0, ip, lsl #16
	...
3000ec48:	fe603000 	cdp2	0, 6, cr3, cr0, cr0, {0}
3000ec4c:	00003060 	andeq	r3, r0, r0, rrx
	...
3000ec58:	c0c00000 	sbcgt	r0, r0, r0
3000ec5c:	0000fec0 	andeq	pc, r0, r0, asr #29
	...
3000ec68:	fe6c2800 	cdp2	8, 6, cr2, cr12, cr0, {0}
3000ec6c:	0000286c 	andeq	r2, r0, ip, ror #16
	...
3000ec78:	7c383810 	ldcvc	8, cr3, [r8], #-64
3000ec7c:	00fefe7c 	rsceqs	pc, lr, ip, ror lr
	...
3000ec88:	7c7cfefe 	ldcvcl	14, cr15, [ip], #-1016
3000ec8c:	00103838 	andeqs	r3, r0, r8, lsr r8
	...
3000eca4:	3c180000 	ldccc	0, cr0, [r8], {0}
3000eca8:	18183c3c 	ldmneda	r8, {r2, r3, r4, r5, sl, fp, ip, sp}
3000ecac:	18180018 	ldmneda	r8, {r3, r4}
3000ecb0:	00000000 	andeq	r0, r0, r0
3000ecb4:	66666600 	strvsbt	r6, [r6], -r0, lsl #12
3000ecb8:	00000024 	andeq	r0, r0, r4, lsr #32
	...
3000ecc4:	6c000000 	stcvs	0, cr0, [r0], {0}
3000ecc8:	6c6cfe6c 	stcvsl	14, cr15, [ip], #-432
3000eccc:	6c6cfe6c 	stcvsl	14, cr15, [ip], #-432
3000ecd0:	00000000 	andeq	r0, r0, r0
3000ecd4:	c67c1818 	undefined
3000ecd8:	067cc0c2 	ldreqbt	ip, [ip], -r2, asr #1
3000ecdc:	7cc68606 	stcvcl	6, cr8, [r6], {6}
3000ece0:	00001818 	andeq	r1, r0, r8, lsl r8
3000ece4:	00000000 	andeq	r0, r0, r0
3000ece8:	180cc6c2 	stmneda	ip, {r1, r6, r7, r9, sl, lr, pc}
3000ecec:	86c66030 	undefined
3000ecf0:	00000000 	andeq	r0, r0, r0
3000ecf4:	6c380000 	ldcvs	0, cr0, [r8]
3000ecf8:	dc76386c 	ldclel	8, cr3, [r6], #-432
3000ecfc:	76cccccc 	strvcb	ip, [ip], ip, asr #25
3000ed00:	00000000 	andeq	r0, r0, r0
3000ed04:	30303000 	eorccs	r3, r0, r0
3000ed08:	00000060 	andeq	r0, r0, r0, rrx
	...
3000ed14:	180c0000 	stmneda	ip, {}
3000ed18:	30303030 	eorccs	r3, r0, r0, lsr r0
3000ed1c:	0c183030 	ldceq	0, cr3, [r8], {48}
3000ed20:	00000000 	andeq	r0, r0, r0
3000ed24:	18300000 	ldmneda	r0!, {}
3000ed28:	0c0c0c0c 	stceq	12, cr0, [ip], {12}
3000ed2c:	30180c0c 	andccs	r0, r8, ip, lsl #24
	...
3000ed38:	ff3c6600 	swinv	0x003c6600
3000ed3c:	0000663c 	andeq	r6, r0, ip, lsr r6
	...
3000ed48:	7e181800 	cdpvc	8, 1, cr1, cr8, cr0, {0}
3000ed4c:	00001818 	andeq	r1, r0, r8, lsl r8
	...
3000ed5c:	18181800 	ldmneda	r8, {fp, ip}
3000ed60:	00000030 	andeq	r0, r0, r0, lsr r0
3000ed64:	00000000 	andeq	r0, r0, r0
3000ed68:	fe000000 	cdp2	0, 0, cr0, cr0, cr0, {0}
	...
3000ed7c:	18180000 	ldmneda	r8, {}
	...
3000ed88:	180c0602 	stmneda	ip, {r1, r9, sl}
3000ed8c:	80c06030 	sbchi	r6, r0, r0, lsr r0
3000ed90:	00000000 	andeq	r0, r0, r0
3000ed94:	6c380000 	ldcvs	0, cr0, [r8]
3000ed98:	d6d6c6c6 	ldrleb	ip, [r6], r6, asr #13
3000ed9c:	386cc6c6 	stmccda	ip!, {r1, r2, r6, r7, r9, sl, lr, pc}^
3000eda0:	00000000 	andeq	r0, r0, r0
3000eda4:	38180000 	ldmccda	r8, {}
3000eda8:	18181878 	ldmneda	r8, {r3, r4, r5, r6, fp, ip}
3000edac:	7e181818 	mrcvc	8, 0, r1, cr8, cr8, {0}
3000edb0:	00000000 	andeq	r0, r0, r0
3000edb4:	c67c0000 	ldrgtbt	r0, [ip], -r0
3000edb8:	30180c06 	andccs	r0, r8, r6, lsl #24
3000edbc:	fec6c060 	cdp2	0, 12, cr12, cr6, cr0, {3}
3000edc0:	00000000 	andeq	r0, r0, r0
3000edc4:	c67c0000 	ldrgtbt	r0, [ip], -r0
3000edc8:	063c0606 	ldreqt	r0, [ip], -r6, lsl #12
3000edcc:	7cc60606 	stcvcl	6, cr0, [r6], {6}
3000edd0:	00000000 	andeq	r0, r0, r0
3000edd4:	1c0c0000 	stcne	0, cr0, [ip], {0}
3000edd8:	fecc6c3c 	mcr2	12, 6, r6, cr12, cr12, {1}
3000eddc:	1e0c0c0c 	cdpne	12, 0, cr0, cr12, cr12, {0}
3000ede0:	00000000 	andeq	r0, r0, r0
3000ede4:	c0fe0000 	rscgts	r0, lr, r0
3000ede8:	06fcc0c0 	ldreqbt	ip, [ip], r0, asr #1
3000edec:	7cc60606 	stcvcl	6, cr0, [r6], {6}
3000edf0:	00000000 	andeq	r0, r0, r0
3000edf4:	60380000 	eorvss	r0, r8, r0
3000edf8:	c6fcc0c0 	ldrgtbt	ip, [ip], r0, asr #1
3000edfc:	7cc6c6c6 	stcvcl	6, cr12, [r6], {198}
3000ee00:	00000000 	andeq	r0, r0, r0
3000ee04:	c6fe0000 	ldrgtbt	r0, [lr], r0
3000ee08:	180c0606 	stmneda	ip, {r1, r2, r9, sl}
3000ee0c:	30303030 	eorccs	r3, r0, r0, lsr r0
3000ee10:	00000000 	andeq	r0, r0, r0
3000ee14:	c67c0000 	ldrgtbt	r0, [ip], -r0
3000ee18:	c67cc6c6 	ldrgtbt	ip, [ip], -r6, asr #13
3000ee1c:	7cc6c6c6 	stcvcl	6, cr12, [r6], {198}
3000ee20:	00000000 	andeq	r0, r0, r0
3000ee24:	c67c0000 	ldrgtbt	r0, [ip], -r0
3000ee28:	067ec6c6 	ldreqbt	ip, [lr], -r6, asr #13
3000ee2c:	780c0606 	stmvcda	ip, {r1, r2, r9, sl}
	...
3000ee38:	00001818 	andeq	r1, r0, r8, lsl r8
3000ee3c:	00181800 	andeqs	r1, r8, r0, lsl #16
	...
3000ee48:	00001818 	andeq	r1, r0, r8, lsl r8
3000ee4c:	30181800 	andccs	r1, r8, r0, lsl #16
3000ee50:	00000000 	andeq	r0, r0, r0
3000ee54:	06000000 	streq	r0, [r0], -r0
3000ee58:	6030180c 	eorvss	r1, r0, ip, lsl #16
3000ee5c:	060c1830 	undefined
	...
3000ee68:	00007e00 	andeq	r7, r0, r0, lsl #28
3000ee6c:	0000007e 	andeq	r0, r0, lr, ror r0
3000ee70:	00000000 	andeq	r0, r0, r0
3000ee74:	60000000 	andvs	r0, r0, r0
3000ee78:	060c1830 	undefined
3000ee7c:	6030180c 	eorvss	r1, r0, ip, lsl #16
3000ee80:	00000000 	andeq	r0, r0, r0
3000ee84:	c67c0000 	ldrgtbt	r0, [ip], -r0
3000ee88:	18180cc6 	ldmneda	r8, {r1, r2, r6, r7, sl, fp}
3000ee8c:	18180018 	ldmneda	r8, {r3, r4}
3000ee90:	00000000 	andeq	r0, r0, r0
3000ee94:	7c000000 	stcvc	0, cr0, [r0], {0}
3000ee98:	dedec6c6 	cdple	6, 13, cr12, cr14, cr6, {6}
3000ee9c:	7cc0dcde 	stcvcl	12, cr13, [r0], {222}
3000eea0:	00000000 	andeq	r0, r0, r0
3000eea4:	38100000 	ldmccda	r0, {}
3000eea8:	fec6c66c 	cdp2	6, 12, cr12, cr6, cr12, {3}
3000eeac:	c6c6c6c6 	strgtb	ip, [r6], r6, asr #13
3000eeb0:	00000000 	andeq	r0, r0, r0
3000eeb4:	66fc0000 	ldrvsbt	r0, [ip], r0
3000eeb8:	667c6666 	ldrvsbt	r6, [ip], -r6, ror #12
3000eebc:	fc666666 	stc2l	6, cr6, [r6], #-408
3000eec0:	00000000 	andeq	r0, r0, r0
3000eec4:	663c0000 	ldrvst	r0, [ip], -r0
3000eec8:	c0c0c0c2 	sbcgt	ip, r0, r2, asr #1
3000eecc:	3c66c2c0 	sfmcc	f4, 3, [r6], #-768
3000eed0:	00000000 	andeq	r0, r0, r0
3000eed4:	6cf80000 	ldcvsl	0, cr0, [r8]
3000eed8:	66666666 	strvsbt	r6, [r6], -r6, ror #12
3000eedc:	f86c6666 	stmnvda	ip!, {r1, r2, r5, r6, r9, sl, sp, lr}^
3000eee0:	00000000 	andeq	r0, r0, r0
3000eee4:	66fe0000 	ldrvsbt	r0, [lr], r0
3000eee8:	68786862 	ldmvsda	r8!, {r1, r5, r6, fp, sp, lr}^
3000eeec:	fe666260 	cdp2	2, 6, cr6, cr6, cr0, {3}
3000eef0:	00000000 	andeq	r0, r0, r0
3000eef4:	66fe0000 	ldrvsbt	r0, [lr], r0
3000eef8:	68786862 	ldmvsda	r8!, {r1, r5, r6, fp, sp, lr}^
3000eefc:	f0606060 	rsbnv	r6, r0, r0, rrx
3000ef00:	00000000 	andeq	r0, r0, r0
3000ef04:	663c0000 	ldrvst	r0, [ip], -r0
3000ef08:	dec0c0c2 	cdple	0, 12, cr12, cr0, cr2, {6}
3000ef0c:	3a66c6c6 	bcc	319c0a2c <_end+0x19a665c>
3000ef10:	00000000 	andeq	r0, r0, r0
3000ef14:	c6c60000 	strgtb	r0, [r6], r0
3000ef18:	c6fec6c6 	ldrgtbt	ip, [lr], r6, asr #13
3000ef1c:	c6c6c6c6 	strgtb	ip, [r6], r6, asr #13
3000ef20:	00000000 	andeq	r0, r0, r0
3000ef24:	183c0000 	ldmneda	ip!, {}
3000ef28:	18181818 	ldmneda	r8, {r3, r4, fp, ip}
3000ef2c:	3c181818 	ldccc	8, cr1, [r8], {24}
3000ef30:	00000000 	andeq	r0, r0, r0
3000ef34:	0c1e0000 	ldceq	0, cr0, [lr], {0}
3000ef38:	0c0c0c0c 	stceq	12, cr0, [ip], {12}
3000ef3c:	78cccccc 	stmvcia	ip, {r2, r3, r6, r7, sl, fp, lr, pc}^
3000ef40:	00000000 	andeq	r0, r0, r0
3000ef44:	66e60000 	strvsbt	r0, [r6], r0
3000ef48:	78786c66 	ldmvcda	r8!, {r1, r2, r5, r6, sl, fp, sp, lr}^
3000ef4c:	e666666c 	strbt	r6, [r6], -ip, ror #12
3000ef50:	00000000 	andeq	r0, r0, r0
3000ef54:	60f00000 	rscvss	r0, r0, r0
3000ef58:	60606060 	rsbvs	r6, r0, r0, rrx
3000ef5c:	fe666260 	cdp2	2, 6, cr6, cr6, cr0, {3}
3000ef60:	00000000 	andeq	r0, r0, r0
3000ef64:	eec60000 	cdp	0, 12, cr0, cr6, cr0, {0}
3000ef68:	c6d6fefe 	undefined
3000ef6c:	c6c6c6c6 	strgtb	ip, [r6], r6, asr #13
3000ef70:	00000000 	andeq	r0, r0, r0
3000ef74:	e6c60000 	strb	r0, [r6], r0
3000ef78:	cedefef6 	mrcgt	14, 6, pc, cr14, cr6, {7}
3000ef7c:	c6c6c6c6 	strgtb	ip, [r6], r6, asr #13
3000ef80:	00000000 	andeq	r0, r0, r0
3000ef84:	c67c0000 	ldrgtbt	r0, [ip], -r0
3000ef88:	c6c6c6c6 	strgtb	ip, [r6], r6, asr #13
3000ef8c:	7cc6c6c6 	stcvcl	6, cr12, [r6], {198}
3000ef90:	00000000 	andeq	r0, r0, r0
3000ef94:	66fc0000 	ldrvsbt	r0, [ip], r0
3000ef98:	607c6666 	rsbvss	r6, ip, r6, ror #12
3000ef9c:	f0606060 	rsbnv	r6, r0, r0, rrx
3000efa0:	00000000 	andeq	r0, r0, r0
3000efa4:	c67c0000 	ldrgtbt	r0, [ip], -r0
3000efa8:	c6c6c6c6 	strgtb	ip, [r6], r6, asr #13
3000efac:	7cded6c6 	ldcvcl	6, cr13, [lr], {198}
3000efb0:	00000e0c 	andeq	r0, r0, ip, lsl #28
3000efb4:	66fc0000 	ldrvsbt	r0, [ip], r0
3000efb8:	6c7c6666 	ldcvsl	6, cr6, [ip], #-408
3000efbc:	e6666666 	strbt	r6, [r6], -r6, ror #12
3000efc0:	00000000 	andeq	r0, r0, r0
3000efc4:	c67c0000 	ldrgtbt	r0, [ip], -r0
3000efc8:	0c3860c6 	ldceq	0, cr6, [r8], #-792
3000efcc:	7cc6c606 	stcvcl	6, cr12, [r6], {6}
3000efd0:	00000000 	andeq	r0, r0, r0
3000efd4:	7e7e0000 	cdpvc	0, 7, cr0, cr14, cr0, {0}
3000efd8:	1818185a 	ldmneda	r8, {r1, r3, r4, r6, fp, ip}
3000efdc:	3c181818 	ldccc	8, cr1, [r8], {24}
3000efe0:	00000000 	andeq	r0, r0, r0
3000efe4:	c6c60000 	strgtb	r0, [r6], r0
3000efe8:	c6c6c6c6 	strgtb	ip, [r6], r6, asr #13
3000efec:	7cc6c6c6 	stcvcl	6, cr12, [r6], {198}
3000eff0:	00000000 	andeq	r0, r0, r0
3000eff4:	c6c60000 	strgtb	r0, [r6], r0
3000eff8:	c6c6c6c6 	strgtb	ip, [r6], r6, asr #13
3000effc:	10386cc6 	eornes	r6, r8, r6, asr #25
3000f000:	00000000 	andeq	r0, r0, r0
3000f004:	c6c60000 	strgtb	r0, [r6], r0
3000f008:	d6d6c6c6 	ldrleb	ip, [r6], r6, asr #13
3000f00c:	6ceefed6 	stcvsl	14, cr15, [lr], #856
3000f010:	00000000 	andeq	r0, r0, r0
3000f014:	c6c60000 	strgtb	r0, [r6], r0
3000f018:	38387c6c 	ldmccda	r8!, {r2, r3, r5, r6, sl, fp, ip, sp, lr}
3000f01c:	c6c66c7c 	uxtab16gt	r6, r6, ip, ROR #24
3000f020:	00000000 	andeq	r0, r0, r0
3000f024:	66660000 	strvsbt	r0, [r6], -r0
3000f028:	183c6666 	ldmneda	ip!, {r1, r2, r5, r6, r9, sl, sp, lr}
3000f02c:	3c181818 	ldccc	8, cr1, [r8], {24}
3000f030:	00000000 	andeq	r0, r0, r0
3000f034:	c6fe0000 	ldrgtbt	r0, [lr], r0
3000f038:	30180c86 	andccs	r0, r8, r6, lsl #25
3000f03c:	fec6c260 	cdp2	2, 12, cr12, cr6, cr0, {3}
3000f040:	00000000 	andeq	r0, r0, r0
3000f044:	303c0000 	eorccs	r0, ip, r0
3000f048:	30303030 	eorccs	r3, r0, r0, lsr r0
3000f04c:	3c303030 	ldccc	0, cr3, [r0], #-192
3000f050:	00000000 	andeq	r0, r0, r0
3000f054:	80000000 	andhi	r0, r0, r0
3000f058:	3870e0c0 	ldmccda	r0!, {r6, r7, sp, lr, pc}^
3000f05c:	02060e1c 	andeq	r0, r6, #448	; 0x1c0
3000f060:	00000000 	andeq	r0, r0, r0
3000f064:	0c3c0000 	ldceq	0, cr0, [ip]
3000f068:	0c0c0c0c 	stceq	12, cr0, [ip], {12}
3000f06c:	3c0c0c0c 	stccc	12, cr0, [ip], {12}
3000f070:	00000000 	andeq	r0, r0, r0
3000f074:	c66c3810 	undefined
	...
3000f090:	0000ff00 	andeq	pc, r0, r0, lsl #30
3000f094:	0c183000 	ldceq	0, cr3, [r8], {0}
	...
3000f0a8:	7c0c7800 	stcvc	8, cr7, [ip], {0}
3000f0ac:	76cccccc 	strvcb	ip, [ip], ip, asr #25
3000f0b0:	00000000 	andeq	r0, r0, r0
3000f0b4:	60e00000 	rscvs	r0, r0, r0
3000f0b8:	666c7860 	strvsbt	r7, [ip], -r0, ror #16
3000f0bc:	7c666666 	stcvcl	6, cr6, [r6], #-408
	...
3000f0c8:	c0c67c00 	sbcgt	r7, r6, r0, lsl #24
3000f0cc:	7cc6c0c0 	stcvcl	0, cr12, [r6], {192}
3000f0d0:	00000000 	andeq	r0, r0, r0
3000f0d4:	0c1c0000 	ldceq	0, cr0, [ip], {0}
3000f0d8:	cc6c3c0c 	stcgtl	12, cr3, [ip], #-48
3000f0dc:	76cccccc 	strvcb	ip, [ip], ip, asr #25
	...
3000f0e8:	fec67c00 	cdp2	12, 12, cr7, cr6, cr0, {0}
3000f0ec:	7cc6c0c0 	stcvcl	0, cr12, [r6], {192}
3000f0f0:	00000000 	andeq	r0, r0, r0
3000f0f4:	361c0000 	ldrcc	r0, [ip], -r0
3000f0f8:	30783032 	rsbccs	r3, r8, r2, lsr r0
3000f0fc:	78303030 	ldmvcda	r0!, {r4, r5, ip, sp}
	...
3000f108:	cccc7600 	stcgtl	6, cr7, [ip], {0}
3000f10c:	7ccccccc 	stcvcl	12, cr12, [ip], {204}
3000f110:	0078cc0c 	rsbeqs	ip, r8, ip, lsl #24
3000f114:	60e00000 	rscvs	r0, r0, r0
3000f118:	66766c60 	ldrvsbt	r6, [r6], -r0, ror #24
3000f11c:	e6666666 	strbt	r6, [r6], -r6, ror #12
3000f120:	00000000 	andeq	r0, r0, r0
3000f124:	18180000 	ldmneda	r8, {}
3000f128:	18183800 	ldmneda	r8, {fp, ip, sp}
3000f12c:	3c181818 	ldccc	8, cr1, [r8], {24}
3000f130:	00000000 	andeq	r0, r0, r0
3000f134:	06060000 	streq	r0, [r6], -r0
3000f138:	06060e00 	streq	r0, [r6], -r0, lsl #28
3000f13c:	06060606 	streq	r0, [r6], -r6, lsl #12
3000f140:	003c6666 	eoreqs	r6, ip, r6, ror #12
3000f144:	60e00000 	rscvs	r0, r0, r0
3000f148:	786c6660 	stmvcda	ip!, {r5, r6, r9, sl, sp, lr}^
3000f14c:	e6666c78 	undefined
3000f150:	00000000 	andeq	r0, r0, r0
3000f154:	18380000 	ldmneda	r8!, {}
3000f158:	18181818 	ldmneda	r8, {r3, r4, fp, ip}
3000f15c:	3c181818 	ldccc	8, cr1, [r8], {24}
	...
3000f168:	d6feec00 	ldrlebt	lr, [lr], r0, lsl #24
3000f16c:	c6d6d6d6 	undefined
	...
3000f178:	6666dc00 	strvsbt	sp, [r6], -r0, lsl #24
3000f17c:	66666666 	strvsbt	r6, [r6], -r6, ror #12
	...
3000f188:	c6c67c00 	strgtb	r7, [r6], r0, lsl #24
3000f18c:	7cc6c6c6 	stcvcl	6, cr12, [r6], {198}
	...
3000f198:	6666dc00 	strvsbt	sp, [r6], -r0, lsl #24
3000f19c:	7c666666 	stcvcl	6, cr6, [r6], #-408
3000f1a0:	00f06060 	rsceqs	r6, r0, r0, rrx
3000f1a4:	00000000 	andeq	r0, r0, r0
3000f1a8:	cccc7600 	stcgtl	6, cr7, [ip], {0}
3000f1ac:	7ccccccc 	stcvcl	12, cr12, [ip], {204}
3000f1b0:	001e0c0c 	andeqs	r0, lr, ip, lsl #24
3000f1b4:	00000000 	andeq	r0, r0, r0
3000f1b8:	6676dc00 	ldrvsbt	sp, [r6], -r0, lsl #24
3000f1bc:	f0606060 	rsbnv	r6, r0, r0, rrx
	...
3000f1c8:	60c67c00 	sbcvs	r7, r6, r0, lsl #24
3000f1cc:	7cc60c38 	stcvcl	12, cr0, [r6], {56}
3000f1d0:	00000000 	andeq	r0, r0, r0
3000f1d4:	30100000 	andccs	r0, r0, r0
3000f1d8:	3030fc30 	eorccs	pc, r0, r0, lsr ip
3000f1dc:	1c363030 	ldcne	0, cr3, [r6], #-192
	...
3000f1e8:	cccccc00 	stcgtl	12, cr12, [ip], {0}
3000f1ec:	76cccccc 	strvcb	ip, [ip], ip, asr #25
	...
3000f1f8:	c6c6c600 	strgtb	ip, [r6], r0, lsl #12
3000f1fc:	386cc6c6 	stmccda	ip!, {r1, r2, r6, r7, r9, sl, lr, pc}^
	...
3000f208:	d6c6c600 	strleb	ip, [r6], r0, lsl #12
3000f20c:	6cfed6d6 	ldcvsl	6, cr13, [lr], #856
	...
3000f218:	386cc600 	stmccda	ip!, {r9, sl, lr, pc}^
3000f21c:	c66c3838 	undefined
	...
3000f228:	c6c6c600 	strgtb	ip, [r6], r0, lsl #12
3000f22c:	7ec6c6c6 	cdpvc	6, 12, cr12, cr6, cr6, {6}
3000f230:	00f80c06 	rsceqs	r0, r8, r6, lsl #24
3000f234:	00000000 	andeq	r0, r0, r0
3000f238:	18ccfe00 	stmneia	ip, {r9, sl, fp, ip, sp, lr, pc}^
3000f23c:	fec66030 	mcr2	0, 6, r6, cr6, cr0, {1}
3000f240:	00000000 	andeq	r0, r0, r0
3000f244:	180e0000 	stmneda	lr, {}
3000f248:	18701818 	ldmneda	r0!, {r3, r4, fp, ip}^
3000f24c:	0e181818 	mrceq	8, 0, r1, cr8, cr8, {0}
3000f250:	00000000 	andeq	r0, r0, r0
3000f254:	18180000 	ldmneda	r8, {}
3000f258:	18181818 	ldmneda	r8, {r3, r4, fp, ip}
3000f25c:	18181818 	ldmneda	r8, {r3, r4, fp, ip}
3000f260:	00000000 	andeq	r0, r0, r0
3000f264:	18700000 	ldmneda	r0!, {}^
3000f268:	180e1818 	stmneda	lr, {r3, r4, fp, ip}
3000f26c:	70181818 	andvcs	r1, r8, r8, lsl r8
3000f270:	00000000 	andeq	r0, r0, r0
3000f274:	00dc7600 	sbceqs	r7, ip, r0, lsl #12
	...
3000f288:	c66c3810 	undefined
3000f28c:	00fec6c6 	rsceqs	ip, lr, r6, asr #13
3000f290:	00000000 	andeq	r0, r0, r0
3000f294:	663c0000 	ldrvst	r0, [ip], -r0
3000f298:	c0c0c0c2 	sbcgt	ip, r0, r2, asr #1
3000f29c:	3c66c2c0 	sfmcc	f4, 3, [r6], #-768
3000f2a0:	00007018 	andeq	r7, r0, r8, lsl r0
3000f2a4:	00cc0000 	sbceq	r0, ip, r0
3000f2a8:	cccccc00 	stcgtl	12, cr12, [ip], {0}
3000f2ac:	76cccccc 	strvcb	ip, [ip], ip, asr #25
3000f2b0:	00000000 	andeq	r0, r0, r0
3000f2b4:	30180c00 	andccs	r0, r8, r0, lsl #24
3000f2b8:	fec67c00 	cdp2	12, 12, cr7, cr6, cr0, {0}
3000f2bc:	7cc6c0c0 	stcvcl	0, cr12, [r6], {192}
3000f2c0:	00000000 	andeq	r0, r0, r0
3000f2c4:	6c381000 	ldcvs	0, cr1, [r8]
3000f2c8:	7c0c7800 	stcvc	8, cr7, [ip], {0}
3000f2cc:	76cccccc 	strvcb	ip, [ip], ip, asr #25
3000f2d0:	00000000 	andeq	r0, r0, r0
3000f2d4:	00cc0000 	sbceq	r0, ip, r0
3000f2d8:	7c0c7800 	stcvc	8, cr7, [ip], {0}
3000f2dc:	76cccccc 	strvcb	ip, [ip], ip, asr #25
3000f2e0:	00000000 	andeq	r0, r0, r0
3000f2e4:	18306000 	ldmneda	r0!, {sp, lr}
3000f2e8:	7c0c7800 	stcvc	8, cr7, [ip], {0}
3000f2ec:	76cccccc 	strvcb	ip, [ip], ip, asr #25
3000f2f0:	00000000 	andeq	r0, r0, r0
3000f2f4:	386c3800 	stmccda	ip!, {fp, ip, sp}^
3000f2f8:	7c0c7800 	stcvc	8, cr7, [ip], {0}
3000f2fc:	76cccccc 	strvcb	ip, [ip], ip, asr #25
	...
3000f308:	c0c67c00 	sbcgt	r7, r6, r0, lsl #24
3000f30c:	7cc6c0c0 	stcvcl	0, cr12, [r6], {192}
3000f310:	00007018 	andeq	r7, r0, r8, lsl r0
3000f314:	6c381000 	ldcvs	0, cr1, [r8]
3000f318:	fec67c00 	cdp2	12, 12, cr7, cr6, cr0, {0}
3000f31c:	7cc6c0c0 	stcvcl	0, cr12, [r6], {192}
3000f320:	00000000 	andeq	r0, r0, r0
3000f324:	00c60000 	sbceq	r0, r6, r0
3000f328:	fec67c00 	cdp2	12, 12, cr7, cr6, cr0, {0}
3000f32c:	7cc6c0c0 	stcvcl	0, cr12, [r6], {192}
3000f330:	00000000 	andeq	r0, r0, r0
3000f334:	18306000 	ldmneda	r0!, {sp, lr}
3000f338:	fec67c00 	cdp2	12, 12, cr7, cr6, cr0, {0}
3000f33c:	7cc6c0c0 	stcvcl	0, cr12, [r6], {192}
3000f340:	00000000 	andeq	r0, r0, r0
3000f344:	00660000 	rsbeq	r0, r6, r0
3000f348:	18183800 	ldmneda	r8, {fp, ip, sp}
3000f34c:	3c181818 	ldccc	8, cr1, [r8], {24}
3000f350:	00000000 	andeq	r0, r0, r0
3000f354:	663c1800 	ldrvst	r1, [ip], -r0, lsl #16
3000f358:	18183800 	ldmneda	r8, {fp, ip, sp}
3000f35c:	3c181818 	ldccc	8, cr1, [r8], {24}
3000f360:	00000000 	andeq	r0, r0, r0
3000f364:	18306000 	ldmneda	r0!, {sp, lr}
3000f368:	18183800 	ldmneda	r8, {fp, ip, sp}
3000f36c:	3c181818 	ldccc	8, cr1, [r8], {24}
3000f370:	00000000 	andeq	r0, r0, r0
3000f374:	1000c600 	andne	ip, r0, r0, lsl #12
3000f378:	c6c66c38 	undefined
3000f37c:	c6c6c6fe 	undefined
3000f380:	00000000 	andeq	r0, r0, r0
3000f384:	10386c38 	eornes	r6, r8, r8, lsr ip
3000f388:	fec66c38 	mcr2	12, 6, r6, cr6, cr8, {1}
3000f38c:	c6c6c6c6 	strgtb	ip, [r6], r6, asr #13
3000f390:	00000000 	andeq	r0, r0, r0
3000f394:	fe00180c 	cdp2	8, 0, cr1, cr0, cr12, {0}
3000f398:	78686266 	stmvcda	r8!, {r1, r2, r5, r6, r9, sp, lr}^
3000f39c:	fe666268 	cdp2	2, 6, cr6, cr6, cr8, {3}
	...
3000f3a8:	3636ec00 	ldrcct	lr, [r6], -r0, lsl #24
3000f3ac:	6ed8d87e 	mrcvs	8, 6, sp, cr8, cr14, {3}
3000f3b0:	00000000 	andeq	r0, r0, r0
3000f3b4:	6c3e0000 	ldcvs	0, cr0, [lr]
3000f3b8:	ccfecccc 	ldcgtl	12, cr12, [lr], #816
3000f3bc:	cecccccc 	cdpgt	12, 12, cr12, cr12, cr12, {6}
3000f3c0:	00000000 	andeq	r0, r0, r0
3000f3c4:	6c381000 	ldcvs	0, cr1, [r8]
3000f3c8:	c6c67c00 	strgtb	r7, [r6], r0, lsl #24
3000f3cc:	7cc6c6c6 	stcvcl	6, cr12, [r6], {198}
3000f3d0:	00000000 	andeq	r0, r0, r0
3000f3d4:	00c60000 	sbceq	r0, r6, r0
3000f3d8:	c6c67c00 	strgtb	r7, [r6], r0, lsl #24
3000f3dc:	7cc6c6c6 	stcvcl	6, cr12, [r6], {198}
3000f3e0:	00000000 	andeq	r0, r0, r0
3000f3e4:	18306000 	ldmneda	r0!, {sp, lr}
3000f3e8:	c6c67c00 	strgtb	r7, [r6], r0, lsl #24
3000f3ec:	7cc6c6c6 	stcvcl	6, cr12, [r6], {198}
3000f3f0:	00000000 	andeq	r0, r0, r0
3000f3f4:	cc783000 	ldcgtl	0, cr3, [r8]
3000f3f8:	cccccc00 	stcgtl	12, cr12, [ip], {0}
3000f3fc:	76cccccc 	strvcb	ip, [ip], ip, asr #25
3000f400:	00000000 	andeq	r0, r0, r0
3000f404:	18306000 	ldmneda	r0!, {sp, lr}
3000f408:	cccccc00 	stcgtl	12, cr12, [ip], {0}
3000f40c:	76cccccc 	strvcb	ip, [ip], ip, asr #25
3000f410:	00000000 	andeq	r0, r0, r0
3000f414:	00c60000 	sbceq	r0, r6, r0
3000f418:	c6c6c600 	strgtb	ip, [r6], r0, lsl #12
3000f41c:	7ec6c6c6 	cdpvc	6, 12, cr12, cr6, cr6, {6}
3000f420:	00780c06 	rsbeqs	r0, r8, r6, lsl #24
3000f424:	7c00c600 	stcvc	6, cr12, [r0], {0}
3000f428:	c6c6c6c6 	strgtb	ip, [r6], r6, asr #13
3000f42c:	7cc6c6c6 	stcvcl	6, cr12, [r6], {198}
3000f430:	00000000 	andeq	r0, r0, r0
3000f434:	c600c600 	strgt	ip, [r0], -r0, lsl #12
3000f438:	c6c6c6c6 	strgtb	ip, [r6], r6, asr #13
3000f43c:	7cc6c6c6 	stcvcl	6, cr12, [r6], {198}
3000f440:	00000000 	andeq	r0, r0, r0
3000f444:	7c181800 	ldcvc	8, cr1, [r8], {0}
3000f448:	c0c0c0c6 	sbcgt	ip, r0, r6, asr #1
3000f44c:	18187cc6 	ldmneda	r8, {r1, r2, r6, r7, sl, fp, ip, sp, lr}
3000f450:	00000000 	andeq	r0, r0, r0
3000f454:	646c3800 	strvsbt	r3, [ip], #-2048
3000f458:	6060f060 	rsbvs	pc, r0, r0, rrx
3000f45c:	fce66060 	stc2l	0, cr6, [r6], #384
3000f460:	00000000 	andeq	r0, r0, r0
3000f464:	66660000 	strvsbt	r0, [r6], -r0
3000f468:	187e183c 	ldmneda	lr!, {r2, r3, r4, r5, fp, ip}^
3000f46c:	1818187e 	ldmneda	r8, {r1, r2, r3, r4, r5, r6, fp, ip}
3000f470:	00000000 	andeq	r0, r0, r0
3000f474:	ccccf800 	stcgtl	8, cr15, [ip], {0}
3000f478:	deccc4f8 	mcrle	4, 6, ip, cr12, cr8, {7}
3000f47c:	c6cccccc 	strgtb	ip, [ip], ip, asr #25
3000f480:	00000000 	andeq	r0, r0, r0
3000f484:	181b0e00 	ldmneda	fp, {r9, sl, fp}
3000f488:	187e1818 	ldmneda	lr!, {r3, r4, fp, ip}^
3000f48c:	70d81818 	sbcvcs	r1, r8, r8, lsl r8
3000f490:	00000000 	andeq	r0, r0, r0
3000f494:	60301800 	eorvss	r1, r0, r0, lsl #16
3000f498:	7c0c7800 	stcvc	8, cr7, [ip], {0}
3000f49c:	76cccccc 	strvcb	ip, [ip], ip, asr #25
3000f4a0:	00000000 	andeq	r0, r0, r0
3000f4a4:	30180c00 	andccs	r0, r8, r0, lsl #24
3000f4a8:	18183800 	ldmneda	r8, {fp, ip, sp}
3000f4ac:	3c181818 	ldccc	8, cr1, [r8], {24}
3000f4b0:	00000000 	andeq	r0, r0, r0
3000f4b4:	60301800 	eorvss	r1, r0, r0, lsl #16
3000f4b8:	c6c67c00 	strgtb	r7, [r6], r0, lsl #24
3000f4bc:	7cc6c6c6 	stcvcl	6, cr12, [r6], {198}
3000f4c0:	00000000 	andeq	r0, r0, r0
3000f4c4:	60301800 	eorvss	r1, r0, r0, lsl #16
3000f4c8:	cccccc00 	stcgtl	12, cr12, [ip], {0}
3000f4cc:	76cccccc 	strvcb	ip, [ip], ip, asr #25
3000f4d0:	00000000 	andeq	r0, r0, r0
3000f4d4:	dc760000 	ldclel	0, cr0, [r6]
3000f4d8:	6666dc00 	strvsbt	sp, [r6], -r0, lsl #24
3000f4dc:	66666666 	strvsbt	r6, [r6], -r6, ror #12
3000f4e0:	00000000 	andeq	r0, r0, r0
3000f4e4:	c600dc76 	undefined
3000f4e8:	defef6e6 	cdple	6, 15, cr15, cr14, cr6, {7}
3000f4ec:	c6c6c6ce 	strgtb	ip, [r6], lr, asr #13
3000f4f0:	00000000 	andeq	r0, r0, r0
3000f4f4:	6c3c0000 	ldcvs	0, cr0, [ip]
3000f4f8:	7e003e6c 	cdpvc	14, 0, cr3, cr0, cr12, {3}
	...
3000f504:	6c380000 	ldcvs	0, cr0, [r8]
3000f508:	7c00386c 	stcvc	8, cr3, [r0], {108}
	...
3000f514:	30300000 	eorccs	r0, r0, r0
3000f518:	60303000 	eorvss	r3, r0, r0
3000f51c:	7cc6c6c0 	stcvcl	6, cr12, [r6], {192}
	...
3000f528:	c0fe0000 	rscgts	r0, lr, r0
3000f52c:	00c0c0c0 	sbceq	ip, r0, r0, asr #1
	...
3000f538:	06fe0000 	ldreqbt	r0, [lr], r0
3000f53c:	00060606 	andeq	r0, r6, r6, lsl #12
3000f540:	00000000 	andeq	r0, r0, r0
3000f544:	62e06000 	rscvs	r6, r0, #0	; 0x0
3000f548:	30186c66 	andccs	r6, r8, r6, ror #24
3000f54c:	0c86dc60 	stceq	12, cr13, [r6], {96}
3000f550:	00003e18 	andeq	r3, r0, r8, lsl lr
3000f554:	62e06000 	rscvs	r6, r0, #0	; 0x0
3000f558:	30186c66 	andccs	r6, r8, r6, ror #24
3000f55c:	3f9ace66 	swicc	0x009ace66
3000f560:	00000606 	andeq	r0, r0, r6, lsl #12
3000f564:	18180000 	ldmneda	r8, {}
3000f568:	18181800 	ldmneda	r8, {fp, ip}
3000f56c:	183c3c3c 	ldmneda	ip!, {r2, r3, r4, r5, sl, fp, ip, sp}
	...
3000f578:	d86c3600 	stmleda	ip!, {r9, sl, ip, sp}^
3000f57c:	0000366c 	andeq	r3, r0, ip, ror #12
	...
3000f588:	366cd800 	strccbt	sp, [ip], -r0, lsl #16
3000f58c:	0000d86c 	andeq	sp, r0, ip, ror #16
3000f590:	00000000 	andeq	r0, r0, r0
3000f594:	44114411 	ldrmi	r4, [r1], #-1041
3000f598:	44114411 	ldrmi	r4, [r1], #-1041
3000f59c:	44114411 	ldrmi	r4, [r1], #-1041
3000f5a0:	44114411 	ldrmi	r4, [r1], #-1041
3000f5a4:	aa55aa55 	bge	31579f00 <_end+0x155fb30>
3000f5a8:	aa55aa55 	bge	31579f04 <_end+0x155fb34>
3000f5ac:	aa55aa55 	bge	31579f08 <_end+0x155fb38>
3000f5b0:	aa55aa55 	bge	31579f0c <_end+0x155fb3c>
3000f5b4:	77dd77dd 	undefined
3000f5b8:	77dd77dd 	undefined
3000f5bc:	77dd77dd 	undefined
3000f5c0:	77dd77dd 	undefined
3000f5c4:	18181818 	ldmneda	r8, {r3, r4, fp, ip}
3000f5c8:	18181818 	ldmneda	r8, {r3, r4, fp, ip}
3000f5cc:	18181818 	ldmneda	r8, {r3, r4, fp, ip}
3000f5d0:	18181818 	ldmneda	r8, {r3, r4, fp, ip}
3000f5d4:	18181818 	ldmneda	r8, {r3, r4, fp, ip}
3000f5d8:	f8181818 	ldmnvda	r8, {r3, r4, fp, ip}
3000f5dc:	18181818 	ldmneda	r8, {r3, r4, fp, ip}
3000f5e0:	18181818 	ldmneda	r8, {r3, r4, fp, ip}
3000f5e4:	18181818 	ldmneda	r8, {r3, r4, fp, ip}
3000f5e8:	f818f818 	ldmnvda	r8, {r3, r4, fp, ip, sp, lr, pc}
3000f5ec:	18181818 	ldmneda	r8, {r3, r4, fp, ip}
3000f5f0:	18181818 	ldmneda	r8, {r3, r4, fp, ip}
3000f5f4:	36363636 	undefined
3000f5f8:	f6363636 	undefined
3000f5fc:	36363636 	undefined
3000f600:	36363636 	undefined
3000f604:	00000000 	andeq	r0, r0, r0
3000f608:	fe000000 	cdp2	0, 0, cr0, cr0, cr0, {0}
3000f60c:	36363636 	undefined
3000f610:	36363636 	undefined
3000f614:	00000000 	andeq	r0, r0, r0
3000f618:	f818f800 	ldmnvda	r8, {fp, ip, sp, lr, pc}
3000f61c:	18181818 	ldmneda	r8, {r3, r4, fp, ip}
3000f620:	18181818 	ldmneda	r8, {r3, r4, fp, ip}
3000f624:	36363636 	undefined
3000f628:	f606f636 	undefined
3000f62c:	36363636 	undefined
3000f630:	36363636 	undefined
3000f634:	36363636 	undefined
3000f638:	36363636 	undefined
3000f63c:	36363636 	undefined
3000f640:	36363636 	undefined
3000f644:	00000000 	andeq	r0, r0, r0
3000f648:	f606fe00 	strnv	pc, [r6], -r0, lsl #28
3000f64c:	36363636 	undefined
3000f650:	36363636 	undefined
3000f654:	36363636 	undefined
3000f658:	fe06f636 	mcr2	6, 0, pc, cr6, cr6, {1}
	...
3000f664:	36363636 	undefined
3000f668:	fe363636 	mrc2	6, 1, r3, cr6, cr6, {1}
	...
3000f674:	18181818 	ldmneda	r8, {r3, r4, fp, ip}
3000f678:	f818f818 	ldmnvda	r8, {r3, r4, fp, ip, sp, lr, pc}
	...
3000f688:	f8000000 	stmnvda	r0, {}
3000f68c:	18181818 	ldmneda	r8, {r3, r4, fp, ip}
3000f690:	18181818 	ldmneda	r8, {r3, r4, fp, ip}
3000f694:	18181818 	ldmneda	r8, {r3, r4, fp, ip}
3000f698:	1f181818 	swine	0x00181818
	...
3000f6a4:	18181818 	ldmneda	r8, {r3, r4, fp, ip}
3000f6a8:	ff181818 	swinv	0x00181818
	...
3000f6b8:	ff000000 	swinv	0x00000000
3000f6bc:	18181818 	ldmneda	r8, {r3, r4, fp, ip}
3000f6c0:	18181818 	ldmneda	r8, {r3, r4, fp, ip}
3000f6c4:	18181818 	ldmneda	r8, {r3, r4, fp, ip}
3000f6c8:	1f181818 	swine	0x00181818
3000f6cc:	18181818 	ldmneda	r8, {r3, r4, fp, ip}
3000f6d0:	18181818 	ldmneda	r8, {r3, r4, fp, ip}
3000f6d4:	00000000 	andeq	r0, r0, r0
3000f6d8:	ff000000 	swinv	0x00000000
	...
3000f6e4:	18181818 	ldmneda	r8, {r3, r4, fp, ip}
3000f6e8:	ff181818 	swinv	0x00181818
3000f6ec:	18181818 	ldmneda	r8, {r3, r4, fp, ip}
3000f6f0:	18181818 	ldmneda	r8, {r3, r4, fp, ip}
3000f6f4:	18181818 	ldmneda	r8, {r3, r4, fp, ip}
3000f6f8:	1f181f18 	swine	0x00181f18
3000f6fc:	18181818 	ldmneda	r8, {r3, r4, fp, ip}
3000f700:	18181818 	ldmneda	r8, {r3, r4, fp, ip}
3000f704:	36363636 	undefined
3000f708:	37363636 	undefined
3000f70c:	36363636 	undefined
3000f710:	36363636 	undefined
3000f714:	36363636 	undefined
3000f718:	3f303736 	swicc	0x00303736
	...
3000f728:	37303f00 	ldrcc	r3, [r0, -r0, lsl #30]!
3000f72c:	36363636 	undefined
3000f730:	36363636 	undefined
3000f734:	36363636 	undefined
3000f738:	ff00f736 	swinv	0x0000f736
	...
3000f748:	f700ff00 	strnv	pc, [r0, -r0, lsl #30]
3000f74c:	36363636 	undefined
3000f750:	36363636 	undefined
3000f754:	36363636 	undefined
3000f758:	37303736 	undefined
3000f75c:	36363636 	undefined
3000f760:	36363636 	undefined
3000f764:	00000000 	andeq	r0, r0, r0
3000f768:	ff00ff00 	swinv	0x0000ff00
	...
3000f774:	36363636 	undefined
3000f778:	f700f736 	smuadxnv	r0, r6, r7
3000f77c:	36363636 	undefined
3000f780:	36363636 	undefined
3000f784:	18181818 	ldmneda	r8, {r3, r4, fp, ip}
3000f788:	ff00ff18 	swinv	0x0000ff18
	...
3000f794:	36363636 	undefined
3000f798:	ff363636 	swinv	0x00363636
	...
3000f7a8:	ff00ff00 	swinv	0x0000ff00
3000f7ac:	18181818 	ldmneda	r8, {r3, r4, fp, ip}
3000f7b0:	18181818 	ldmneda	r8, {r3, r4, fp, ip}
3000f7b4:	00000000 	andeq	r0, r0, r0
3000f7b8:	ff000000 	swinv	0x00000000
3000f7bc:	36363636 	undefined
3000f7c0:	36363636 	undefined
3000f7c4:	36363636 	undefined
3000f7c8:	3f363636 	swicc	0x00363636
	...
3000f7d4:	18181818 	ldmneda	r8, {r3, r4, fp, ip}
3000f7d8:	1f181f18 	swine	0x00181f18
	...
3000f7e8:	1f181f00 	swine	0x00181f00
3000f7ec:	18181818 	ldmneda	r8, {r3, r4, fp, ip}
3000f7f0:	18181818 	ldmneda	r8, {r3, r4, fp, ip}
3000f7f4:	00000000 	andeq	r0, r0, r0
3000f7f8:	3f000000 	swicc	0x00000000
3000f7fc:	36363636 	undefined
3000f800:	36363636 	undefined
3000f804:	36363636 	undefined
3000f808:	ff363636 	swinv	0x00363636
3000f80c:	36363636 	undefined
3000f810:	36363636 	undefined
3000f814:	18181818 	ldmneda	r8, {r3, r4, fp, ip}
3000f818:	ff18ff18 	swinv	0x0018ff18
3000f81c:	18181818 	ldmneda	r8, {r3, r4, fp, ip}
3000f820:	18181818 	ldmneda	r8, {r3, r4, fp, ip}
3000f824:	18181818 	ldmneda	r8, {r3, r4, fp, ip}
3000f828:	f8181818 	ldmnvda	r8, {r3, r4, fp, ip}
	...
3000f838:	1f000000 	swine	0x00000000
3000f83c:	18181818 	ldmneda	r8, {r3, r4, fp, ip}
3000f840:	18181818 	ldmneda	r8, {r3, r4, fp, ip}
3000f844:	ffffffff 	swinv	0x00ffffff
3000f848:	ffffffff 	swinv	0x00ffffff
3000f84c:	ffffffff 	swinv	0x00ffffff
3000f850:	ffffffff 	swinv	0x00ffffff
3000f854:	00000000 	andeq	r0, r0, r0
3000f858:	ff000000 	swinv	0x00000000
3000f85c:	ffffffff 	swinv	0x00ffffff
3000f860:	ffffffff 	swinv	0x00ffffff
3000f864:	f0f0f0f0 	ldrnvsh	pc, [r0]
3000f868:	f0f0f0f0 	ldrnvsh	pc, [r0]
3000f86c:	f0f0f0f0 	ldrnvsh	pc, [r0]
3000f870:	f0f0f0f0 	ldrnvsh	pc, [r0]
3000f874:	0f0f0f0f 	swieq	0x000f0f0f
3000f878:	0f0f0f0f 	swieq	0x000f0f0f
3000f87c:	0f0f0f0f 	swieq	0x000f0f0f
3000f880:	0f0f0f0f 	swieq	0x000f0f0f
3000f884:	ffffffff 	swinv	0x00ffffff
3000f888:	00ffffff 	ldreqsh	pc, [pc, #255]	; 3000f98f <fontdata_8x16+0xefb>
	...
3000f898:	d8dc7600 	ldmleia	ip, {r9, sl, ip, sp, lr}^
3000f89c:	76dcd8d8 	undefined
3000f8a0:	00000000 	andeq	r0, r0, r0
3000f8a4:	cc780000 	ldcgtl	0, cr0, [r8]
3000f8a8:	ccd8cccc 	ldcgtl	12, cr12, [r8], {204}
3000f8ac:	ccc6c6c6 	stcgtl	6, cr12, [r6], {198}
3000f8b0:	00000000 	andeq	r0, r0, r0
3000f8b4:	c6fe0000 	ldrgtbt	r0, [lr], r0
3000f8b8:	c0c0c0c6 	sbcgt	ip, r0, r6, asr #1
3000f8bc:	c0c0c0c0 	sbcgt	ip, r0, r0, asr #1
	...
3000f8c8:	6c6cfe00 	stcvsl	14, cr15, [ip]
3000f8cc:	6c6c6c6c 	stcvsl	12, cr6, [ip], #-432
3000f8d0:	00000000 	andeq	r0, r0, r0
3000f8d4:	c6fe0000 	ldrgtbt	r0, [lr], r0
3000f8d8:	18183060 	ldmneda	r8, {r5, r6, ip, sp}
3000f8dc:	fec66030 	mcr2	0, 6, r6, cr6, cr0, {1}
	...
3000f8e8:	d8d87e00 	ldmleia	r8, {r9, sl, fp, ip, sp, lr}^
3000f8ec:	70d8d8d8 	ldrvcsb	sp, [r8], #136
	...
3000f8f8:	66666600 	strvsbt	r6, [r6], -r0, lsl #12
3000f8fc:	7c666666 	stcvcl	6, cr6, [r6], #-408
3000f900:	00c06060 	sbceq	r6, r0, r0, rrx
3000f904:	00000000 	andeq	r0, r0, r0
3000f908:	1818dc76 	ldmneda	r8, {r1, r2, r4, r5, r6, sl, fp, ip, lr, pc}
3000f90c:	18181818 	ldmneda	r8, {r3, r4, fp, ip}
3000f910:	00000000 	andeq	r0, r0, r0
3000f914:	187e0000 	ldmneda	lr!, {}^
3000f918:	6666663c 	undefined
3000f91c:	7e183c66 	cdpvc	12, 1, cr3, cr8, cr6, {3}
3000f920:	00000000 	andeq	r0, r0, r0
3000f924:	6c380000 	ldcvs	0, cr0, [r8]
3000f928:	c6fec6c6 	ldrgtbt	ip, [lr], r6, asr #13
3000f92c:	386cc6c6 	stmccda	ip!, {r1, r2, r6, r7, r9, sl, lr, pc}^
3000f930:	00000000 	andeq	r0, r0, r0
3000f934:	6c380000 	ldcvs	0, cr0, [r8]
3000f938:	6cc6c6c6 	stcvsl	6, cr12, [r6], {198}
3000f93c:	ee6c6c6c 	cdp	12, 6, cr6, cr12, cr12, {3}
3000f940:	00000000 	andeq	r0, r0, r0
3000f944:	301e0000 	andccs	r0, lr, r0
3000f948:	663e0c18 	undefined
3000f94c:	3c666666 	stcccl	6, cr6, [r6], #-408
	...
3000f958:	dbdb7e00 	blle	2f6ef160 <__code_start-0x918e60>
3000f95c:	00007edb 	ldreqd	r7, [r0], -fp
3000f960:	00000000 	andeq	r0, r0, r0
3000f964:	03000000 	tsteq	r0, #0	; 0x0
3000f968:	dbdb7e06 	blle	2f6ef188 <__code_start-0x918e38>
3000f96c:	c0607ef3 	strgtd	r7, [r0], #-227
3000f970:	00000000 	andeq	r0, r0, r0
3000f974:	301c0000 	andccs	r0, ip, r0
3000f978:	607c6060 	rsbvss	r6, ip, r0, rrx
3000f97c:	1c306060 	ldcne	0, cr6, [r0], #-384
3000f980:	00000000 	andeq	r0, r0, r0
3000f984:	7c000000 	stcvc	0, cr0, [r0], {0}
3000f988:	c6c6c6c6 	strgtb	ip, [r6], r6, asr #13
3000f98c:	c6c6c6c6 	strgtb	ip, [r6], r6, asr #13
	...
3000f998:	fe0000fe 	mcr2	0, 0, r0, cr0, cr14, {7}
3000f99c:	00fe0000 	rsceqs	r0, lr, r0
	...
3000f9a8:	187e1818 	ldmneda	lr!, {r3, r4, fp, ip}^
3000f9ac:	7e000018 	mcrvc	0, 0, r0, cr0, cr8, {0}
3000f9b0:	00000000 	andeq	r0, r0, r0
3000f9b4:	30000000 	andcc	r0, r0, r0
3000f9b8:	0c060c18 	stceq	12, cr0, [r6], {24}
3000f9bc:	7e003018 	mcrvc	0, 0, r3, cr0, cr8, {0}
3000f9c0:	00000000 	andeq	r0, r0, r0
3000f9c4:	0c000000 	stceq	0, cr0, [r0], {0}
3000f9c8:	30603018 	rsbcc	r3, r0, r8, lsl r0
3000f9cc:	7e000c18 	mcrvc	12, 0, r0, cr0, cr8, {0}
3000f9d0:	00000000 	andeq	r0, r0, r0
3000f9d4:	1b0e0000 	blne	3038f9dc <_end+0x37560c>
3000f9d8:	1818181b 	ldmneda	r8, {r0, r1, r3, r4, fp, ip}
3000f9dc:	18181818 	ldmneda	r8, {r3, r4, fp, ip}
3000f9e0:	18181818 	ldmneda	r8, {r3, r4, fp, ip}
3000f9e4:	18181818 	ldmneda	r8, {r3, r4, fp, ip}
3000f9e8:	18181818 	ldmneda	r8, {r3, r4, fp, ip}
3000f9ec:	d8d8d818 	ldmleia	r8, {r3, r4, fp, ip, lr, pc}^
3000f9f0:	00000070 	andeq	r0, r0, r0, ror r0
3000f9f4:	00000000 	andeq	r0, r0, r0
3000f9f8:	7e001800 	cdpvc	8, 0, cr1, cr0, cr0, {0}
3000f9fc:	00001800 	andeq	r1, r0, r0, lsl #16
	...
3000fa08:	00dc7600 	sbceqs	r7, ip, r0, lsl #12
3000fa0c:	0000dc76 	andeq	sp, r0, r6, ror ip
3000fa10:	00000000 	andeq	r0, r0, r0
3000fa14:	6c6c3800 	stcvsl	8, cr3, [ip]
3000fa18:	00000038 	andeq	r0, r0, r8, lsr r0
	...
3000fa28:	18000000 	stmneda	r0, {}
3000fa2c:	00000018 	andeq	r0, r0, r8, lsl r0
	...
3000fa38:	18000000 	stmneda	r0, {}
	...
3000fa44:	0c0c0f00 	stceq	15, cr0, [ip], {0}
3000fa48:	ec0c0c0c 	stc	12, cr0, [ip], {12}
3000fa4c:	1c3c6c6c 	ldcne	12, cr6, [ip], #-432
3000fa50:	00000000 	andeq	r0, r0, r0
3000fa54:	36366c00 	ldrcct	r6, [r6], -r0, lsl #24
3000fa58:	00363636 	eoreqs	r3, r6, r6, lsr r6
	...
3000fa64:	0c663c00 	stceql	12, cr3, [r6]
3000fa68:	007e3218 	rsbeqs	r3, lr, r8, lsl r2
	...
3000fa78:	7e7e7e7e 	mrcvc	14, 3, r7, cr14, cr14, {3}
3000fa7c:	007e7e7e 	rsbeqs	r7, lr, lr, ror lr
	...
3000fa94:	65726f63 	ldrvsb	r6, [r2, #-3939]!
3000fa98:	696e695f 	stmvsdb	lr!, {r0, r1, r2, r3, r4, r6, r8, fp, sp, lr}^
3000fa9c:	31312074 	teqcc	r1, r4, ror r0
3000faa0:	0a0d2031 	beq	30357b6c <_end+0x33d79c>
3000faa4:	00000000 	andeq	r0, r0, r0
3000faa8:	65726f63 	ldrvsb	r6, [r2, #-3939]!
3000faac:	696e695f 	stmvsdb	lr!, {r0, r1, r2, r3, r4, r6, r8, fp, sp, lr}^
3000fab0:	32322074 	eorccs	r2, r2, #116	; 0x74
3000fab4:	0a0d2032 	beq	30357b84 <_end+0x33d7b4>
3000fab8:	00000000 	andeq	r0, r0, r0
3000fabc:	65726f63 	ldrvsb	r6, [r2, #-3939]!
3000fac0:	696e695f 	stmvsdb	lr!, {r0, r1, r2, r3, r4, r6, r8, fp, sp, lr}^
3000fac4:	33332074 	teqcc	r3, #116	; 0x74
3000fac8:	0a0d2033 	beq	30357b9c <_end+0x33d7cc>
3000facc:	00000000 	andeq	r0, r0, r0
3000fad0:	3a6c6c61 	bcc	31b2ac5c <_end+0x1b1088c>
3000fad4:	20206425 	eorcs	r6, r0, r5, lsr #8
3000fad8:	65737520 	ldrvsb	r7, [r3, #-1312]!
3000fadc:	64253a64 	strvst	r3, [r5], #-2660
3000fae0:	66202020 	strvst	r2, [r0], -r0, lsr #32
3000fae4:	3a656572 	bcc	319690b4 <_end+0x194ece4>
3000fae8:	0a0d6425 	beq	30368b84 <_end+0x34e7b4>
3000faec:	00000000 	andeq	r0, r0, r0
3000faf0:	6f77627a 	swivs	0x0077627a
3000faf4:	65722073 	ldrvsb	r2, [r2, #-115]!
3000faf8:	746f6f62 	strvcbt	r6, [pc], #3938	; 3000fb00 <fontdata_8x16+0x106c>
3000fafc:	776f6e20 	strvcb	r6, [pc, -r0, lsr #28]!
3000fb00:	2e2e2e20 	cdpcs	14, 2, cr2, cr14, cr0, {1}
3000fb04:	00000a0d 	andeq	r0, r0, sp, lsl #20
3000fb08:	666d6f63 	strvsbt	r6, [sp], -r3, ror #30
3000fb0c:	67656c69 	strvsb	r6, [r5, -r9, ror #24]!
3000fb10:	00007465 	andeq	r7, r0, r5, ror #8
3000fb14:	00000020 	andeq	r0, r0, r0, lsr #32
3000fb18:	3d3d3d3d 	ldccc	13, cr3, [sp, #-244]!
3000fb1c:	3d3d3d3d 	ldccc	13, cr3, [sp, #-244]!
3000fb20:	66203d3d 	undefined
3000fb24:	67656c69 	strvsb	r6, [r5, -r9, ror #24]!
3000fb28:	62207465 	eorvs	r7, r0, #1694498816	; 0x65000000
3000fb2c:	6e696765 	cdpvs	7, 6, cr6, cr9, cr5, {3}
3000fb30:	616e202c 	cmnvs	lr, ip, lsr #32
3000fb34:	255b656d 	ldrcsb	r6, [fp, #-1389]
3000fb38:	202c5d73 	eorcs	r5, ip, r3, ror sp
3000fb3c:	657a6973 	ldrvsb	r6, [sl, #-2419]!
3000fb40:	5d64255b 	cfstr64pl	mvdx2, [r4, #-364]!
3000fb44:	3d3d3d20 	ldccc	13, cr3, [sp, #-128]!
3000fb48:	3d3d3d3d 	ldccc	13, cr3, [sp, #-244]!
3000fb4c:	0d3d3d3d 	ldceq	13, cr3, [sp, #-244]!
3000fb50:	0000000a 	andeq	r0, r0, sl
3000fb54:	3d3d3d3d 	ldccc	13, cr3, [sp, #-244]!
3000fb58:	3d3d3d3d 	ldccc	13, cr3, [sp, #-244]!
3000fb5c:	66203d3d 	undefined
3000fb60:	67656c69 	strvsb	r6, [r5, -r9, ror #24]!
3000fb64:	66207465 	strvst	r7, [r0], -r5, ror #8
3000fb68:	206c6961 	rsbcs	r6, ip, r1, ror #18
3000fb6c:	3d3d3d3d 	ldccc	13, cr3, [sp, #-244]!
3000fb70:	3d3d3d3d 	ldccc	13, cr3, [sp, #-244]!
3000fb74:	0a0d3d3d 	beq	3035f070 <_end+0x344ca0>
3000fb78:	00000000 	andeq	r0, r0, r0
3000fb7c:	3e2d6466 	cdpcc	4, 2, cr6, cr13, cr6, {3}
3000fb80:	656d616e 	strvsb	r6, [sp, #-366]!
3000fb84:	5d73255b 	cfldr64pl	mvdx2, [r3, #-364]!
3000fb88:	6466202c 	strvsbt	r2, [r6], #-44
3000fb8c:	616e3e2d 	cmnvs	lr, sp, lsr #28
3000fb90:	6461646e 	strvsbt	r6, [r1], #-1134
3000fb94:	255b7264 	ldrcsb	r7, [fp, #-612]
3000fb98:	202c5d64 	eorcs	r5, ip, r4, ror #26
3000fb9c:	3e2d6466 	cdpcc	4, 2, cr6, cr13, cr6, {3}
3000fba0:	657a6973 	ldrvsb	r6, [sl, #-2419]!
3000fba4:	5d64255b 	cfstr64pl	mvdx2, [r4, #-364]!
3000fba8:	00000a0d 	andeq	r0, r0, sp, lsl #20
3000fbac:	3d3d3d3d 	ldccc	13, cr3, [sp, #-244]!
3000fbb0:	3d3d3d3d 	ldccc	13, cr3, [sp, #-244]!
3000fbb4:	66203d3d 	undefined
3000fbb8:	67656c69 	strvsb	r6, [r5, -r9, ror #24]!
3000fbbc:	62207465 	eorvs	r7, r0, #1694498816	; 0x65000000
3000fbc0:	6e696765 	cdpvs	7, 6, cr6, cr9, cr5, {3}
3000fbc4:	3d3d3d20 	ldccc	13, cr3, [sp, #-128]!
3000fbc8:	3d3d3d3d 	ldccc	13, cr3, [sp, #-244]!
3000fbcc:	0d3d3d3d 	ldceq	13, cr3, [sp, #-244]!
3000fbd0:	0000000a 	andeq	r0, r0, sl
3000fbd4:	73616c66 	cmnvc	r1, #26112	; 0x6600
3000fbd8:	656c6368 	strvsb	r6, [ip, #-872]!
3000fbdc:	66207261 	strvst	r7, [r0], -r1, ror #4
3000fbe0:	73696e69 	cmnvc	r9, #1680	; 0x690
3000fbe4:	000a0d68 	andeq	r0, sl, r8, ror #26
3000fbe8:	6f626572 	swivs	0x00626572
3000fbec:	0000746f 	andeq	r7, r0, pc, ror #8
3000fbf0:	6e65706f 	cdpvs	0, 6, cr7, cr5, cr15, {3}
3000fbf4:	75626564 	strvcb	r6, [r2, #-1380]!
3000fbf8:	00000067 	andeq	r0, r0, r7, rrx
3000fbfc:	00000071 	andeq	r0, r0, r1, ror r0
3000fc00:	65657266 	strvsb	r7, [r5, #-614]!
3000fc04:	00000000 	andeq	r0, r0, r0
3000fc08:	73616c66 	cmnvc	r1, #26112	; 0x6600
3000fc0c:	656c6368 	strvsb	r6, [ip, #-872]!
3000fc10:	00007261 	andeq	r7, r0, r1, ror #4
3000fc14:	65657274 	strvsb	r7, [r5, #-628]!
3000fc18:	00000000 	andeq	r0, r0, r0
3000fc1c:	69666b6d 	stmvsdb	r6!, {r0, r2, r3, r5, r6, r8, r9, fp, sp, lr}^
3000fc20:	0000656c 	andeq	r6, r0, ip, ror #10
3000fc24:	636e7973 	cmnvs	lr, #1884160	; 0x1cc000
3000fc28:	00000000 	andeq	r0, r0, r0
3000fc2c:	0000000a 	andeq	r0, r0, sl
3000fc30:	203a7325 	eorcss	r7, sl, r5, lsr #6
3000fc34:	6d6d6f63 	stcvsl	15, cr6, [sp, #-396]!
3000fc38:	20646e61 	rsbcs	r6, r4, r1, ror #28
3000fc3c:	20746f6e 	rsbcss	r6, r4, lr, ror #30
3000fc40:	6e756f66 	cdpvs	15, 7, cr6, cr5, cr6, {3}
3000fc44:	000a0d64 	andeq	r0, sl, r4, ror #26
3000fc48:	00002023 	andeq	r2, r0, r3, lsr #32
3000fc4c:	00000a0d 	andeq	r0, r0, sp, lsl #20

3000fc50 <LeadZerosTbl.0>:
3000fc50:	06060708 	streq	r0, [r6], -r8, lsl #14
3000fc54:	05050505 	streq	r0, [r5, #-1285]
3000fc58:	04040404 	streq	r0, [r4], #-1028
3000fc5c:	04040404 	streq	r0, [r4], #-1028
3000fc60:	03030303 	tsteq	r3, #201326592	; 0xc000000
3000fc64:	03030303 	tsteq	r3, #201326592	; 0xc000000
3000fc68:	03030303 	tsteq	r3, #201326592	; 0xc000000
3000fc6c:	03030303 	tsteq	r3, #201326592	; 0xc000000
3000fc70:	02020202 	andeq	r0, r2, #536870912	; 0x20000000
3000fc74:	02020202 	andeq	r0, r2, #536870912	; 0x20000000
3000fc78:	02020202 	andeq	r0, r2, #536870912	; 0x20000000
3000fc7c:	02020202 	andeq	r0, r2, #536870912	; 0x20000000
3000fc80:	02020202 	andeq	r0, r2, #536870912	; 0x20000000
3000fc84:	02020202 	andeq	r0, r2, #536870912	; 0x20000000
3000fc88:	02020202 	andeq	r0, r2, #536870912	; 0x20000000
3000fc8c:	02020202 	andeq	r0, r2, #536870912	; 0x20000000
3000fc90:	01010101 	tsteq	r1, r1, lsl #2
3000fc94:	01010101 	tsteq	r1, r1, lsl #2
3000fc98:	01010101 	tsteq	r1, r1, lsl #2
3000fc9c:	01010101 	tsteq	r1, r1, lsl #2
3000fca0:	01010101 	tsteq	r1, r1, lsl #2
3000fca4:	01010101 	tsteq	r1, r1, lsl #2
3000fca8:	01010101 	tsteq	r1, r1, lsl #2
3000fcac:	01010101 	tsteq	r1, r1, lsl #2
3000fcb0:	01010101 	tsteq	r1, r1, lsl #2
3000fcb4:	01010101 	tsteq	r1, r1, lsl #2
3000fcb8:	01010101 	tsteq	r1, r1, lsl #2
3000fcbc:	01010101 	tsteq	r1, r1, lsl #2
3000fcc0:	01010101 	tsteq	r1, r1, lsl #2
3000fcc4:	01010101 	tsteq	r1, r1, lsl #2
3000fcc8:	01010101 	tsteq	r1, r1, lsl #2
3000fccc:	01010101 	tsteq	r1, r1, lsl #2
	...
3000fd50:	6f697250 	swivs	0x00697250
3000fd54:	20746553 	rsbcss	r6, r4, r3, asr r5
3000fd58:	6c696166 	stfvse	f6, [r9], #-408
3000fd5c:	6375202c 	cmnvs	r5, #44	; 0x2c
3000fd60:	6f697250 	swivs	0x00697250
3000fd64:	5d64255b 	cfstr64pl	mvdx2, [r4, #-364]!
3000fd68:	00000000 	andeq	r0, r0, r0
3000fd6c:	61657263 	cmnvs	r5, r3, ror #4
3000fd70:	61745f74 	cmnvs	r4, r4, ror pc
3000fd74:	31206b73 	teqcc	r0, r3, ror fp
3000fd78:	0d203131 	stfeqs	f3, [r0, #-196]!
3000fd7c:	0000000a 	andeq	r0, r0, sl
3000fd80:	2077656e 	rsbcss	r6, r7, lr, ror #10
3000fd84:	6b736174 	blvs	31ce835c <_end+0x1ccdf8c>
3000fd88:	7274635f 	rsbvcs	r6, r4, #2080374785	; 0x7c000001
3000fd8c:	6166206c 	cmnvs	r6, ip, rrx
3000fd90:	0a0d6c69 	beq	3036af3c <_end+0x350b6c>
3000fd94:	00000000 	andeq	r0, r0, r0
3000fd98:	61657263 	cmnvs	r5, r3, ror #4
3000fd9c:	61745f74 	cmnvs	r4, r4, ror pc
3000fda0:	32206b73 	eorcc	r6, r0, #117760	; 0x1cc00
3000fda4:	0d203232 	sfmeq	f3, 4, [r0, #-200]!
3000fda8:	0000000a 	andeq	r0, r0, sl
3000fdac:	2077656e 	rsbcss	r6, r7, lr, ror #10
3000fdb0:	63617473 	cmnvs	r1, #1929379840	; 0x73000000
3000fdb4:	6166206b 	cmnvs	r6, fp, rrx
3000fdb8:	0a0d6c69 	beq	3036af64 <_end+0x350b94>
3000fdbc:	00000000 	andeq	r0, r0, r0
3000fdc0:	61657263 	cmnvs	r5, r3, ror #4
3000fdc4:	61745f74 	cmnvs	r4, r4, ror pc
3000fdc8:	33206b73 	teqcc	r0, #117760	; 0x1cc00
3000fdcc:	0d203333 	stceq	3, cr3, [r0, #-204]!
3000fdd0:	0000000a 	andeq	r0, r0, sl
3000fdd4:	2077656e 	rsbcss	r6, r7, lr, ror #10
3000fdd8:	6b736174 	blvs	31ce83b0 <_end+0x1ccdfe0>
3000fddc:	7274635f 	rsbvcs	r6, r4, #2080374785	; 0x7c000001
3000fde0:	6174206c 	cmnvs	r4, ip, rrx
3000fde4:	635f6b73 	cmpvs	pc, #117760	; 0x1cc00
3000fde8:	2d6c7274 	sfmcs	f7, 2, [ip, #-464]!
3000fdec:	6174733e 	cmnvs	r4, lr, lsr r3
3000fdf0:	625f6b63 	subvss	r6, pc, #101376	; 0x18c00
3000fdf4:	5b657361 	blpl	3196cb80 <_end+0x19527b0>
3000fdf8:	205d6425 	subcss	r6, sp, r5, lsr #8
3000fdfc:	5b706f74 	blpl	31c2bbd4 <_end+0x1c11804>
3000fe00:	0d5d6425 	cfldrdeq	mvd6, [sp, #-148]
3000fe04:	0000000a 	andeq	r0, r0, sl
3000fe08:	6b736174 	blvs	31ce83e0 <_end+0x1cce010>
3000fe0c:	2520635f 	strcs	r6, [r0, #-863]!
3000fe10:	74202064 	strvct	r2, [r0], #-100
3000fe14:	5f6b7361 	swipl	0x006b7361
3000fe18:	6c727463 	cfldrdvs	mvd7, [r2], #-396
3000fe1c:	5d64255b 	cfstr64pl	mvdx2, [r4, #-364]!
3000fe20:	64255b20 	strvst	r5, [r5], #-2848
3000fe24:	6520205d 	strvs	r2, [r0, #-93]!
3000fe28:	21746978 	cmncs	r4, r8, ror r9
3000fe2c:	21212121 	teqcs	r1, r1, lsr #2
3000fe30:	000a0d20 	andeq	r0, sl, r0, lsr #26
3000fe34:	31313131 	teqcc	r1, r1, lsr r1
3000fe38:	31313131 	teqcc	r1, r1, lsr r1
3000fe3c:	65313131 	ldrvs	r3, [r1, #-305]!
3000fe40:	21746978 	cmncs	r4, r8, ror r9
3000fe44:	21212121 	teqcs	r1, r1, lsr #2
3000fe48:	000a0d20 	andeq	r0, sl, r0, lsr #26
3000fe4c:	3a64255b 	bcc	319193c0 <_end+0x18feff0>
3000fe50:	205d6425 	subcss	r6, sp, r5, lsr #8
3000fe54:	00000000 	andeq	r0, r0, r0
3000fe58:	00000a0d 	andeq	r0, r0, sp, lsl #20
3000fe5c:	656c6966 	strvsb	r6, [ip, #-2406]!
3000fe60:	74737973 	ldrvcbt	r7, [r3], #-2419
3000fe64:	74206d65 	strvct	r6, [r0], #-3429
3000fe68:	3a656572 	bcc	31969438 <_end+0x194f068>
3000fe6c:	000a0d20 	andeq	r0, sl, r0, lsr #26
3000fe70:	656d616e 	strvsb	r6, [sp, #-366]!
3000fe74:	5d73255b 	cfldr64pl	mvdx2, [r3, #-364]!
3000fe78:	7a697320 	bvc	31a6cb00 <_end+0x1a52730>
3000fe7c:	64255b65 	strvst	r5, [r5], #-2917
3000fe80:	616e205d 	qdsubvs	r2, sp, lr
3000fe84:	6461646e 	strvsbt	r6, [r1], #-1134
3000fe88:	255b7264 	ldrcsb	r7, [fp, #-612]
3000fe8c:	0d205d64 	stceq	13, cr5, [r0, #-400]!
3000fe90:	0000000a 	andeq	r0, r0, sl
3000fe94:	2d2d2d2d 	stccs	13, cr2, [sp, #-180]!
3000fe98:	7a69732d 	bvc	31a6cb54 <_end+0x1a52784>
3000fe9c:	28666f65 	stmcsda	r6!, {r0, r2, r5, r6, r8, r9, sl, fp, sp, lr}^
3000fea0:	69665f67 	stmvsdb	r6!, {r0, r1, r2, r5, r6, r8, r9, sl, fp, ip, lr}^
3000fea4:	7973656c 	ldmvcdb	r3!, {r2, r3, r5, r6, r8, sl, sp, lr}^
3000fea8:	6d657473 	cfstrdvs	mvd7, [r5, #-460]!
3000feac:	7274635f 	rsbvcs	r6, r4, #2080374785	; 0x7c000001
3000feb0:	5b20296c 	blpl	3081a468 <_end+0x800098>
3000feb4:	0d5d6425 	cfldrdeq	mvd6, [sp, #-148]
3000feb8:	0000000a 	andeq	r0, r0, sl
3000febc:	656c6966 	strvsb	r6, [ip, #-2406]!
3000fec0:	74737973 	ldrvcbt	r7, [r3], #-2419
3000fec4:	665f6d65 	ldrvsb	r6, [pc], -r5, ror #26
3000fec8:	5f646e69 	swipl	0x00646e69
3000fecc:	74737973 	ldrvcbt	r7, [r3], #-2419
3000fed0:	20656572 	rsbcs	r6, r5, r2, ror r5
3000fed4:	6c696166 	stfvse	f6, [r9], #-408
3000fed8:	00000a0d 	andeq	r0, r0, sp, lsl #20
3000fedc:	656c6966 	strvsb	r6, [ip, #-2406]!
3000fee0:	74737973 	ldrvcbt	r7, [r3], #-2419
3000fee4:	665f6d65 	ldrvsb	r6, [pc], -r5, ror #26
3000fee8:	5f646e69 	swipl	0x00646e69
3000feec:	646e616e 	strvsbt	r6, [lr], #-366
3000fef0:	2070616d 	rsbcss	r6, r0, sp, ror #2
3000fef4:	6c696166 	stfvse	f6, [r9], #-408
3000fef8:	00000a0d 	andeq	r0, r0, sp, lsl #20
3000fefc:	74697277 	strvcbt	r7, [r9], #-631
3000ff00:	69665f65 	stmvsdb	r6!, {r0, r2, r5, r6, r8, r9, sl, fp, ip, lr}^
3000ff04:	6220656c 	eorvs	r6, r0, #452984832	; 0x1b000000
3000ff08:	6e696765 	cdpvs	7, 6, cr6, cr9, cr5, {3}
3000ff0c:	6466202c 	strvsbt	r2, [r6], #-44
3000ff10:	616e3e2d 	cmnvs	lr, sp, lsr #28
3000ff14:	6461646e 	strvsbt	r6, [r1], #-1134
3000ff18:	255b7264 	ldrcsb	r7, [fp, #-612]
3000ff1c:	202c5d64 	eorcs	r5, ip, r4, ror #26
3000ff20:	74697277 	strvcbt	r7, [r9], #-631
3000ff24:	7a697365 	bvc	31a6ccc0 <_end+0x1a528f0>
3000ff28:	64255b65 	strvst	r5, [r5], #-2917
3000ff2c:	77202c5d 	undefined
3000ff30:	65746972 	ldrvsb	r6, [r4, #-2418]!
3000ff34:	7366666f 	cmnvc	r6, #116391936	; 0x6f00000
3000ff38:	255b7465 	ldrcsb	r7, [fp, #-1125]
3000ff3c:	0a0d5d64 	beq	303674d4 <_end+0x34d104>
3000ff40:	00000000 	andeq	r0, r0, r0
3000ff44:	656d616e 	strvsb	r6, [sp, #-366]!
3000ff48:	7325203a 	teqvc	r5, #58	; 0x3a
3000ff4c:	7a697320 	bvc	31a6cbd4 <_end+0x1a52804>
3000ff50:	25203a65 	strcs	r3, [r0, #-2661]!
3000ff54:	000a0d64 	andeq	r0, sl, r4, ror #26
Disassembly of section .data:

3000ff58 <cur_task>:
3000ff58:	ffffffff 	swinv	0x00ffffff

3000ff5c <lcd_4_3_params>:
3000ff5c:	3000e804 	andcc	lr, r0, r4, lsl #16
	...
3000ff70:	00000001 	andeq	r0, r0, r1
3000ff74:	00000001 	andeq	r0, r0, r1
3000ff78:	0000000a 	andeq	r0, r0, sl
3000ff7c:	00000002 	andeq	r0, r0, r2
3000ff80:	00000002 	andeq	r0, r0, r2
3000ff84:	00000029 	andeq	r0, r0, r9, lsr #32
3000ff88:	00000002 	andeq	r0, r0, r2
3000ff8c:	00000002 	andeq	r0, r0, r2
3000ff90:	00000009 	andeq	r0, r0, r9
3000ff94:	000001e0 	andeq	r0, r0, r0, ror #3
3000ff98:	00000110 	andeq	r0, r0, r0, lsl r1
3000ff9c:	00000010 	andeq	r0, r0, r0, lsl r0
3000ffa0:	33c00000 	biccc	r0, r0, #0	; 0x0

3000ffa4 <s3c2440_lcd_controller>:
3000ffa4:	3000ea8c 	andcc	lr, r0, ip, lsl #21
3000ffa8:	3000a654 	andcc	sl, r0, r4, asr r6
3000ffac:	3000a9c8 	andcc	sl, r0, r8, asr #19
3000ffb0:	3000aa24 	andcc	sl, r0, r4, lsr #20
3000ffb4:	3000aa80 	andcc	sl, r0, r0, lsl #21

3000ffb8 <hex_tab>:
3000ffb8:	33323130 	teqcc	r2, #12	; 0xc
3000ffbc:	37363534 	undefined
3000ffc0:	62613938 	rsbvs	r3, r1, #917504	; 0xe0000
3000ffc4:	66656463 	strvsbt	r6, [r5], -r3, ror #8

3000ffc8 <cmdtable>:
3000ffc8:	3000fbe8 	andcc	pc, r0, r8, ror #23
3000ffcc:	3000bcb8 	strcch	fp, [r0], -r8
3000ffd0:	3000fbf0 	strccd	pc, [r0], -r0
3000ffd4:	3000bc00 	andcc	fp, r0, r0, lsl #24
3000ffd8:	3000fbfc 	strccd	pc, [r0], -ip
3000ffdc:	3000bc20 	andcc	fp, r0, r0, lsr #24
3000ffe0:	3000fc00 	andcc	pc, r0, r0, lsl #24
3000ffe4:	3000bc40 	andcc	fp, r0, r0, asr #24
3000ffe8:	3000fb08 	andcc	pc, r0, r8, lsl #22
3000ffec:	3000be3c 	andcc	fp, r0, ip, lsr lr
3000fff0:	3000fc08 	andcc	pc, r0, r8, lsl #24
3000fff4:	3000bfec 	andcc	fp, r0, ip, ror #31
3000fff8:	3000fc14 	andcc	pc, r0, r4, lsl ip
3000fffc:	3000c014 	andcc	ip, r0, r4, lsl r0
30010000:	3000fc1c 	andcc	pc, r0, ip, lsl ip
30010004:	3000c030 	andcc	ip, r0, r0, lsr r0
30010008:	3000fc24 	andcc	pc, r0, r4, lsr #24
3001000c:	3000c05c 	andcc	ip, r0, ip, asr r0
30010010:	3000fc2c 	andcc	pc, r0, ip, lsr #24
30010014:	3000bbe8 	andcc	fp, r0, r8, ror #23
Disassembly of section .bss:

30010018 <h.0>:
30010018:	00000000 	andeq	r0, r0, r0

3001001c <bss_end>:
3001001c:	00000000 	andeq	r0, r0, r0

30010020 <Criticalcnt>:
30010020:	00000000 	andeq	r0, r0, r0

30010024 <fb_base>:
30010024:	00000000 	andeq	r0, r0, r0

30010028 <xres>:
30010028:	00000000 	andeq	r0, r0, r0

3001002c <yres>:
3001002c:	00000000 	andeq	r0, r0, r0

30010030 <bpp>:
30010030:	00000000 	andeq	r0, r0, r0

30010034 <p_array_lcd>:
	...

3001005c <g_p_lcd_selected>:
3001005c:	00000000 	andeq	r0, r0, r0

30010060 <p_array_lcd_controller>:
	...

30010088 <g_p_lcd_controller_selected>:
30010088:	00000000 	andeq	r0, r0, r0

3001008c <fb_base>:
3001008c:	00000000 	andeq	r0, r0, r0

30010090 <xres>:
30010090:	00000000 	andeq	r0, r0, r0

30010094 <yres>:
30010094:	00000000 	andeq	r0, r0, r0

30010098 <bpp>:
30010098:	00000000 	andeq	r0, r0, r0

3001009c <g_opendebug>:
3001009c:	00000000 	andeq	r0, r0, r0

300100a0 <init.0>:
300100a0:	00000000 	andeq	r0, r0, r0

300100a4 <heaphead>:
	...

300100ac <gpCurTaskCtrl>:
300100ac:	00000000 	andeq	r0, r0, r0

300100b0 <SysTickTime>:
300100b0:	00000000 	andeq	r0, r0, r0

300100b4 <TickList>:
	...

300100dc <sleepwait>:
300100dc:	00000000 	andeq	r0, r0, r0

300100e0 <g_filesystem_ctrl>:
	...

3001a12c <irq_array>:
	...

3001a1ac <gRdyList>:
	...

3001a32c <task_count>:
3001a32c:	00000000 	andeq	r0, r0, r0

3001a330 <task_stacks>:
	...

3001a3b0 <gPrioTbl>:
	...
Disassembly of section .comment:

00000000 <.comment>:
   0:	43434700 	cmpmi	r3, #0	; 0x0
   4:	4728203a 	undefined
   8:	2029554e 	eorcs	r5, r9, lr, asr #10
   c:	2e342e33 	mrccs	14, 1, r2, cr4, cr3, {1}
  10:	47000035 	smladxmi	r0, r5, r0, r0
  14:	203a4343 	eorcss	r4, sl, r3, asr #6
  18:	554e4728 	strplb	r4, [lr, #-1832]
  1c:	2e332029 	cdpcs	0, 3, cr2, cr3, cr9, {1}
  20:	00352e34 	eoreqs	r2, r5, r4, lsr lr
  24:	43434700 	cmpmi	r3, #0	; 0x0
  28:	4728203a 	undefined
  2c:	2029554e 	eorcs	r5, r9, lr, asr #10
  30:	2e342e33 	mrccs	14, 1, r2, cr4, cr3, {1}
  34:	47000035 	smladxmi	r0, r5, r0, r0
  38:	203a4343 	eorcss	r4, sl, r3, asr #6
  3c:	554e4728 	strplb	r4, [lr, #-1832]
  40:	2e332029 	cdpcs	0, 3, cr2, cr3, cr9, {1}
  44:	00352e34 	eoreqs	r2, r5, r4, lsr lr
  48:	43434700 	cmpmi	r3, #0	; 0x0
  4c:	4728203a 	undefined
  50:	2029554e 	eorcs	r5, r9, lr, asr #10
  54:	2e342e33 	mrccs	14, 1, r2, cr4, cr3, {1}
  58:	47000035 	smladxmi	r0, r5, r0, r0
  5c:	203a4343 	eorcss	r4, sl, r3, asr #6
  60:	554e4728 	strplb	r4, [lr, #-1832]
  64:	2e332029 	cdpcs	0, 3, cr2, cr3, cr9, {1}
  68:	00352e34 	eoreqs	r2, r5, r4, lsr lr
  6c:	43434700 	cmpmi	r3, #0	; 0x0
  70:	4728203a 	undefined
  74:	2029554e 	eorcs	r5, r9, lr, asr #10
  78:	2e342e33 	mrccs	14, 1, r2, cr4, cr3, {1}
  7c:	47000035 	smladxmi	r0, r5, r0, r0
  80:	203a4343 	eorcss	r4, sl, r3, asr #6
  84:	554e4728 	strplb	r4, [lr, #-1832]
  88:	2e332029 	cdpcs	0, 3, cr2, cr3, cr9, {1}
  8c:	00352e34 	eoreqs	r2, r5, r4, lsr lr
  90:	43434700 	cmpmi	r3, #0	; 0x0
  94:	4728203a 	undefined
  98:	2029554e 	eorcs	r5, r9, lr, asr #10
  9c:	2e342e33 	mrccs	14, 1, r2, cr4, cr3, {1}
  a0:	47000035 	smladxmi	r0, r5, r0, r0
  a4:	203a4343 	eorcss	r4, sl, r3, asr #6
  a8:	554e4728 	strplb	r4, [lr, #-1832]
  ac:	2e332029 	cdpcs	0, 3, cr2, cr3, cr9, {1}
  b0:	00352e34 	eoreqs	r2, r5, r4, lsr lr
  b4:	43434700 	cmpmi	r3, #0	; 0x0
  b8:	4728203a 	undefined
  bc:	2029554e 	eorcs	r5, r9, lr, asr #10
  c0:	2e342e33 	mrccs	14, 1, r2, cr4, cr3, {1}
  c4:	47000035 	smladxmi	r0, r5, r0, r0
  c8:	203a4343 	eorcss	r4, sl, r3, asr #6
  cc:	554e4728 	strplb	r4, [lr, #-1832]
  d0:	2e332029 	cdpcs	0, 3, cr2, cr3, cr9, {1}
  d4:	00352e34 	eoreqs	r2, r5, r4, lsr lr
  d8:	43434700 	cmpmi	r3, #0	; 0x0
  dc:	4728203a 	undefined
  e0:	2029554e 	eorcs	r5, r9, lr, asr #10
  e4:	2e342e33 	mrccs	14, 1, r2, cr4, cr3, {1}
  e8:	47000035 	smladxmi	r0, r5, r0, r0
  ec:	203a4343 	eorcss	r4, sl, r3, asr #6
  f0:	554e4728 	strplb	r4, [lr, #-1832]
  f4:	2e332029 	cdpcs	0, 3, cr2, cr3, cr9, {1}
  f8:	00352e34 	eoreqs	r2, r5, r4, lsr lr
  fc:	43434700 	cmpmi	r3, #0	; 0x0
 100:	4728203a 	undefined
 104:	2029554e 	eorcs	r5, r9, lr, asr #10
 108:	2e342e33 	mrccs	14, 1, r2, cr4, cr3, {1}
 10c:	47000035 	smladxmi	r0, r5, r0, r0
 110:	203a4343 	eorcss	r4, sl, r3, asr #6
 114:	554e4728 	strplb	r4, [lr, #-1832]
 118:	2e332029 	cdpcs	0, 3, cr2, cr3, cr9, {1}
 11c:	00352e34 	eoreqs	r2, r5, r4, lsr lr
 120:	43434700 	cmpmi	r3, #0	; 0x0
 124:	4728203a 	undefined
 128:	2029554e 	eorcs	r5, r9, lr, asr #10
 12c:	2e342e33 	mrccs	14, 1, r2, cr4, cr3, {1}
 130:	47000035 	smladxmi	r0, r5, r0, r0
 134:	203a4343 	eorcss	r4, sl, r3, asr #6
 138:	554e4728 	strplb	r4, [lr, #-1832]
 13c:	2e332029 	cdpcs	0, 3, cr2, cr3, cr9, {1}
 140:	00352e34 	eoreqs	r2, r5, r4, lsr lr
 144:	43434700 	cmpmi	r3, #0	; 0x0
 148:	4728203a 	undefined
 14c:	2029554e 	eorcs	r5, r9, lr, asr #10
 150:	2e342e33 	mrccs	14, 1, r2, cr4, cr3, {1}
 154:	47000035 	smladxmi	r0, r5, r0, r0
 158:	203a4343 	eorcss	r4, sl, r3, asr #6
 15c:	554e4728 	strplb	r4, [lr, #-1832]
 160:	2e332029 	cdpcs	0, 3, cr2, cr3, cr9, {1}
 164:	00352e34 	eoreqs	r2, r5, r4, lsr lr
 168:	43434700 	cmpmi	r3, #0	; 0x0
 16c:	4728203a 	undefined
 170:	2029554e 	eorcs	r5, r9, lr, asr #10
 174:	2e342e33 	mrccs	14, 1, r2, cr4, cr3, {1}
 178:	47000035 	smladxmi	r0, r5, r0, r0
 17c:	203a4343 	eorcss	r4, sl, r3, asr #6
 180:	554e4728 	strplb	r4, [lr, #-1832]
 184:	2e332029 	cdpcs	0, 3, cr2, cr3, cr9, {1}
 188:	00352e34 	eoreqs	r2, r5, r4, lsr lr
 18c:	43434700 	cmpmi	r3, #0	; 0x0
 190:	4728203a 	undefined
 194:	2029554e 	eorcs	r5, r9, lr, asr #10
 198:	2e342e33 	mrccs	14, 1, r2, cr4, cr3, {1}
 19c:	47000035 	smladxmi	r0, r5, r0, r0
 1a0:	203a4343 	eorcss	r4, sl, r3, asr #6
 1a4:	554e4728 	strplb	r4, [lr, #-1832]
 1a8:	2e332029 	cdpcs	0, 3, cr2, cr3, cr9, {1}
 1ac:	00352e34 	eoreqs	r2, r5, r4, lsr lr
 1b0:	43434700 	cmpmi	r3, #0	; 0x0
 1b4:	4728203a 	undefined
 1b8:	2029554e 	eorcs	r5, r9, lr, asr #10
 1bc:	2e342e33 	mrccs	14, 1, r2, cr4, cr3, {1}
 1c0:	47000035 	smladxmi	r0, r5, r0, r0
 1c4:	203a4343 	eorcss	r4, sl, r3, asr #6
 1c8:	554e4728 	strplb	r4, [lr, #-1832]
 1cc:	2e332029 	cdpcs	0, 3, cr2, cr3, cr9, {1}
 1d0:	00352e34 	eoreqs	r2, r5, r4, lsr lr
Disassembly of section .debug_aranges:

00000000 <.debug_aranges>:
   0:	0000001c 	andeq	r0, r0, ip, lsl r0
   4:	00000002 	andeq	r0, r0, r2
   8:	00040000 	andeq	r0, r4, r0
   c:	00000000 	andeq	r0, r0, r0
  10:	3000db60 	andcc	sp, r0, r0, ror #22
  14:	00000388 	andeq	r0, r0, r8, lsl #7
	...
  20:	0000001c 	andeq	r0, r0, ip, lsl r0
  24:	01000002 	tsteq	r0, r2
  28:	00040000 	andeq	r0, r4, r0
  2c:	00000000 	andeq	r0, r0, r0
  30:	3000dee8 	andcc	sp, r0, r8, ror #29
  34:	00000080 	andeq	r0, r0, r0, lsl #1
	...
  40:	0000001c 	andeq	r0, r0, ip, lsl r0
  44:	02000002 	andeq	r0, r0, #2	; 0x2
  48:	00040000 	andeq	r0, r4, r0
  4c:	00000000 	andeq	r0, r0, r0
  50:	3000df68 	andcc	sp, r0, r8, ror #30
  54:	00000218 	andeq	r0, r0, r8, lsl r2
	...
  60:	0000001c 	andeq	r0, r0, ip, lsl r0
  64:	03000002 	tsteq	r0, #2	; 0x2
  68:	00040000 	andeq	r0, r4, r0
  6c:	00000000 	andeq	r0, r0, r0
  70:	3000e180 	andcc	lr, r0, r0, lsl #3
  74:	0000035c 	andeq	r0, r0, ip, asr r3
	...
Disassembly of section .debug_info:

00000000 <.debug_info>:
   0:	000000fc 	streqd	r0, [r0], -ip
   4:	00000002 	andeq	r0, r0, r2
   8:	01040000 	tsteq	r4, r0
   c:	00000000 	andeq	r0, r0, r0
  10:	3000db60 	andcc	sp, r0, r0, ror #22
  14:	3000dee8 	andcc	sp, r0, r8, ror #29
  18:	726f772f 	rsbvc	r7, pc, #12320768	; 0xbc0000
  1c:	6f742f6b 	swivs	0x00742f6b
  20:	2f736c6f 	swics	0x00736c6f
  24:	61657263 	cmnvs	r5, r3, ror #4
  28:	635f6574 	cmpvs	pc, #486539264	; 0x1d000000
  2c:	73736f72 	cmnvc	r3, #456	; 0x1c8
  30:	6c6f6f74 	stcvsl	15, cr6, [pc], #-464
  34:	72632f73 	rsbvc	r2, r3, #460	; 0x1cc
  38:	7473736f 	ldrvcbt	r7, [r3], #-879
  3c:	2d6c6f6f 	stccsl	15, cr6, [ip, #-444]!
  40:	33342e30 	teqcc	r4, #768	; 0x300
  44:	6975622f 	ldmvsdb	r5!, {r0, r1, r2, r3, r5, r9, sp, lr}^
  48:	612f646c 	teqvs	pc, ip, ror #8
  4c:	6c2d6d72 	stcvs	13, cr6, [sp], #-456
  50:	78756e69 	ldmvcda	r5!, {r0, r3, r5, r6, r9, sl, fp, sp, lr}^
  54:	6363672f 	cmnvs	r3, #12320768	; 0xbc0000
  58:	342e332d 	strcct	r3, [lr], #-813
  5c:	672d352e 	strvs	r3, [sp, -lr, lsr #10]!
  60:	6362696c 	cmnvs	r2, #1769472	; 0x1b0000
  64:	332e322d 	teqcc	lr, #-805306366	; 0xd0000002
  68:	672f362e 	strvs	r3, [pc, -lr, lsr #12]!
  6c:	332d6363 	teqcc	sp, #-1946157055	; 0x8c000001
  70:	352e342e 	strcc	r3, [lr, #-1070]!
  74:	6363672f 	cmnvs	r3, #12320768	; 0xbc0000
  78:	6e6f632f 	cdpvs	3, 6, cr6, cr15, cr15, {1}
  7c:	2f676966 	swics	0x00676966
  80:	2f6d7261 	swics	0x006d7261
  84:	65656569 	strvsb	r6, [r5, #-1385]!
  88:	2d343537 	cfldr32cs	mvfx3, [r4, #-220]!
  8c:	532e6664 	teqpl	lr, #104857600	; 0x6400000
  90:	6f772f00 	swivs	0x00772f00
  94:	742f6b72 	strvct	r6, [pc], #2930	; 9c <__code_start-0x30007f24>
  98:	736c6f6f 	cmnvc	ip, #444	; 0x1bc
  9c:	6572632f 	ldrvsb	r6, [r2, #-815]!
  a0:	5f657461 	swipl	0x00657461
  a4:	736f7263 	cmnvc	pc, #805306374	; 0x30000006
  a8:	6f6f7473 	swivs	0x006f7473
  ac:	632f736c 	teqvs	pc, #-1342177279	; 0xb0000001
  b0:	73736f72 	cmnvc	r3, #456	; 0x1c8
  b4:	6c6f6f74 	stcvsl	15, cr6, [pc], #-464
  b8:	342e302d 	strcct	r3, [lr], #-45
  bc:	75622f33 	strvcb	r2, [r2, #-3891]!
  c0:	2f646c69 	swics	0x00646c69
  c4:	2d6d7261 	sfmcs	f7, 2, [sp, #-388]!
  c8:	756e696c 	strvcb	r6, [lr, #-2412]!
  cc:	63672f78 	cmnvs	r7, #480	; 0x1e0
  d0:	2e332d63 	cdpcs	13, 3, cr2, cr3, cr3, {3}
  d4:	2d352e34 	ldccs	14, cr2, [r5, #-208]!
  d8:	62696c67 	rsbvs	r6, r9, #26368	; 0x6700
  dc:	2e322d63 	cdpcs	13, 3, cr2, cr2, cr3, {3}
  e0:	2f362e33 	swics	0x00362e33
  e4:	6c697562 	cfstr64vs	mvdx7, [r9], #-392
  e8:	63672d64 	cmnvs	r7, #6400	; 0x1900
  ec:	63672f63 	cmnvs	r7, #396	; 0x18c
  f0:	4e470063 	cdpmi	0, 4, cr0, cr7, cr3, {3}
  f4:	53412055 	cmppl	r1, #85	; 0x55
  f8:	312e3220 	teqcc	lr, r0, lsr #4
  fc:	80010035 	andhi	r0, r1, r5, lsr r0
 100:	000000fc 	streqd	r0, [r0], -ip
 104:	00140002 	andeqs	r0, r4, r2
 108:	01040000 	tsteq	r4, r0
 10c:	000001fe 	streqd	r0, [r0], -lr
 110:	3000dee8 	andcc	sp, r0, r8, ror #29
 114:	3000df68 	andcc	sp, r0, r8, ror #30
 118:	726f772f 	rsbvc	r7, pc, #12320768	; 0xbc0000
 11c:	6f742f6b 	swivs	0x00742f6b
 120:	2f736c6f 	swics	0x00736c6f
 124:	61657263 	cmnvs	r5, r3, ror #4
 128:	635f6574 	cmpvs	pc, #486539264	; 0x1d000000
 12c:	73736f72 	cmnvc	r3, #456	; 0x1c8
 130:	6c6f6f74 	stcvsl	15, cr6, [pc], #-464
 134:	72632f73 	rsbvc	r2, r3, #460	; 0x1cc
 138:	7473736f 	ldrvcbt	r7, [r3], #-879
 13c:	2d6c6f6f 	stccsl	15, cr6, [ip, #-444]!
 140:	33342e30 	teqcc	r4, #768	; 0x300
 144:	6975622f 	ldmvsdb	r5!, {r0, r1, r2, r3, r5, r9, sp, lr}^
 148:	612f646c 	teqvs	pc, ip, ror #8
 14c:	6c2d6d72 	stcvs	13, cr6, [sp], #-456
 150:	78756e69 	ldmvcda	r5!, {r0, r3, r5, r6, r9, sl, fp, sp, lr}^
 154:	6363672f 	cmnvs	r3, #12320768	; 0xbc0000
 158:	342e332d 	strcct	r3, [lr], #-813
 15c:	672d352e 	strvs	r3, [sp, -lr, lsr #10]!
 160:	6362696c 	cmnvs	r2, #1769472	; 0x1b0000
 164:	332e322d 	teqcc	lr, #-805306366	; 0xd0000002
 168:	672f362e 	strvs	r3, [pc, -lr, lsr #12]!
 16c:	332d6363 	teqcc	sp, #-1946157055	; 0x8c000001
 170:	352e342e 	strcc	r3, [lr, #-1070]!
 174:	6363672f 	cmnvs	r3, #12320768	; 0xbc0000
 178:	6e6f632f 	cdpvs	3, 6, cr6, cr15, cr15, {1}
 17c:	2f676966 	swics	0x00676966
 180:	2f6d7261 	swics	0x006d7261
 184:	65656569 	strvsb	r6, [r5, #-1385]!
 188:	2d343537 	cfldr32cs	mvfx3, [r4, #-220]!
 18c:	532e6664 	teqpl	lr, #104857600	; 0x6400000
 190:	6f772f00 	swivs	0x00772f00
 194:	742f6b72 	strvct	r6, [pc], #2930	; 19c <__code_start-0x30007e24>
 198:	736c6f6f 	cmnvc	ip, #444	; 0x1bc
 19c:	6572632f 	ldrvsb	r6, [r2, #-815]!
 1a0:	5f657461 	swipl	0x00657461
 1a4:	736f7263 	cmnvc	pc, #805306374	; 0x30000006
 1a8:	6f6f7473 	swivs	0x006f7473
 1ac:	632f736c 	teqvs	pc, #-1342177279	; 0xb0000001
 1b0:	73736f72 	cmnvc	r3, #456	; 0x1c8
 1b4:	6c6f6f74 	stcvsl	15, cr6, [pc], #-464
 1b8:	342e302d 	strcct	r3, [lr], #-45
 1bc:	75622f33 	strvcb	r2, [r2, #-3891]!
 1c0:	2f646c69 	swics	0x00646c69
 1c4:	2d6d7261 	sfmcs	f7, 2, [sp, #-388]!
 1c8:	756e696c 	strvcb	r6, [lr, #-2412]!
 1cc:	63672f78 	cmnvs	r7, #480	; 0x1e0
 1d0:	2e332d63 	cdpcs	13, 3, cr2, cr3, cr3, {3}
 1d4:	2d352e34 	ldccs	14, cr2, [r5, #-208]!
 1d8:	62696c67 	rsbvs	r6, r9, #26368	; 0x6700
 1dc:	2e322d63 	cdpcs	13, 3, cr2, cr2, cr3, {3}
 1e0:	2f362e33 	swics	0x00362e33
 1e4:	6c697562 	cfstr64vs	mvdx7, [r9], #-392
 1e8:	63672d64 	cmnvs	r7, #6400	; 0x1900
 1ec:	63672f63 	cmnvs	r7, #396	; 0x18c
 1f0:	4e470063 	cdpmi	0, 4, cr0, cr7, cr3, {3}
 1f4:	53412055 	cmppl	r1, #85	; 0x55
 1f8:	312e3220 	teqcc	lr, r0, lsr #4
 1fc:	80010035 	andhi	r0, r1, r5, lsr r0
 200:	000000fc 	streqd	r0, [r0], -ip
 204:	00280002 	eoreq	r0, r8, r2
 208:	01040000 	tsteq	r4, r0
 20c:	000002dd 	ldreqd	r0, [r0], -sp
 210:	3000df68 	andcc	sp, r0, r8, ror #30
 214:	3000e180 	andcc	lr, r0, r0, lsl #3
 218:	726f772f 	rsbvc	r7, pc, #12320768	; 0xbc0000
 21c:	6f742f6b 	swivs	0x00742f6b
 220:	2f736c6f 	swics	0x00736c6f
 224:	61657263 	cmnvs	r5, r3, ror #4
 228:	635f6574 	cmpvs	pc, #486539264	; 0x1d000000
 22c:	73736f72 	cmnvc	r3, #456	; 0x1c8
 230:	6c6f6f74 	stcvsl	15, cr6, [pc], #-464
 234:	72632f73 	rsbvc	r2, r3, #460	; 0x1cc
 238:	7473736f 	ldrvcbt	r7, [r3], #-879
 23c:	2d6c6f6f 	stccsl	15, cr6, [ip, #-444]!
 240:	33342e30 	teqcc	r4, #768	; 0x300
 244:	6975622f 	ldmvsdb	r5!, {r0, r1, r2, r3, r5, r9, sp, lr}^
 248:	612f646c 	teqvs	pc, ip, ror #8
 24c:	6c2d6d72 	stcvs	13, cr6, [sp], #-456
 250:	78756e69 	ldmvcda	r5!, {r0, r3, r5, r6, r9, sl, fp, sp, lr}^
 254:	6363672f 	cmnvs	r3, #12320768	; 0xbc0000
 258:	342e332d 	strcct	r3, [lr], #-813
 25c:	672d352e 	strvs	r3, [sp, -lr, lsr #10]!
 260:	6362696c 	cmnvs	r2, #1769472	; 0x1b0000
 264:	332e322d 	teqcc	lr, #-805306366	; 0xd0000002
 268:	672f362e 	strvs	r3, [pc, -lr, lsr #12]!
 26c:	332d6363 	teqcc	sp, #-1946157055	; 0x8c000001
 270:	352e342e 	strcc	r3, [lr, #-1070]!
 274:	6363672f 	cmnvs	r3, #12320768	; 0xbc0000
 278:	6e6f632f 	cdpvs	3, 6, cr6, cr15, cr15, {1}
 27c:	2f676966 	swics	0x00676966
 280:	2f6d7261 	swics	0x006d7261
 284:	65656569 	strvsb	r6, [r5, #-1385]!
 288:	2d343537 	cfldr32cs	mvfx3, [r4, #-220]!
 28c:	532e6673 	teqpl	lr, #120586240	; 0x7300000
 290:	6f772f00 	swivs	0x00772f00
 294:	742f6b72 	strvct	r6, [pc], #2930	; 29c <__code_start-0x30007d24>
 298:	736c6f6f 	cmnvc	ip, #444	; 0x1bc
 29c:	6572632f 	ldrvsb	r6, [r2, #-815]!
 2a0:	5f657461 	swipl	0x00657461
 2a4:	736f7263 	cmnvc	pc, #805306374	; 0x30000006
 2a8:	6f6f7473 	swivs	0x006f7473
 2ac:	632f736c 	teqvs	pc, #-1342177279	; 0xb0000001
 2b0:	73736f72 	cmnvc	r3, #456	; 0x1c8
 2b4:	6c6f6f74 	stcvsl	15, cr6, [pc], #-464
 2b8:	342e302d 	strcct	r3, [lr], #-45
 2bc:	75622f33 	strvcb	r2, [r2, #-3891]!
 2c0:	2f646c69 	swics	0x00646c69
 2c4:	2d6d7261 	sfmcs	f7, 2, [sp, #-388]!
 2c8:	756e696c 	strvcb	r6, [lr, #-2412]!
 2cc:	63672f78 	cmnvs	r7, #480	; 0x1e0
 2d0:	2e332d63 	cdpcs	13, 3, cr2, cr3, cr3, {3}
 2d4:	2d352e34 	ldccs	14, cr2, [r5, #-208]!
 2d8:	62696c67 	rsbvs	r6, r9, #26368	; 0x6700
 2dc:	2e322d63 	cdpcs	13, 3, cr2, cr2, cr3, {3}
 2e0:	2f362e33 	swics	0x00362e33
 2e4:	6c697562 	cfstr64vs	mvdx7, [r9], #-392
 2e8:	63672d64 	cmnvs	r7, #6400	; 0x1900
 2ec:	63672f63 	cmnvs	r7, #396	; 0x18c
 2f0:	4e470063 	cdpmi	0, 4, cr0, cr7, cr3, {3}
 2f4:	53412055 	cmppl	r1, #85	; 0x55
 2f8:	312e3220 	teqcc	lr, r0, lsr #4
 2fc:	80010035 	andhi	r0, r1, r5, lsr r0
 300:	000000fc 	streqd	r0, [r0], -ip
 304:	003c0002 	eoreqs	r0, ip, r2
 308:	01040000 	tsteq	r4, r0
 30c:	00000425 	andeq	r0, r0, r5, lsr #8
 310:	3000e180 	andcc	lr, r0, r0, lsl #3
 314:	3000e4dc 	ldrccd	lr, [r0], -ip
 318:	726f772f 	rsbvc	r7, pc, #12320768	; 0xbc0000
 31c:	6f742f6b 	swivs	0x00742f6b
 320:	2f736c6f 	swics	0x00736c6f
 324:	61657263 	cmnvs	r5, r3, ror #4
 328:	635f6574 	cmpvs	pc, #486539264	; 0x1d000000
 32c:	73736f72 	cmnvc	r3, #456	; 0x1c8
 330:	6c6f6f74 	stcvsl	15, cr6, [pc], #-464
 334:	72632f73 	rsbvc	r2, r3, #460	; 0x1cc
 338:	7473736f 	ldrvcbt	r7, [r3], #-879
 33c:	2d6c6f6f 	stccsl	15, cr6, [ip, #-444]!
 340:	33342e30 	teqcc	r4, #768	; 0x300
 344:	6975622f 	ldmvsdb	r5!, {r0, r1, r2, r3, r5, r9, sp, lr}^
 348:	612f646c 	teqvs	pc, ip, ror #8
 34c:	6c2d6d72 	stcvs	13, cr6, [sp], #-456
 350:	78756e69 	ldmvcda	r5!, {r0, r3, r5, r6, r9, sl, fp, sp, lr}^
 354:	6363672f 	cmnvs	r3, #12320768	; 0xbc0000
 358:	342e332d 	strcct	r3, [lr], #-813
 35c:	672d352e 	strvs	r3, [sp, -lr, lsr #10]!
 360:	6362696c 	cmnvs	r2, #1769472	; 0x1b0000
 364:	332e322d 	teqcc	lr, #-805306366	; 0xd0000002
 368:	672f362e 	strvs	r3, [pc, -lr, lsr #12]!
 36c:	332d6363 	teqcc	sp, #-1946157055	; 0x8c000001
 370:	352e342e 	strcc	r3, [lr, #-1070]!
 374:	6363672f 	cmnvs	r3, #12320768	; 0xbc0000
 378:	6e6f632f 	cdpvs	3, 6, cr6, cr15, cr15, {1}
 37c:	2f676966 	swics	0x00676966
 380:	2f6d7261 	swics	0x006d7261
 384:	65656569 	strvsb	r6, [r5, #-1385]!
 388:	2d343537 	cfldr32cs	mvfx3, [r4, #-220]!
 38c:	532e6673 	teqpl	lr, #120586240	; 0x7300000
 390:	6f772f00 	swivs	0x00772f00
 394:	742f6b72 	strvct	r6, [pc], #2930	; 39c <__code_start-0x30007c24>
 398:	736c6f6f 	cmnvc	ip, #444	; 0x1bc
 39c:	6572632f 	ldrvsb	r6, [r2, #-815]!
 3a0:	5f657461 	swipl	0x00657461
 3a4:	736f7263 	cmnvc	pc, #805306374	; 0x30000006
 3a8:	6f6f7473 	swivs	0x006f7473
 3ac:	632f736c 	teqvs	pc, #-1342177279	; 0xb0000001
 3b0:	73736f72 	cmnvc	r3, #456	; 0x1c8
 3b4:	6c6f6f74 	stcvsl	15, cr6, [pc], #-464
 3b8:	342e302d 	strcct	r3, [lr], #-45
 3bc:	75622f33 	strvcb	r2, [r2, #-3891]!
 3c0:	2f646c69 	swics	0x00646c69
 3c4:	2d6d7261 	sfmcs	f7, 2, [sp, #-388]!
 3c8:	756e696c 	strvcb	r6, [lr, #-2412]!
 3cc:	63672f78 	cmnvs	r7, #480	; 0x1e0
 3d0:	2e332d63 	cdpcs	13, 3, cr2, cr3, cr3, {3}
 3d4:	2d352e34 	ldccs	14, cr2, [r5, #-208]!
 3d8:	62696c67 	rsbvs	r6, r9, #26368	; 0x6700
 3dc:	2e322d63 	cdpcs	13, 3, cr2, cr2, cr3, {3}
 3e0:	2f362e33 	swics	0x00362e33
 3e4:	6c697562 	cfstr64vs	mvdx7, [r9], #-392
 3e8:	63672d64 	cmnvs	r7, #6400	; 0x1900
 3ec:	63672f63 	cmnvs	r7, #396	; 0x18c
 3f0:	4e470063 	cdpmi	0, 4, cr0, cr7, cr3, {3}
 3f4:	53412055 	cmppl	r1, #85	; 0x55
 3f8:	312e3220 	teqcc	lr, r0, lsr #4
 3fc:	80010035 	andhi	r0, r1, r5, lsr r0
Disassembly of section .debug_abbrev:

00000000 <.debug_abbrev>:
   0:	10001101 	andne	r1, r0, r1, lsl #2
   4:	12011106 	andne	r1, r1, #-2147483647	; 0x80000001
   8:	1b080301 	blne	200c14 <__code_start-0x2fe073ac>
   c:	13082508 	tstne	r8, #33554432	; 0x2000000
  10:	00000005 	andeq	r0, r0, r5
  14:	10001101 	andne	r1, r0, r1, lsl #2
  18:	12011106 	andne	r1, r1, #-2147483647	; 0x80000001
  1c:	1b080301 	blne	200c28 <__code_start-0x2fe07398>
  20:	13082508 	tstne	r8, #33554432	; 0x2000000
  24:	00000005 	andeq	r0, r0, r5
  28:	10001101 	andne	r1, r0, r1, lsl #2
  2c:	12011106 	andne	r1, r1, #-2147483647	; 0x80000001
  30:	1b080301 	blne	200c3c <__code_start-0x2fe07384>
  34:	13082508 	tstne	r8, #33554432	; 0x2000000
  38:	00000005 	andeq	r0, r0, r5
  3c:	10001101 	andne	r1, r0, r1, lsl #2
  40:	12011106 	andne	r1, r1, #-2147483647	; 0x80000001
  44:	1b080301 	blne	200c50 <__code_start-0x2fe07370>
  48:	13082508 	tstne	r8, #33554432	; 0x2000000
  4c:	00000005 	andeq	r0, r0, r5
Disassembly of section .debug_line:

00000000 <.debug_line>:
   0:	000001e0 	andeq	r0, r0, r0, ror #3
   4:	009d0002 	addeqs	r0, sp, r2
   8:	01020000 	tsteq	r2, r0
   c:	000a0efb 	streqd	r0, [sl], -fp
  10:	01010101 	tsteq	r1, r1, lsl #2
  14:	01000000 	tsteq	r0, r0
  18:	726f772f 	rsbvc	r7, pc, #12320768	; 0xbc0000
  1c:	6f742f6b 	swivs	0x00742f6b
  20:	2f736c6f 	swics	0x00736c6f
  24:	61657263 	cmnvs	r5, r3, ror #4
  28:	635f6574 	cmpvs	pc, #486539264	; 0x1d000000
  2c:	73736f72 	cmnvc	r3, #456	; 0x1c8
  30:	6c6f6f74 	stcvsl	15, cr6, [pc], #-464
  34:	72632f73 	rsbvc	r2, r3, #460	; 0x1cc
  38:	7473736f 	ldrvcbt	r7, [r3], #-879
  3c:	2d6c6f6f 	stccsl	15, cr6, [ip, #-444]!
  40:	33342e30 	teqcc	r4, #768	; 0x300
  44:	6975622f 	ldmvsdb	r5!, {r0, r1, r2, r3, r5, r9, sp, lr}^
  48:	612f646c 	teqvs	pc, ip, ror #8
  4c:	6c2d6d72 	stcvs	13, cr6, [sp], #-456
  50:	78756e69 	ldmvcda	r5!, {r0, r3, r5, r6, r9, sl, fp, sp, lr}^
  54:	6363672f 	cmnvs	r3, #12320768	; 0xbc0000
  58:	342e332d 	strcct	r3, [lr], #-813
  5c:	672d352e 	strvs	r3, [sp, -lr, lsr #10]!
  60:	6362696c 	cmnvs	r2, #1769472	; 0x1b0000
  64:	332e322d 	teqcc	lr, #-805306366	; 0xd0000002
  68:	672f362e 	strvs	r3, [pc, -lr, lsr #12]!
  6c:	332d6363 	teqcc	sp, #-1946157055	; 0x8c000001
  70:	352e342e 	strcc	r3, [lr, #-1070]!
  74:	6363672f 	cmnvs	r3, #12320768	; 0xbc0000
  78:	6e6f632f 	cdpvs	3, 6, cr6, cr15, cr15, {1}
  7c:	2f676966 	swics	0x00676966
  80:	006d7261 	rsbeq	r7, sp, r1, ror #4
  84:	65656900 	strvsb	r6, [r5, #-2304]!
  88:	34353765 	ldrcct	r3, [r5], #-1893
  8c:	2e66642d 	cdpcs	4, 6, cr6, cr6, cr13, {1}
  90:	00010053 	andeq	r0, r1, r3, asr r0
  94:	62696c00 	rsbvs	r6, r9, #0	; 0x0
  98:	6e756631 	mrcvs	6, 3, r6, cr5, cr1, {1}
  9c:	612e7363 	teqvs	lr, r3, ror #6
  a0:	01006d73 	tsteq	r0, r3, ror sp
  a4:	00000000 	andeq	r0, r0, r0
  a8:	db600205 	blle	18008c4 <__code_start-0x2e8076fc>
  ac:	c9033000 	stmgtdb	r3, {ip, sp}
  b0:	2c330100 	ldfcss	f0, [r3]
  b4:	2c2f2c2c 	stccs	12, cr2, [pc], #-176
  b8:	2d2c2c2c 	stccs	12, cr2, [ip, #-176]!
  bc:	2c2c2c2e 	stccs	12, cr2, [ip], #-184
  c0:	2f2c2c2e 	swics	0x002c2c2e
  c4:	2c2c2c2c 	stccs	12, cr2, [ip], #-176
  c8:	2c2c2c2c 	stccs	12, cr2, [ip], #-176
  cc:	0204312c 	andeq	r3, r4, #11	; 0xb
  d0:	33010427 	tstcc	r1, #654311424	; 0x27000000
  d4:	2c2c2c2c 	stccs	12, cr2, [ip], #-176
  d8:	2c2c2d2c 	stccs	13, cr2, [ip], #-176
  dc:	2f2c2c2c 	swics	0x002c2c2c
  e0:	2c2c302c 	stccs	0, cr3, [ip], #-176
  e4:	2c2c2c2c 	stccs	12, cr2, [ip], #-176
  e8:	2e2c2c2c 	cdpcs	12, 2, cr2, cr12, cr12, {1}
  ec:	2c2c2c2c 	stccs	12, cr2, [ip], #-176
  f0:	2c2c2c2c 	stccs	12, cr2, [ip], #-176
  f4:	2c2c2c2c 	stccs	12, cr2, [ip], #-176
  f8:	2c2f2c2e 	stccs	12, cr2, [pc], #-184
  fc:	2f2c2c2c 	swics	0x002c2c2c
 100:	2c2c2c2c 	stccs	12, cr2, [ip], #-176
 104:	2c2c2e2c 	stccs	14, cr2, [ip], #-176
 108:	2c2d2c2c 	stccs	12, cr2, [sp], #-176
 10c:	312c2c2c 	teqcc	ip, ip, lsr #24
 110:	2f2c2c2c 	swics	0x002c2c2c
 114:	2f2c2e2c 	swics	0x002c2e2c
 118:	02042c2c 	andeq	r2, r4, #11264	; 0x2c00
 11c:	2b7f9003 	blcs	1fe4130 <__code_start-0x2e023e90>
 120:	f8030104 	stmnvda	r3, {r2, r8}
 124:	2c2c2b00 	stccs	11, cr2, [ip]
 128:	2c2c2c2c 	stccs	12, cr2, [ip], #-176
 12c:	2c2c2c2c 	stccs	12, cr2, [ip], #-176
 130:	2c2c2c2c 	stccs	12, cr2, [ip], #-176
 134:	2c2c2c2c 	stccs	12, cr2, [ip], #-176
 138:	2b0e032c 	blcs	380df0 <__code_start-0x2fc871d0>
 13c:	2f2c2c2c 	swics	0x002c2c2c
 140:	2c2c2c2c 	stccs	12, cr2, [ip], #-176
 144:	2c2c2c2f 	stccs	12, cr2, [ip], #-188
 148:	2f2c2e2c 	swics	0x002c2e2c
 14c:	2c2c2c2c 	stccs	12, cr2, [ip], #-176
 150:	2c2c2c2e 	stccs	12, cr2, [ip], #-184
 154:	0302042c 	tsteq	r2, #738197504	; 0x2c000000
 158:	042b7ec1 	streqt	r7, [fp], #-3777
 15c:	01c40301 	biceq	r0, r4, r1, lsl #6
 160:	2c2c2c2b 	stccs	12, cr2, [ip], #-172
 164:	0302042c 	tsteq	r2, #738197504	; 0x2c000000
 168:	042b7eb8 	streqt	r7, [fp], #-3768
 16c:	01cd0301 	biceq	r0, sp, r1, lsl #6
 170:	02042c2b 	andeq	r2, r4, #11008	; 0x2b00
 174:	2b7eb203 	blcs	1fac988 <__code_start-0x2e05b638>
 178:	d3030104 	tstle	r3, #1	; 0x1
 17c:	2c2c2b01 	stccs	11, cr2, [ip], #-4
 180:	2f2c2c2c 	swics	0x002c2c2c
 184:	2c2c2c2c 	stccs	12, cr2, [ip], #-176
 188:	2c2f2c2c 	stccs	12, cr2, [pc], #-176
 18c:	0302042c 	tsteq	r2, #738197504	; 0x2c000000
 190:	042b7e98 	streqt	r7, [fp], #-3736
 194:	01f20301 	mvneqs	r0, r1, lsl #6
 198:	2c2c2c2b 	stccs	12, cr2, [ip], #-172
 19c:	8b030204 	blhi	c09b4 <__code_start-0x2ff4760c>
 1a0:	01042b7e 	tsteq	r4, lr, ror fp
 1a4:	2b01f803 	blcs	7e1b8 <__code_start-0x2ff89e08>
 1a8:	2c2c2c2c 	stccs	12, cr2, [ip], #-176
 1ac:	84030204 	strhi	r0, [r3], #-516
 1b0:	01042b7e 	tsteq	r4, lr, ror fp
 1b4:	2b028303 	blcs	a0dc8 <__code_start-0x2ff671f8>
 1b8:	2c2c2c2c 	stccs	12, cr2, [ip], #-176
 1bc:	2c2c2c2c 	stccs	12, cr2, [ip], #-176
 1c0:	2c2c302c 	stccs	0, cr3, [ip], #-176
 1c4:	2c2c2c2c 	stccs	12, cr2, [ip], #-176
 1c8:	2c2c2c2c 	stccs	12, cr2, [ip], #-176
 1cc:	2c2c2c30 	stccs	12, cr2, [ip], #-192
 1d0:	2c2c2c2c 	stccs	12, cr2, [ip], #-176
 1d4:	2c2d2c2c 	stccs	12, cr2, [sp], #-176
 1d8:	2c2c2e2c 	stccs	14, cr2, [ip], #-176
 1dc:	022c2c2c 	eoreq	r2, ip, #11264	; 0x2c00
 1e0:	01010002 	tsteq	r1, r2
 1e4:	00000016 	andeq	r0, r0, r6, lsl r0
 1e8:	00100002 	andeqs	r0, r0, r2
 1ec:	01020000 	tsteq	r2, r0
 1f0:	000a0efb 	streqd	r0, [sl], -fp
 1f4:	01010101 	tsteq	r1, r1, lsl #2
 1f8:	01000000 	tsteq	r0, r0
 1fc:	00c10000 	sbceq	r0, r1, r0
 200:	00020000 	andeq	r0, r2, r0
 204:	0000008c 	andeq	r0, r0, ip, lsl #1
 208:	0efb0102 	cdpeq	1, 15, cr0, cr11, cr2, {0}
 20c:	0101000a 	tsteq	r1, sl
 210:	00000101 	andeq	r0, r0, r1, lsl #2
 214:	772f0100 	strvc	r0, [pc, -r0, lsl #2]!
 218:	2f6b726f 	swics	0x006b726f
 21c:	6c6f6f74 	stcvsl	15, cr6, [pc], #-464
 220:	72632f73 	rsbvc	r2, r3, #460	; 0x1cc
 224:	65746165 	ldrvsb	r6, [r4, #-357]!
 228:	6f72635f 	swivs	0x0072635f
 22c:	6f747373 	swivs	0x00747373
 230:	2f736c6f 	swics	0x00736c6f
 234:	736f7263 	cmnvc	pc, #805306374	; 0x30000006
 238:	6f6f7473 	swivs	0x006f7473
 23c:	2e302d6c 	cdpcs	13, 3, cr2, cr0, cr12, {3}
 240:	622f3334 	eorvs	r3, pc, #-805306368	; 0xd0000000
 244:	646c6975 	strvsbt	r6, [ip], #-2421
 248:	6d72612f 	ldfvse	f6, [r2, #-188]!
 24c:	6e696c2d 	cdpvs	12, 6, cr6, cr9, cr13, {1}
 250:	672f7875 	undefined
 254:	332d6363 	teqcc	sp, #-1946157055	; 0x8c000001
 258:	352e342e 	strcc	r3, [lr, #-1070]!
 25c:	696c672d 	stmvsdb	ip!, {r0, r2, r3, r5, r8, r9, sl, sp, lr}^
 260:	322d6362 	eorcc	r6, sp, #-2013265919	; 0x88000001
 264:	362e332e 	strcct	r3, [lr], -lr, lsr #6
 268:	6363672f 	cmnvs	r3, #12320768	; 0xbc0000
 26c:	342e332d 	strcct	r3, [lr], #-813
 270:	672f352e 	strvs	r3, [pc, -lr, lsr #10]!
 274:	632f6363 	teqvs	pc, #-1946157055	; 0x8c000001
 278:	69666e6f 	stmvsdb	r6!, {r0, r1, r2, r3, r5, r6, r9, sl, fp, sp, lr}^
 27c:	72612f67 	rsbvc	r2, r1, #412	; 0x19c
 280:	6900006d 	stmvsdb	r0, {r0, r2, r3, r5, r6}
 284:	37656565 	strccb	r6, [r5, -r5, ror #10]!
 288:	642d3435 	strvst	r3, [sp], #-1077
 28c:	00532e66 	subeqs	r2, r3, r6, ror #28
 290:	00000001 	andeq	r0, r0, r1
 294:	e8020500 	stmda	r2, {r8, sl}
 298:	033000de 	teqeq	r0, #222	; 0xde
 29c:	2c010896 	stccs	8, cr0, [r1], {150}
 2a0:	2c2c2e2d 	stccs	14, cr2, [ip], #-180
 2a4:	2c2c2c2c 	stccs	12, cr2, [ip], #-176
 2a8:	2c2c2c2c 	stccs	12, cr2, [ip], #-176
 2ac:	2c2c2c2d 	stccs	12, cr2, [ip], #-180
 2b0:	2c2c2c2c 	stccs	12, cr2, [ip], #-176
 2b4:	2d2c2d2c 	stccs	13, cr2, [ip, #-176]!
 2b8:	2c2c2c2c 	stccs	12, cr2, [ip], #-176
 2bc:	02022c2d 	andeq	r2, r2, #11520	; 0x2d00
 2c0:	16010100 	strne	r0, [r1], -r0, lsl #2
 2c4:	02000000 	andeq	r0, r0, #0	; 0x0
 2c8:	00001000 	andeq	r1, r0, r0
 2cc:	fb010200 	blx	40ad6 <__code_start-0x2ffc74ea>
 2d0:	01000a0e 	tsteq	r0, lr, lsl #20
 2d4:	00010101 	andeq	r0, r1, r1, lsl #2
 2d8:	00010000 	andeq	r0, r1, r0
 2dc:	00012a00 	andeq	r2, r1, r0, lsl #20
 2e0:	8c000200 	sfmhi	f0, 4, [r0], {0}
 2e4:	02000000 	andeq	r0, r0, #0	; 0x0
 2e8:	0a0efb01 	beq	3beef4 <__code_start-0x2fc490cc>
 2ec:	01010100 	tsteq	r1, r0, lsl #2
 2f0:	00000001 	andeq	r0, r0, r1
 2f4:	6f772f01 	swivs	0x00772f01
 2f8:	742f6b72 	strvct	r6, [pc], #2930	; 300 <__code_start-0x30007cc0>
 2fc:	736c6f6f 	cmnvc	ip, #444	; 0x1bc
 300:	6572632f 	ldrvsb	r6, [r2, #-815]!
 304:	5f657461 	swipl	0x00657461
 308:	736f7263 	cmnvc	pc, #805306374	; 0x30000006
 30c:	6f6f7473 	swivs	0x006f7473
 310:	632f736c 	teqvs	pc, #-1342177279	; 0xb0000001
 314:	73736f72 	cmnvc	r3, #456	; 0x1c8
 318:	6c6f6f74 	stcvsl	15, cr6, [pc], #-464
 31c:	342e302d 	strcct	r3, [lr], #-45
 320:	75622f33 	strvcb	r2, [r2, #-3891]!
 324:	2f646c69 	swics	0x00646c69
 328:	2d6d7261 	sfmcs	f7, 2, [sp, #-388]!
 32c:	756e696c 	strvcb	r6, [lr, #-2412]!
 330:	63672f78 	cmnvs	r7, #480	; 0x1e0
 334:	2e332d63 	cdpcs	13, 3, cr2, cr3, cr3, {3}
 338:	2d352e34 	ldccs	14, cr2, [r5, #-208]!
 33c:	62696c67 	rsbvs	r6, r9, #26368	; 0x6700
 340:	2e322d63 	cdpcs	13, 3, cr2, cr2, cr3, {3}
 344:	2f362e33 	swics	0x00362e33
 348:	2d636367 	stccsl	3, cr6, [r3, #-412]!
 34c:	2e342e33 	mrccs	14, 1, r2, cr4, cr3, {1}
 350:	63672f35 	cmnvs	r7, #212	; 0xd4
 354:	6f632f63 	swivs	0x00632f63
 358:	6769666e 	strvsb	r6, [r9, -lr, ror #12]!
 35c:	6d72612f 	ldfvse	f6, [r2, #-188]!
 360:	65690000 	strvsb	r0, [r9]!
 364:	35376565 	ldrcc	r6, [r7, #-1381]!
 368:	66732d34 	undefined
 36c:	0100532e 	tsteq	r0, lr, lsr #6
 370:	00000000 	andeq	r0, r0, r0
 374:	df680205 	swile	0x00680205
 378:	35033000 	strcc	r3, [r3]
 37c:	2c2c3301 	stccs	3, cr3, [ip], #-4
 380:	2c2c2c2f 	stccs	12, cr2, [ip], #-188
 384:	2e2c2c2e 	cdpcs	12, 2, cr2, cr12, cr14, {1}
 388:	2c2f2c2c 	stccs	12, cr2, [pc], #-176
 38c:	2c2c2c2c 	stccs	12, cr2, [ip], #-176
 390:	2c2e2c30 	stccs	12, cr2, [lr], #-192
 394:	2c2c2c2c 	stccs	12, cr2, [ip], #-176
 398:	2c2f2c2c 	stccs	12, cr2, [pc], #-176
 39c:	2c2c2c31 	stccs	12, cr2, [ip], #-196
 3a0:	2c2c2e2c 	stccs	14, cr2, [ip], #-176
 3a4:	2c2c2f2d 	stccs	15, cr2, [ip], #-180
 3a8:	2c2c2f2c 	stccs	15, cr2, [ip], #-176
 3ac:	2e2c2c2c 	cdpcs	12, 2, cr2, cr12, cr12, {1}
 3b0:	2c2d2c2c 	stccs	12, cr2, [sp], #-176
 3b4:	2c2c312c 	stfcss	f3, [ip], #-176
 3b8:	2c2e2c2f 	stccs	12, cr2, [lr], #-188
 3bc:	2c2c2c2f 	stccs	12, cr2, [ip], #-188
 3c0:	2c2c2c33 	stccs	12, cr2, [ip], #-204
 3c4:	2c2c2c2c 	stccs	12, cr2, [ip], #-176
 3c8:	2c2c2c2c 	stccs	12, cr2, [ip], #-176
 3cc:	2c2c2c2c 	stccs	12, cr2, [ip], #-176
 3d0:	2b0d032c 	blcs	341088 <__code_start-0x2fcc6f38>
 3d4:	302c2c2c 	eorcc	r2, ip, ip, lsr #24
 3d8:	2c2c2c2c 	stccs	12, cr2, [ip], #-176
 3dc:	2c2c2f2c 	stccs	15, cr2, [ip], #-176
 3e0:	2f2c2c2c 	swics	0x002c2c2c
 3e4:	09032c2c 	stmeqdb	r3, {r2, r3, r5, sl, fp, sp}
 3e8:	2c2c2c2b 	stccs	12, cr2, [ip], #-172
 3ec:	2c2c2c2c 	stccs	12, cr2, [ip], #-176
 3f0:	2e2c312c 	sufcsep	f3, f4, #4.0
 3f4:	2d2c2d2c 	stccs	13, cr2, [ip, #-176]!
 3f8:	2e2c2c2c 	cdpcs	12, 2, cr2, cr12, cr12, {1}
 3fc:	2c2c2c2c 	stccs	12, cr2, [ip], #-176
 400:	2c2c2c2c 	stccs	12, cr2, [ip], #-176
 404:	02022c2c 	andeq	r2, r2, #11264	; 0x2c00
 408:	16010100 	strne	r0, [r1], -r0, lsl #2
 40c:	02000000 	andeq	r0, r0, #0	; 0x0
 410:	00001000 	andeq	r1, r0, r0
 414:	fb010200 	blx	40c1e <__code_start-0x2ffc73a2>
 418:	01000a0e 	tsteq	r0, lr, lsl #20
 41c:	00010101 	andeq	r0, r1, r1, lsl #2
 420:	00010000 	andeq	r0, r1, r0
 424:	00017a00 	andeq	r7, r1, r0, lsl #20
 428:	8c000200 	sfmhi	f0, 4, [r0], {0}
 42c:	02000000 	andeq	r0, r0, #0	; 0x0
 430:	0a0efb01 	beq	3bf03c <__code_start-0x2fc48f84>
 434:	01010100 	tsteq	r1, r0, lsl #2
 438:	00000001 	andeq	r0, r0, r1
 43c:	6f772f01 	swivs	0x00772f01
 440:	742f6b72 	strvct	r6, [pc], #2930	; 448 <__code_start-0x30007b78>
 444:	736c6f6f 	cmnvc	ip, #444	; 0x1bc
 448:	6572632f 	ldrvsb	r6, [r2, #-815]!
 44c:	5f657461 	swipl	0x00657461
 450:	736f7263 	cmnvc	pc, #805306374	; 0x30000006
 454:	6f6f7473 	swivs	0x006f7473
 458:	632f736c 	teqvs	pc, #-1342177279	; 0xb0000001
 45c:	73736f72 	cmnvc	r3, #456	; 0x1c8
 460:	6c6f6f74 	stcvsl	15, cr6, [pc], #-464
 464:	342e302d 	strcct	r3, [lr], #-45
 468:	75622f33 	strvcb	r2, [r2, #-3891]!
 46c:	2f646c69 	swics	0x00646c69
 470:	2d6d7261 	sfmcs	f7, 2, [sp, #-388]!
 474:	756e696c 	strvcb	r6, [lr, #-2412]!
 478:	63672f78 	cmnvs	r7, #480	; 0x1e0
 47c:	2e332d63 	cdpcs	13, 3, cr2, cr3, cr3, {3}
 480:	2d352e34 	ldccs	14, cr2, [r5, #-208]!
 484:	62696c67 	rsbvs	r6, r9, #26368	; 0x6700
 488:	2e322d63 	cdpcs	13, 3, cr2, cr2, cr3, {3}
 48c:	2f362e33 	swics	0x00362e33
 490:	2d636367 	stccsl	3, cr6, [r3, #-412]!
 494:	2e342e33 	mrccs	14, 1, r2, cr4, cr3, {1}
 498:	63672f35 	cmnvs	r7, #212	; 0xd4
 49c:	6f632f63 	swivs	0x00632f63
 4a0:	6769666e 	strvsb	r6, [r9, -lr, ror #12]!
 4a4:	6d72612f 	ldfvse	f6, [r2, #-188]!
 4a8:	65690000 	strvsb	r0, [r9]!
 4ac:	35376565 	ldrcc	r6, [r7, #-1381]!
 4b0:	66732d34 	undefined
 4b4:	0100532e 	tsteq	r0, lr, lsr #6
 4b8:	00000000 	andeq	r0, r0, r0
 4bc:	e1800205 	orr	r0, r0, r5, lsl #4
 4c0:	ae033000 	cdpge	0, 0, cr3, cr3, cr0, {0}
 4c4:	2c2c0102 	stfcss	f0, [ip], #-8
 4c8:	2e2c2c2e 	cdpcs	12, 2, cr2, cr12, cr14, {1}
 4cc:	2c302c2c 	ldccs	12, cr2, [r0], #-176
 4d0:	2c2e2d2c 	stccs	13, cr2, [lr], #-176
 4d4:	2c2c2c2e 	stccs	12, cr2, [ip], #-184
 4d8:	2c2c2c31 	stccs	12, cr2, [ip], #-196
 4dc:	2c2c2c2c 	stccs	12, cr2, [ip], #-176
 4e0:	2c2c2c2c 	stccs	12, cr2, [ip], #-176
 4e4:	2c2b0903 	stccs	9, cr0, [fp], #-12
 4e8:	2c2c2c2f 	stccs	12, cr2, [ip], #-188
 4ec:	2c2f2c2e 	stccs	12, cr2, [pc], #-184
 4f0:	2f2c2c2e 	swics	0x002c2c2e
 4f4:	2e2c2e2c 	cdpcs	14, 2, cr2, cr12, cr12, {1}
 4f8:	2c2f2c2c 	stccs	12, cr2, [pc], #-176
 4fc:	2e2c2f2c 	cdpcs	15, 2, cr2, cr12, cr12, {1}
 500:	2c2e2c2c 	stccs	12, cr2, [lr], #-176
 504:	2c2c2c2c 	stccs	12, cr2, [ip], #-176
 508:	2c302c2c 	ldccs	12, cr2, [r0], #-176
 50c:	2c2c2c2c 	stccs	12, cr2, [ip], #-176
 510:	2c302c2c 	ldccs	12, cr2, [r0], #-176
 514:	2c2c2c2c 	stccs	12, cr2, [ip], #-176
 518:	2c2c2c2c 	stccs	12, cr2, [ip], #-176
 51c:	2c2c2c2c 	stccs	12, cr2, [ip], #-176
 520:	2c2c2f2c 	stccs	15, cr2, [ip], #-176
 524:	2c2c2c2c 	stccs	12, cr2, [ip], #-176
 528:	2c2c2c2c 	stccs	12, cr2, [ip], #-176
 52c:	2f2f2c2c 	swics	0x002f2c2c
 530:	2f2c2c2c 	swics	0x002c2c2c
 534:	2c322c2c 	ldccs	12, cr2, [r2], #-176
 538:	2c2c2e2c 	stccs	14, cr2, [ip], #-176
 53c:	2c302c2c 	ldccs	12, cr2, [r0], #-176
 540:	2f2e2d2c 	swics	0x002e2d2c
 544:	2c2c2c2c 	stccs	12, cr2, [ip], #-176
 548:	2c2e2e2c 	stccs	14, cr2, [lr], #-176
 54c:	2c2c2e2c 	stccs	14, cr2, [ip], #-176
 550:	2c2e2c2c 	stccs	12, cr2, [lr], #-176
 554:	2c2c2c2c 	stccs	12, cr2, [ip], #-176
 558:	2c2c2c2c 	stccs	12, cr2, [ip], #-176
 55c:	2c2c2c2c 	stccs	12, cr2, [ip], #-176
 560:	2c2e2c2c 	stccs	12, cr2, [lr], #-176
 564:	2e2c2c2e 	cdpcs	12, 2, cr2, cr12, cr14, {1}
 568:	2c2f2c2c 	stccs	12, cr2, [pc], #-176
 56c:	2c2c2c2c 	stccs	12, cr2, [ip], #-176
 570:	2c2c2c2c 	stccs	12, cr2, [ip], #-176
 574:	302c2c2c 	eorcc	r2, ip, ip, lsr #24
 578:	2c2c2c2c 	stccs	12, cr2, [ip], #-176
 57c:	2c2c2c30 	stccs	12, cr2, [ip], #-192
 580:	2c2c2c2c 	stccs	12, cr2, [ip], #-176
 584:	2c2c2c2c 	stccs	12, cr2, [ip], #-176
 588:	2f2c2c2c 	swics	0x002c2c2c
 58c:	2c2c2c2c 	stccs	12, cr2, [ip], #-176
 590:	2c2c2c2c 	stccs	12, cr2, [ip], #-176
 594:	2c2c2c2c 	stccs	12, cr2, [ip], #-176
 598:	2c2c2d2c 	stccs	13, cr2, [ip], #-176
 59c:	02022c2c 	andeq	r2, r2, #11264	; 0x2c00
 5a0:	16010100 	strne	r0, [r1], -r0, lsl #2
 5a4:	02000000 	andeq	r0, r0, #0	; 0x0
 5a8:	00001000 	andeq	r1, r0, r0
 5ac:	fb010200 	blx	40db6 <__code_start-0x2ffc720a>
 5b0:	01000a0e 	tsteq	r0, lr, lsl #20
 5b4:	00010101 	andeq	r0, r1, r1, lsl #2
 5b8:	00010000 	andeq	r0, r1, r0
	...
